                              1 ;--------------------------------------------------------
                              2 ; File Created by SDCC : free open source ANSI-C Compiler
                              3 ; Version 2.8.2 #5199 (Jul 29 2008) (MINGW32)
                              4 ; This file was generated Mon Aug 19 00:21:24 2019
                              5 ;--------------------------------------------------------
                              6 	.module LCD
                              7 	.optsdcc -mmcs51 --model-large
                              8 	
                              9 ;--------------------------------------------------------
                             10 ; Public variables in this module
                             11 ;--------------------------------------------------------
                             12 	.globl _setPlayerCursor
                             13 	.globl _setChar
                             14 	.globl _setCursorAt
                             15 	.globl _CY
                             16 	.globl _AC
                             17 	.globl _F0
                             18 	.globl _RS1
                             19 	.globl _RS0
                             20 	.globl _OV
                             21 	.globl _F1
                             22 	.globl _P
                             23 	.globl _PS
                             24 	.globl _PT1
                             25 	.globl _PX1
                             26 	.globl _PT0
                             27 	.globl _PX0
                             28 	.globl _RD
                             29 	.globl _WR
                             30 	.globl _T1
                             31 	.globl _T0
                             32 	.globl _INT1
                             33 	.globl _INT0
                             34 	.globl _TXD
                             35 	.globl _RXD
                             36 	.globl _P3_7
                             37 	.globl _P3_6
                             38 	.globl _P3_5
                             39 	.globl _P3_4
                             40 	.globl _P3_3
                             41 	.globl _P3_2
                             42 	.globl _P3_1
                             43 	.globl _P3_0
                             44 	.globl _EA
                             45 	.globl _ES
                             46 	.globl _ET1
                             47 	.globl _EX1
                             48 	.globl _ET0
                             49 	.globl _EX0
                             50 	.globl _P2_7
                             51 	.globl _P2_6
                             52 	.globl _P2_5
                             53 	.globl _P2_4
                             54 	.globl _P2_3
                             55 	.globl _P2_2
                             56 	.globl _P2_1
                             57 	.globl _P2_0
                             58 	.globl _SM0
                             59 	.globl _SM1
                             60 	.globl _SM2
                             61 	.globl _REN
                             62 	.globl _TB8
                             63 	.globl _RB8
                             64 	.globl _TI
                             65 	.globl _RI
                             66 	.globl _P1_7
                             67 	.globl _P1_6
                             68 	.globl _P1_5
                             69 	.globl _P1_4
                             70 	.globl _P1_3
                             71 	.globl _P1_2
                             72 	.globl _P1_1
                             73 	.globl _P1_0
                             74 	.globl _TF1
                             75 	.globl _TR1
                             76 	.globl _TF0
                             77 	.globl _TR0
                             78 	.globl _IE1
                             79 	.globl _IT1
                             80 	.globl _IE0
                             81 	.globl _IT0
                             82 	.globl _P0_7
                             83 	.globl _P0_6
                             84 	.globl _P0_5
                             85 	.globl _P0_4
                             86 	.globl _P0_3
                             87 	.globl _P0_2
                             88 	.globl _P0_1
                             89 	.globl _P0_0
                             90 	.globl _B
                             91 	.globl _ACC
                             92 	.globl _PSW
                             93 	.globl _IP
                             94 	.globl _P3
                             95 	.globl _IE
                             96 	.globl _P2
                             97 	.globl _SBUF
                             98 	.globl _SCON
                             99 	.globl _P1
                            100 	.globl _TH1
                            101 	.globl _TH0
                            102 	.globl _TL1
                            103 	.globl _TL0
                            104 	.globl _TMOD
                            105 	.globl _TCON
                            106 	.globl _PCON
                            107 	.globl _DPH
                            108 	.globl _DPL
                            109 	.globl _SP
                            110 	.globl _P0
                            111 	.globl _LCD_putSCharAt_PARM_4
                            112 	.globl _LCD_putSCharAt_PARM_3
                            113 	.globl _LCD_putSCharAt_PARM_2
                            114 	.globl _LCD_putCharAt_PARM_3
                            115 	.globl _LCD_putCharAt_PARM_2
                            116 	.globl _LCD_putText_PARM_3
                            117 	.globl _LCD_putText_PARM_2
                            118 	.globl _LCD_putTextAt_PARM_3
                            119 	.globl _LCD_putTextAt_PARM_2
                            120 	.globl _setPlayerCursor_PARM_4
                            121 	.globl _setPlayerCursor_PARM_3
                            122 	.globl _setPlayerCursor_PARM_2
                            123 	.globl _configMap_PARM_2
                            124 	.globl _setCursorAt_PARM_2
                            125 	.globl _Timer0
                            126 	.globl _map
                            127 	.globl _SCmap
                            128 	.globl _LCDconfig
                            129 	.globl _printMap
                            130 	.globl _setMap1CGram
                            131 	.globl _setMap2CGram
                            132 	.globl _setMap3CGram
                            133 	.globl _setMap4CGram
                            134 	.globl _setMap5CGram
                            135 	.globl _configMap
                            136 	.globl _setCursorHomeAtLine
                            137 	.globl _clearLCD
                            138 	.globl _LCD_putTextAt
                            139 	.globl _LCD_putText
                            140 	.globl _LCD_putCharAt
                            141 	.globl _LCD_putSCharAt
                            142 ;--------------------------------------------------------
                            143 ; special function registers
                            144 ;--------------------------------------------------------
                            145 	.area RSEG    (DATA)
                    0080    146 _P0	=	0x0080
                    0081    147 _SP	=	0x0081
                    0082    148 _DPL	=	0x0082
                    0083    149 _DPH	=	0x0083
                    0087    150 _PCON	=	0x0087
                    0088    151 _TCON	=	0x0088
                    0089    152 _TMOD	=	0x0089
                    008A    153 _TL0	=	0x008a
                    008B    154 _TL1	=	0x008b
                    008C    155 _TH0	=	0x008c
                    008D    156 _TH1	=	0x008d
                    0090    157 _P1	=	0x0090
                    0098    158 _SCON	=	0x0098
                    0099    159 _SBUF	=	0x0099
                    00A0    160 _P2	=	0x00a0
                    00A8    161 _IE	=	0x00a8
                    00B0    162 _P3	=	0x00b0
                    00B8    163 _IP	=	0x00b8
                    00D0    164 _PSW	=	0x00d0
                    00E0    165 _ACC	=	0x00e0
                    00F0    166 _B	=	0x00f0
                            167 ;--------------------------------------------------------
                            168 ; special function bits
                            169 ;--------------------------------------------------------
                            170 	.area RSEG    (DATA)
                    0080    171 _P0_0	=	0x0080
                    0081    172 _P0_1	=	0x0081
                    0082    173 _P0_2	=	0x0082
                    0083    174 _P0_3	=	0x0083
                    0084    175 _P0_4	=	0x0084
                    0085    176 _P0_5	=	0x0085
                    0086    177 _P0_6	=	0x0086
                    0087    178 _P0_7	=	0x0087
                    0088    179 _IT0	=	0x0088
                    0089    180 _IE0	=	0x0089
                    008A    181 _IT1	=	0x008a
                    008B    182 _IE1	=	0x008b
                    008C    183 _TR0	=	0x008c
                    008D    184 _TF0	=	0x008d
                    008E    185 _TR1	=	0x008e
                    008F    186 _TF1	=	0x008f
                    0090    187 _P1_0	=	0x0090
                    0091    188 _P1_1	=	0x0091
                    0092    189 _P1_2	=	0x0092
                    0093    190 _P1_3	=	0x0093
                    0094    191 _P1_4	=	0x0094
                    0095    192 _P1_5	=	0x0095
                    0096    193 _P1_6	=	0x0096
                    0097    194 _P1_7	=	0x0097
                    0098    195 _RI	=	0x0098
                    0099    196 _TI	=	0x0099
                    009A    197 _RB8	=	0x009a
                    009B    198 _TB8	=	0x009b
                    009C    199 _REN	=	0x009c
                    009D    200 _SM2	=	0x009d
                    009E    201 _SM1	=	0x009e
                    009F    202 _SM0	=	0x009f
                    00A0    203 _P2_0	=	0x00a0
                    00A1    204 _P2_1	=	0x00a1
                    00A2    205 _P2_2	=	0x00a2
                    00A3    206 _P2_3	=	0x00a3
                    00A4    207 _P2_4	=	0x00a4
                    00A5    208 _P2_5	=	0x00a5
                    00A6    209 _P2_6	=	0x00a6
                    00A7    210 _P2_7	=	0x00a7
                    00A8    211 _EX0	=	0x00a8
                    00A9    212 _ET0	=	0x00a9
                    00AA    213 _EX1	=	0x00aa
                    00AB    214 _ET1	=	0x00ab
                    00AC    215 _ES	=	0x00ac
                    00AF    216 _EA	=	0x00af
                    00B0    217 _P3_0	=	0x00b0
                    00B1    218 _P3_1	=	0x00b1
                    00B2    219 _P3_2	=	0x00b2
                    00B3    220 _P3_3	=	0x00b3
                    00B4    221 _P3_4	=	0x00b4
                    00B5    222 _P3_5	=	0x00b5
                    00B6    223 _P3_6	=	0x00b6
                    00B7    224 _P3_7	=	0x00b7
                    00B0    225 _RXD	=	0x00b0
                    00B1    226 _TXD	=	0x00b1
                    00B2    227 _INT0	=	0x00b2
                    00B3    228 _INT1	=	0x00b3
                    00B4    229 _T0	=	0x00b4
                    00B5    230 _T1	=	0x00b5
                    00B6    231 _WR	=	0x00b6
                    00B7    232 _RD	=	0x00b7
                    00B8    233 _PX0	=	0x00b8
                    00B9    234 _PT0	=	0x00b9
                    00BA    235 _PX1	=	0x00ba
                    00BB    236 _PT1	=	0x00bb
                    00BC    237 _PS	=	0x00bc
                    00D0    238 _P	=	0x00d0
                    00D1    239 _F1	=	0x00d1
                    00D2    240 _OV	=	0x00d2
                    00D3    241 _RS0	=	0x00d3
                    00D4    242 _RS1	=	0x00d4
                    00D5    243 _F0	=	0x00d5
                    00D6    244 _AC	=	0x00d6
                    00D7    245 _CY	=	0x00d7
                            246 ;--------------------------------------------------------
                            247 ; overlayable register banks
                            248 ;--------------------------------------------------------
                            249 	.area REG_BANK_0	(REL,OVR,DATA)
   0000                     250 	.ds 8
                            251 ;--------------------------------------------------------
                            252 ; internal ram data
                            253 ;--------------------------------------------------------
                            254 	.area DSEG    (DATA)
   0000                     255 _LCD_putText_sloc0_1_0:
   0000                     256 	.ds 1
   0001                     257 _LCD_putText_sloc1_1_0:
   0001                     258 	.ds 1
   0002                     259 _LCD_putText_sloc2_1_0:
   0002                     260 	.ds 1
   0003                     261 _LCD_putText_sloc3_1_0:
   0003                     262 	.ds 1
                            263 ;--------------------------------------------------------
                            264 ; overlayable items in internal ram 
                            265 ;--------------------------------------------------------
                            266 	.area OSEG    (OVR,DATA)
                            267 ;--------------------------------------------------------
                            268 ; indirectly addressable internal ram data
                            269 ;--------------------------------------------------------
                            270 	.area ISEG    (DATA)
                            271 ;--------------------------------------------------------
                            272 ; absolute internal ram data
                            273 ;--------------------------------------------------------
                            274 	.area IABS    (ABS,DATA)
                            275 	.area IABS    (ABS,DATA)
                            276 ;--------------------------------------------------------
                            277 ; bit data
                            278 ;--------------------------------------------------------
                            279 	.area BSEG    (BIT)
                            280 ;--------------------------------------------------------
                            281 ; paged external ram data
                            282 ;--------------------------------------------------------
                            283 	.area PSEG    (PAG,XDATA)
                            284 ;--------------------------------------------------------
                            285 ; external ram data
                            286 ;--------------------------------------------------------
                            287 	.area XSEG    (XDATA)
                    FFC2    288 _winstLCD	=	0xffc2
                    FFD2    289 _wdataLCD	=	0xffd2
                    FFE2    290 _rinstLCD	=	0xffe2
                    FFF2    291 _rdataLCD	=	0xfff2
   0000                     292 _point:
   0000                     293 	.ds 8
   0008                     294 _SCmap::
   0008                     295 	.ds 64
   0048                     296 _map::
   0048                     297 	.ds 64
   0088                     298 _Timer0::
   0088                     299 	.ds 7
   008F                     300 _setCursorAt_PARM_2:
   008F                     301 	.ds 1
   0090                     302 _setCursorAt_line_1_1:
   0090                     303 	.ds 1
   0091                     304 _setChar_chr_1_1:
   0091                     305 	.ds 1
   0092                     306 _printMap_col_1_1:
   0092                     307 	.ds 1
   0093                     308 _setMap1CGram_c0_1_1:
   0093                     309 	.ds 8
   009B                     310 _setMap1CGram_c1_1_1:
   009B                     311 	.ds 8
   00A3                     312 _setMap1CGram_c2_1_1:
   00A3                     313 	.ds 8
   00AB                     314 _setMap1CGram_c3_1_1:
   00AB                     315 	.ds 8
   00B3                     316 _setMap1CGram_c4_1_1:
   00B3                     317 	.ds 8
   00BB                     318 _setMap1CGram_c5_1_1:
   00BB                     319 	.ds 8
   00C3                     320 _setMap1CGram_c6_1_1:
   00C3                     321 	.ds 8
   00CB                     322 _setMap1CGram_c7_1_1:
   00CB                     323 	.ds 8
   00D3                     324 _setMap2CGram_c0_1_1:
   00D3                     325 	.ds 8
   00DB                     326 _setMap2CGram_c1_1_1:
   00DB                     327 	.ds 8
   00E3                     328 _setMap2CGram_c2_1_1:
   00E3                     329 	.ds 8
   00EB                     330 _setMap2CGram_c3_1_1:
   00EB                     331 	.ds 8
   00F3                     332 _setMap2CGram_c4_1_1:
   00F3                     333 	.ds 8
   00FB                     334 _setMap2CGram_c5_1_1:
   00FB                     335 	.ds 8
   0103                     336 _setMap2CGram_c6_1_1:
   0103                     337 	.ds 8
   010B                     338 _setMap2CGram_c7_1_1:
   010B                     339 	.ds 8
   0113                     340 _setMap3CGram_c0_1_1:
   0113                     341 	.ds 8
   011B                     342 _setMap3CGram_c1_1_1:
   011B                     343 	.ds 8
   0123                     344 _setMap3CGram_c2_1_1:
   0123                     345 	.ds 8
   012B                     346 _setMap3CGram_c3_1_1:
   012B                     347 	.ds 8
   0133                     348 _setMap3CGram_c4_1_1:
   0133                     349 	.ds 8
   013B                     350 _setMap3CGram_c5_1_1:
   013B                     351 	.ds 8
   0143                     352 _setMap3CGram_c6_1_1:
   0143                     353 	.ds 8
   014B                     354 _setMap3CGram_c7_1_1:
   014B                     355 	.ds 8
   0153                     356 _setMap4CGram_c0_1_1:
   0153                     357 	.ds 8
   015B                     358 _setMap4CGram_c1_1_1:
   015B                     359 	.ds 8
   0163                     360 _setMap4CGram_c2_1_1:
   0163                     361 	.ds 8
   016B                     362 _setMap4CGram_c3_1_1:
   016B                     363 	.ds 8
   0173                     364 _setMap4CGram_c4_1_1:
   0173                     365 	.ds 8
   017B                     366 _setMap4CGram_c5_1_1:
   017B                     367 	.ds 8
   0183                     368 _setMap4CGram_c6_1_1:
   0183                     369 	.ds 8
   018B                     370 _setMap4CGram_c7_1_1:
   018B                     371 	.ds 8
   0193                     372 _setMap5CGram_c0_1_1:
   0193                     373 	.ds 8
   019B                     374 _setMap5CGram_c1_1_1:
   019B                     375 	.ds 8
   01A3                     376 _setMap5CGram_c2_1_1:
   01A3                     377 	.ds 8
   01AB                     378 _setMap5CGram_c3_1_1:
   01AB                     379 	.ds 8
   01B3                     380 _setMap5CGram_c4_1_1:
   01B3                     381 	.ds 8
   01BB                     382 _setMap5CGram_c5_1_1:
   01BB                     383 	.ds 8
   01C3                     384 _setMap5CGram_c6_1_1:
   01C3                     385 	.ds 8
   01CB                     386 _setMap5CGram_c7_1_1:
   01CB                     387 	.ds 8
   01D3                     388 _configMap_PARM_2:
   01D3                     389 	.ds 1
   01D4                     390 _configMap_pline_1_1:
   01D4                     391 	.ds 1
   01D5                     392 _setCursorHomeAtLine_line_1_1:
   01D5                     393 	.ds 1
   01D6                     394 _setPlayerCursor_PARM_2:
   01D6                     395 	.ds 1
   01D7                     396 _setPlayerCursor_PARM_3:
   01D7                     397 	.ds 1
   01D8                     398 _setPlayerCursor_PARM_4:
   01D8                     399 	.ds 1
   01D9                     400 _setPlayerCursor_pline_1_1:
   01D9                     401 	.ds 1
   01DA                     402 _LCD_putTextAt_PARM_2:
   01DA                     403 	.ds 1
   01DB                     404 _LCD_putTextAt_PARM_3:
   01DB                     405 	.ds 1
   01DC                     406 _LCD_putTextAt_text_1_1:
   01DC                     407 	.ds 3
   01DF                     408 _LCD_putTextAt_col_1_1:
   01DF                     409 	.ds 1
   01E0                     410 _LCD_putTextAt_txt_1_1:
   01E0                     411 	.ds 17
   01F1                     412 _LCD_putText_PARM_2:
   01F1                     413 	.ds 1
   01F2                     414 _LCD_putText_PARM_3:
   01F2                     415 	.ds 2
   01F4                     416 _LCD_putText_text_1_1:
   01F4                     417 	.ds 3
   01F7                     418 _LCD_putText_control_1_1:
   01F7                     419 	.ds 1
   01F8                     420 _LCD_putText_txt_1_1:
   01F8                     421 	.ds 50
   022A                     422 _LCD_putCharAt_PARM_2:
   022A                     423 	.ds 1
   022B                     424 _LCD_putCharAt_PARM_3:
   022B                     425 	.ds 1
   022C                     426 _LCD_putCharAt_chr_1_1:
   022C                     427 	.ds 1
   022D                     428 _LCD_putSCharAt_PARM_2:
   022D                     429 	.ds 1
   022E                     430 _LCD_putSCharAt_PARM_3:
   022E                     431 	.ds 1
   022F                     432 _LCD_putSCharAt_PARM_4:
   022F                     433 	.ds 1
   0230                     434 _LCD_putSCharAt_sline_1_1:
   0230                     435 	.ds 1
                            436 ;--------------------------------------------------------
                            437 ; absolute external ram data
                            438 ;--------------------------------------------------------
                            439 	.area XABS    (ABS,XDATA)
                            440 ;--------------------------------------------------------
                            441 ; external initialized ram data
                            442 ;--------------------------------------------------------
                            443 	.area XISEG   (XDATA)
   0000                     444 _rxMsg:
   0000                     445 	.ds 1
                            446 	.area HOME    (CODE)
                            447 	.area GSINIT0 (CODE)
                            448 	.area GSINIT1 (CODE)
                            449 	.area GSINIT2 (CODE)
                            450 	.area GSINIT3 (CODE)
                            451 	.area GSINIT4 (CODE)
                            452 	.area GSINIT5 (CODE)
                            453 	.area GSINIT  (CODE)
                            454 	.area GSFINAL (CODE)
                            455 	.area CSEG    (CODE)
                            456 ;--------------------------------------------------------
                            457 ; global & static initialisations
                            458 ;--------------------------------------------------------
                            459 	.area HOME    (CODE)
                            460 	.area GSINIT  (CODE)
                            461 	.area GSFINAL (CODE)
                            462 	.area GSINIT  (CODE)
                            463 ;--------------------------------------------------------
                            464 ; Home
                            465 ;--------------------------------------------------------
                            466 	.area HOME    (CODE)
                            467 	.area HOME    (CODE)
                            468 ;--------------------------------------------------------
                            469 ; code
                            470 ;--------------------------------------------------------
                            471 	.area CSEG    (CODE)
                            472 ;------------------------------------------------------------
                            473 ;Allocation info for local variables in function 'LCDconfig'
                            474 ;------------------------------------------------------------
                            475 ;------------------------------------------------------------
                            476 ;	LCD.c:7: void LCDconfig(){	
                            477 ;	-----------------------------------------
                            478 ;	 function LCDconfig
                            479 ;	-----------------------------------------
   0000                     480 _LCDconfig:
                    0002    481 	ar2 = 0x02
                    0003    482 	ar3 = 0x03
                    0004    483 	ar4 = 0x04
                    0005    484 	ar5 = 0x05
                    0006    485 	ar6 = 0x06
                    0007    486 	ar7 = 0x07
                    0000    487 	ar0 = 0x00
                    0001    488 	ar1 = 0x01
                            489 ;	LCD.c:8: winstLCD = clearDisp;						// Atribuindo instrucao
   0000 90 FF C2            490 	mov	dptr,#_winstLCD
   0003 74 01               491 	mov	a,#0x01
   0005 F0                  492 	movx	@dptr,a
                            493 ;	LCD.c:9: delay(10,0);								// Delay 10 microsegundos
   0006 90s00r00            494 	mov	dptr,#_delay_PARM_2
   0009 E4                  495 	clr	a
   000A F0                  496 	movx	@dptr,a
   000B 90 00 0A            497 	mov	dptr,#0x000A
   000E 12s00r00            498 	lcall	_delay
                            499 ;	LCD.c:10: winstLCD = configFunc;						// Atribuindo instrucao
   0011 90 FF C2            500 	mov	dptr,#_winstLCD
   0014 74 3F               501 	mov	a,#0x3F
   0016 F0                  502 	movx	@dptr,a
                            503 ;	LCD.c:11: delay(10,0);
   0017 90s00r00            504 	mov	dptr,#_delay_PARM_2
   001A E4                  505 	clr	a
   001B F0                  506 	movx	@dptr,a
   001C 90 00 0A            507 	mov	dptr,#0x000A
   001F 12s00r00            508 	lcall	_delay
                            509 ;	LCD.c:12: winstLCD = entryModeShift;					// Atribuindo instrucao
   0022 90 FF C2            510 	mov	dptr,#_winstLCD
   0025 74 06               511 	mov	a,#0x06
   0027 F0                  512 	movx	@dptr,a
                            513 ;	LCD.c:13: delay(10,0);
   0028 90s00r00            514 	mov	dptr,#_delay_PARM_2
   002B E4                  515 	clr	a
   002C F0                  516 	movx	@dptr,a
   002D 90 00 0A            517 	mov	dptr,#0x000A
   0030 12s00r00            518 	lcall	_delay
                            519 ;	LCD.c:14: winstLCD = onoffControl;					// Atribuindo instrucao
   0033 90 FF C2            520 	mov	dptr,#_winstLCD
   0036 74 0C               521 	mov	a,#0x0C
   0038 F0                  522 	movx	@dptr,a
                            523 ;	LCD.c:15: delay(10,0);
   0039 90s00r00            524 	mov	dptr,#_delay_PARM_2
   003C E4                  525 	clr	a
   003D F0                  526 	movx	@dptr,a
   003E 90 00 0A            527 	mov	dptr,#0x000A
   0041 02s00r00            528 	ljmp	_delay
                            529 ;------------------------------------------------------------
                            530 ;Allocation info for local variables in function 'setCursorAt'
                            531 ;------------------------------------------------------------
                            532 ;col                       Allocated with name '_setCursorAt_PARM_2'
                            533 ;line                      Allocated with name '_setCursorAt_line_1_1'
                            534 ;------------------------------------------------------------
                            535 ;	LCD.c:18: void setCursorAt(unsigned char line, unsigned char col){
                            536 ;	-----------------------------------------
                            537 ;	 function setCursorAt
                            538 ;	-----------------------------------------
   0044                     539 _setCursorAt:
   0044 E5 82               540 	mov	a,dpl
   0046 90s00r90            541 	mov	dptr,#_setCursorAt_line_1_1
   0049 F0                  542 	movx	@dptr,a
                            543 ;	LCD.c:19: if(line == 1)
   004A 90s00r90            544 	mov	dptr,#_setCursorAt_line_1_1
   004D E0                  545 	movx	a,@dptr
   004E FA                  546 	mov	r2,a
   004F BA 01 0E            547 	cjne	r2,#0x01,00110$
                            548 ;	LCD.c:20: winstLCD = cursorHomeL1 + (col-1);
   0052 90s00r8F            549 	mov	dptr,#_setCursorAt_PARM_2
   0055 E0                  550 	movx	a,@dptr
   0056 FB                  551 	mov	r3,a
   0057 90 FF C2            552 	mov	dptr,#_winstLCD
   005A 74 7F               553 	mov	a,#0x7F
   005C 2B                  554 	add	a,r3
   005D F0                  555 	movx	@dptr,a
   005E 80 31               556 	sjmp	00111$
   0060                     557 00110$:
                            558 ;	LCD.c:21: else if(line == 2)
   0060 BA 02 0E            559 	cjne	r2,#0x02,00107$
                            560 ;	LCD.c:22: winstLCD = cursorHomeL2 + (col-1);
   0063 90s00r8F            561 	mov	dptr,#_setCursorAt_PARM_2
   0066 E0                  562 	movx	a,@dptr
   0067 FB                  563 	mov	r3,a
   0068 90 FF C2            564 	mov	dptr,#_winstLCD
   006B 74 BF               565 	mov	a,#0xBF
   006D 2B                  566 	add	a,r3
   006E F0                  567 	movx	@dptr,a
   006F 80 20               568 	sjmp	00111$
   0071                     569 00107$:
                            570 ;	LCD.c:23: else if(line == 3)
   0071 BA 03 0E            571 	cjne	r2,#0x03,00104$
                            572 ;	LCD.c:24: winstLCD = cursorHomeL3 + (col-1);
   0074 90s00r8F            573 	mov	dptr,#_setCursorAt_PARM_2
   0077 E0                  574 	movx	a,@dptr
   0078 FB                  575 	mov	r3,a
   0079 90 FF C2            576 	mov	dptr,#_winstLCD
   007C 74 8F               577 	mov	a,#0x8F
   007E 2B                  578 	add	a,r3
   007F F0                  579 	movx	@dptr,a
   0080 80 0F               580 	sjmp	00111$
   0082                     581 00104$:
                            582 ;	LCD.c:25: else if(line == 4)
   0082 BA 04 0C            583 	cjne	r2,#0x04,00111$
                            584 ;	LCD.c:26: winstLCD = cursorHomeL4 + (col-1);
   0085 90s00r8F            585 	mov	dptr,#_setCursorAt_PARM_2
   0088 E0                  586 	movx	a,@dptr
   0089 FA                  587 	mov	r2,a
   008A 90 FF C2            588 	mov	dptr,#_winstLCD
   008D 74 CF               589 	mov	a,#0xCF
   008F 2A                  590 	add	a,r2
   0090 F0                  591 	movx	@dptr,a
   0091                     592 00111$:
                            593 ;	LCD.c:28: delay(10,0);
   0091 90s00r00            594 	mov	dptr,#_delay_PARM_2
   0094 E4                  595 	clr	a
   0095 F0                  596 	movx	@dptr,a
   0096 90 00 0A            597 	mov	dptr,#0x000A
   0099 02s00r00            598 	ljmp	_delay
                            599 ;------------------------------------------------------------
                            600 ;Allocation info for local variables in function 'setChar'
                            601 ;------------------------------------------------------------
                            602 ;chr                       Allocated with name '_setChar_chr_1_1'
                            603 ;------------------------------------------------------------
                            604 ;	LCD.c:31: void setChar(char chr){
                            605 ;	-----------------------------------------
                            606 ;	 function setChar
                            607 ;	-----------------------------------------
   009C                     608 _setChar:
   009C E5 82               609 	mov	a,dpl
   009E 90s00r91            610 	mov	dptr,#_setChar_chr_1_1
   00A1 F0                  611 	movx	@dptr,a
                            612 ;	LCD.c:32: wdataLCD = chr;
   00A2 90s00r91            613 	mov	dptr,#_setChar_chr_1_1
   00A5 E0                  614 	movx	a,@dptr
   00A6 90 FF D2            615 	mov	dptr,#_wdataLCD
   00A9 F0                  616 	movx	@dptr,a
                            617 ;	LCD.c:33: delay(10,0);
   00AA 90s00r00            618 	mov	dptr,#_delay_PARM_2
   00AD E4                  619 	clr	a
   00AE F0                  620 	movx	@dptr,a
   00AF 90 00 0A            621 	mov	dptr,#0x000A
   00B2 02s00r00            622 	ljmp	_delay
                            623 ;------------------------------------------------------------
                            624 ;Allocation info for local variables in function 'printMap'
                            625 ;------------------------------------------------------------
                            626 ;row                       Allocated with name '_printMap_row_1_1'
                            627 ;col                       Allocated with name '_printMap_col_1_1'
                            628 ;------------------------------------------------------------
                            629 ;	LCD.c:36: void printMap(){
                            630 ;	-----------------------------------------
                            631 ;	 function printMap
                            632 ;	-----------------------------------------
   00B5                     633 _printMap:
                            634 ;	LCD.c:39: for(row = 0; row < 4; row++){
   00B5 7A 00               635 	mov	r2,#0x00
   00B7                     636 00105$:
   00B7 BA 04 00            637 	cjne	r2,#0x04,00116$
   00BA                     638 00116$:
   00BA 50 61               639 	jnc	00109$
                            640 ;	LCD.c:40: for(col = 0 ;col<16;col++){
   00BC 90s00r92            641 	mov	dptr,#_printMap_col_1_1
   00BF E4                  642 	clr	a
   00C0 F0                  643 	movx	@dptr,a
   00C1 EA                  644 	mov	a,r2
   00C2 04                  645 	inc	a
   00C3 FB                  646 	mov	r3,a
   00C4 EA                  647 	mov	a,r2
   00C5 C4                  648 	swap	a
   00C6 54 F0               649 	anl	a,#0xf0
   00C8 FC                  650 	mov	r4,a
   00C9                     651 00101$:
   00C9 90s00r92            652 	mov	dptr,#_printMap_col_1_1
   00CC E0                  653 	movx	a,@dptr
   00CD FD                  654 	mov	r5,a
   00CE BD 10 00            655 	cjne	r5,#0x10,00118$
   00D1                     656 00118$:
   00D1 50 47               657 	jnc	00107$
                            658 ;	LCD.c:41: setCursorAt(row+1, col+1);
   00D3 ED                  659 	mov	a,r5
   00D4 04                  660 	inc	a
   00D5 FE                  661 	mov	r6,a
   00D6 90s00r8F            662 	mov	dptr,#_setCursorAt_PARM_2
   00D9 F0                  663 	movx	@dptr,a
   00DA 8B 82               664 	mov	dpl,r3
   00DC C0 02               665 	push	ar2
   00DE C0 03               666 	push	ar3
   00E0 C0 04               667 	push	ar4
   00E2 C0 05               668 	push	ar5
   00E4 C0 06               669 	push	ar6
   00E6 12s00r44            670 	lcall	_setCursorAt
   00E9 D0 06               671 	pop	ar6
   00EB D0 05               672 	pop	ar5
   00ED D0 04               673 	pop	ar4
                            674 ;	LCD.c:42: setChar((map[row][col].schar) - 1);
   00EF EC                  675 	mov	a,r4
   00F0 24r48               676 	add	a,#_map
   00F2 FF                  677 	mov	r7,a
   00F3 E4                  678 	clr	a
   00F4 34s00               679 	addc	a,#(_map >> 8)
   00F6 F8                  680 	mov	r0,a
   00F7 ED                  681 	mov	a,r5
   00F8 2F                  682 	add	a,r7
   00F9 F5 82               683 	mov	dpl,a
   00FB E4                  684 	clr	a
   00FC 38                  685 	addc	a,r0
   00FD F5 83               686 	mov	dph,a
   00FF E0                  687 	movx	a,@dptr
   0100 FD                  688 	mov	r5,a
   0101 1D                  689 	dec	r5
   0102 8D 82               690 	mov	dpl,r5
   0104 C0 04               691 	push	ar4
   0106 C0 06               692 	push	ar6
   0108 12s00r9C            693 	lcall	_setChar
   010B D0 06               694 	pop	ar6
   010D D0 04               695 	pop	ar4
   010F D0 03               696 	pop	ar3
   0111 D0 02               697 	pop	ar2
                            698 ;	LCD.c:40: for(col = 0 ;col<16;col++){
   0113 90s00r92            699 	mov	dptr,#_printMap_col_1_1
   0116 EE                  700 	mov	a,r6
   0117 F0                  701 	movx	@dptr,a
   0118 80 AF               702 	sjmp	00101$
   011A                     703 00107$:
                            704 ;	LCD.c:39: for(row = 0; row < 4; row++){
   011A 0A                  705 	inc	r2
   011B 80 9A               706 	sjmp	00105$
   011D                     707 00109$:
   011D 22                  708 	ret
                            709 ;------------------------------------------------------------
                            710 ;Allocation info for local variables in function 'setMap1CGram'
                            711 ;------------------------------------------------------------
                            712 ;n                         Allocated with name '_setMap1CGram_n_1_1'
                            713 ;m                         Allocated with name '_setMap1CGram_m_1_1'
                            714 ;c0                        Allocated with name '_setMap1CGram_c0_1_1'
                            715 ;c1                        Allocated with name '_setMap1CGram_c1_1_1'
                            716 ;c2                        Allocated with name '_setMap1CGram_c2_1_1'
                            717 ;c3                        Allocated with name '_setMap1CGram_c3_1_1'
                            718 ;c4                        Allocated with name '_setMap1CGram_c4_1_1'
                            719 ;c5                        Allocated with name '_setMap1CGram_c5_1_1'
                            720 ;c6                        Allocated with name '_setMap1CGram_c6_1_1'
                            721 ;c7                        Allocated with name '_setMap1CGram_c7_1_1'
                            722 ;------------------------------------------------------------
                            723 ;	LCD.c:47: void setMap1CGram(){
                            724 ;	-----------------------------------------
                            725 ;	 function setMap1CGram
                            726 ;	-----------------------------------------
   011E                     727 _setMap1CGram:
                            728 ;	LCD.c:50: unsigned char c0[] =  {0,0,0,0,0,0,0,0};
   011E 90s00r93            729 	mov	dptr,#_setMap1CGram_c0_1_1
   0121 E4                  730 	clr	a
   0122 F0                  731 	movx	@dptr,a
   0123 90s00r94            732 	mov	dptr,#(_setMap1CGram_c0_1_1 + 0x0001)
   0126 F0                  733 	movx	@dptr,a
   0127 90s00r95            734 	mov	dptr,#(_setMap1CGram_c0_1_1 + 0x0002)
   012A F0                  735 	movx	@dptr,a
   012B 90s00r96            736 	mov	dptr,#(_setMap1CGram_c0_1_1 + 0x0003)
   012E F0                  737 	movx	@dptr,a
   012F 90s00r97            738 	mov	dptr,#(_setMap1CGram_c0_1_1 + 0x0004)
   0132 E4                  739 	clr	a
   0133 F0                  740 	movx	@dptr,a
   0134 90s00r98            741 	mov	dptr,#(_setMap1CGram_c0_1_1 + 0x0005)
   0137 F0                  742 	movx	@dptr,a
   0138 90s00r99            743 	mov	dptr,#(_setMap1CGram_c0_1_1 + 0x0006)
   013B F0                  744 	movx	@dptr,a
   013C 90s00r9A            745 	mov	dptr,#(_setMap1CGram_c0_1_1 + 0x0007)
   013F F0                  746 	movx	@dptr,a
                            747 ;	LCD.c:51: unsigned char c1[] =  {0x1F,0x10,0x1F,0x10,0x13,0x12,0x12,0x12};
   0140 90s00r9B            748 	mov	dptr,#_setMap1CGram_c1_1_1
   0143 74 1F               749 	mov	a,#0x1F
   0145 F0                  750 	movx	@dptr,a
   0146 90s00r9C            751 	mov	dptr,#(_setMap1CGram_c1_1_1 + 0x0001)
   0149 74 10               752 	mov	a,#0x10
   014B F0                  753 	movx	@dptr,a
   014C 90s00r9D            754 	mov	dptr,#(_setMap1CGram_c1_1_1 + 0x0002)
   014F 74 1F               755 	mov	a,#0x1F
   0151 F0                  756 	movx	@dptr,a
   0152 90s00r9E            757 	mov	dptr,#(_setMap1CGram_c1_1_1 + 0x0003)
   0155 74 10               758 	mov	a,#0x10
   0157 F0                  759 	movx	@dptr,a
   0158 90s00r9F            760 	mov	dptr,#(_setMap1CGram_c1_1_1 + 0x0004)
   015B 74 13               761 	mov	a,#0x13
   015D F0                  762 	movx	@dptr,a
   015E 90s00rA0            763 	mov	dptr,#(_setMap1CGram_c1_1_1 + 0x0005)
   0161 74 12               764 	mov	a,#0x12
   0163 F0                  765 	movx	@dptr,a
   0164 90s00rA1            766 	mov	dptr,#(_setMap1CGram_c1_1_1 + 0x0006)
   0167 74 12               767 	mov	a,#0x12
   0169 F0                  768 	movx	@dptr,a
   016A 90s00rA2            769 	mov	dptr,#(_setMap1CGram_c1_1_1 + 0x0007)
   016D 74 12               770 	mov	a,#0x12
   016F F0                  771 	movx	@dptr,a
                            772 ;	LCD.c:52: unsigned char c2[] =  {0x1F,0x00,0x0E,0x04,0x1E,0x04,0x04,0x04};
   0170 90s00rA3            773 	mov	dptr,#_setMap1CGram_c2_1_1
   0173 74 1F               774 	mov	a,#0x1F
   0175 F0                  775 	movx	@dptr,a
   0176 90s00rA4            776 	mov	dptr,#(_setMap1CGram_c2_1_1 + 0x0001)
   0179 E4                  777 	clr	a
   017A F0                  778 	movx	@dptr,a
   017B 90s00rA5            779 	mov	dptr,#(_setMap1CGram_c2_1_1 + 0x0002)
   017E 74 0E               780 	mov	a,#0x0E
   0180 F0                  781 	movx	@dptr,a
   0181 90s00rA6            782 	mov	dptr,#(_setMap1CGram_c2_1_1 + 0x0003)
   0184 74 04               783 	mov	a,#0x04
   0186 F0                  784 	movx	@dptr,a
   0187 90s00rA7            785 	mov	dptr,#(_setMap1CGram_c2_1_1 + 0x0004)
   018A 74 1E               786 	mov	a,#0x1E
   018C F0                  787 	movx	@dptr,a
   018D 90s00rA8            788 	mov	dptr,#(_setMap1CGram_c2_1_1 + 0x0005)
   0190 74 04               789 	mov	a,#0x04
   0192 F0                  790 	movx	@dptr,a
   0193 90s00rA9            791 	mov	dptr,#(_setMap1CGram_c2_1_1 + 0x0006)
   0196 74 04               792 	mov	a,#0x04
   0198 F0                  793 	movx	@dptr,a
   0199 90s00rAA            794 	mov	dptr,#(_setMap1CGram_c2_1_1 + 0x0007)
   019C 74 04               795 	mov	a,#0x04
   019E F0                  796 	movx	@dptr,a
                            797 ;	LCD.c:53: unsigned char c3[] =  {0x1F,0x01,0x0D,0x09,0x18,0x09,0x19,0x09};
   019F 90s00rAB            798 	mov	dptr,#_setMap1CGram_c3_1_1
   01A2 74 1F               799 	mov	a,#0x1F
   01A4 F0                  800 	movx	@dptr,a
   01A5 90s00rAC            801 	mov	dptr,#(_setMap1CGram_c3_1_1 + 0x0001)
   01A8 74 01               802 	mov	a,#0x01
   01AA F0                  803 	movx	@dptr,a
   01AB 90s00rAD            804 	mov	dptr,#(_setMap1CGram_c3_1_1 + 0x0002)
   01AE 74 0D               805 	mov	a,#0x0D
   01B0 F0                  806 	movx	@dptr,a
   01B1 90s00rAE            807 	mov	dptr,#(_setMap1CGram_c3_1_1 + 0x0003)
   01B4 74 09               808 	mov	a,#0x09
   01B6 F0                  809 	movx	@dptr,a
   01B7 90s00rAF            810 	mov	dptr,#(_setMap1CGram_c3_1_1 + 0x0004)
   01BA 74 18               811 	mov	a,#0x18
   01BC F0                  812 	movx	@dptr,a
   01BD 90s00rB0            813 	mov	dptr,#(_setMap1CGram_c3_1_1 + 0x0005)
   01C0 74 09               814 	mov	a,#0x09
   01C2 F0                  815 	movx	@dptr,a
   01C3 90s00rB1            816 	mov	dptr,#(_setMap1CGram_c3_1_1 + 0x0006)
   01C6 74 19               817 	mov	a,#0x19
   01C8 F0                  818 	movx	@dptr,a
   01C9 90s00rB2            819 	mov	dptr,#(_setMap1CGram_c3_1_1 + 0x0007)
   01CC 74 09               820 	mov	a,#0x09
   01CE F0                  821 	movx	@dptr,a
                            822 ;	LCD.c:54: unsigned char c4[] =  {0x17,0x10,0x15,0x1C,0x04,0x0C,0x05,0x05};
   01CF 90s00rB3            823 	mov	dptr,#_setMap1CGram_c4_1_1
   01D2 74 17               824 	mov	a,#0x17
   01D4 F0                  825 	movx	@dptr,a
   01D5 90s00rB4            826 	mov	dptr,#(_setMap1CGram_c4_1_1 + 0x0001)
   01D8 74 10               827 	mov	a,#0x10
   01DA F0                  828 	movx	@dptr,a
   01DB 90s00rB5            829 	mov	dptr,#(_setMap1CGram_c4_1_1 + 0x0002)
   01DE 74 15               830 	mov	a,#0x15
   01E0 F0                  831 	movx	@dptr,a
   01E1 90s00rB6            832 	mov	dptr,#(_setMap1CGram_c4_1_1 + 0x0003)
   01E4 74 1C               833 	mov	a,#0x1C
   01E6 F0                  834 	movx	@dptr,a
   01E7 90s00rB7            835 	mov	dptr,#(_setMap1CGram_c4_1_1 + 0x0004)
   01EA 74 04               836 	mov	a,#0x04
   01EC F0                  837 	movx	@dptr,a
   01ED 90s00rB8            838 	mov	dptr,#(_setMap1CGram_c4_1_1 + 0x0005)
   01F0 74 0C               839 	mov	a,#0x0C
   01F2 F0                  840 	movx	@dptr,a
   01F3 90s00rB9            841 	mov	dptr,#(_setMap1CGram_c4_1_1 + 0x0006)
   01F6 74 05               842 	mov	a,#0x05
   01F8 F0                  843 	movx	@dptr,a
   01F9 90s00rBA            844 	mov	dptr,#(_setMap1CGram_c4_1_1 + 0x0007)
   01FC 74 05               845 	mov	a,#0x05
   01FE F0                  846 	movx	@dptr,a
                            847 ;	LCD.c:55: unsigned char c5[] =  {0x12,0x10,0x12,0x02,0x12,0x12,0x12,0x12};
   01FF 90s00rBB            848 	mov	dptr,#_setMap1CGram_c5_1_1
   0202 74 12               849 	mov	a,#0x12
   0204 F0                  850 	movx	@dptr,a
   0205 90s00rBC            851 	mov	dptr,#(_setMap1CGram_c5_1_1 + 0x0001)
   0208 74 10               852 	mov	a,#0x10
   020A F0                  853 	movx	@dptr,a
   020B 90s00rBD            854 	mov	dptr,#(_setMap1CGram_c5_1_1 + 0x0002)
   020E 74 12               855 	mov	a,#0x12
   0210 F0                  856 	movx	@dptr,a
   0211 90s00rBE            857 	mov	dptr,#(_setMap1CGram_c5_1_1 + 0x0003)
   0214 74 02               858 	mov	a,#0x02
   0216 F0                  859 	movx	@dptr,a
   0217 90s00rBF            860 	mov	dptr,#(_setMap1CGram_c5_1_1 + 0x0004)
   021A 74 12               861 	mov	a,#0x12
   021C F0                  862 	movx	@dptr,a
   021D 90s00rC0            863 	mov	dptr,#(_setMap1CGram_c5_1_1 + 0x0005)
   0220 74 12               864 	mov	a,#0x12
   0222 F0                  865 	movx	@dptr,a
   0223 90s00rC1            866 	mov	dptr,#(_setMap1CGram_c5_1_1 + 0x0006)
   0226 74 12               867 	mov	a,#0x12
   0228 F0                  868 	movx	@dptr,a
   0229 90s00rC2            869 	mov	dptr,#(_setMap1CGram_c5_1_1 + 0x0007)
   022C 74 12               870 	mov	a,#0x12
   022E F0                  871 	movx	@dptr,a
                            872 ;	LCD.c:56: unsigned char c6[] =  {0x16,0x16,0x13,0x16,0x14,0x17,0x10,0x1F};
   022F 90s00rC3            873 	mov	dptr,#_setMap1CGram_c6_1_1
   0232 74 16               874 	mov	a,#0x16
   0234 F0                  875 	movx	@dptr,a
   0235 90s00rC4            876 	mov	dptr,#(_setMap1CGram_c6_1_1 + 0x0001)
   0238 74 16               877 	mov	a,#0x16
   023A F0                  878 	movx	@dptr,a
   023B 90s00rC5            879 	mov	dptr,#(_setMap1CGram_c6_1_1 + 0x0002)
   023E 74 13               880 	mov	a,#0x13
   0240 F0                  881 	movx	@dptr,a
   0241 90s00rC6            882 	mov	dptr,#(_setMap1CGram_c6_1_1 + 0x0003)
   0244 74 16               883 	mov	a,#0x16
   0246 F0                  884 	movx	@dptr,a
   0247 90s00rC7            885 	mov	dptr,#(_setMap1CGram_c6_1_1 + 0x0004)
   024A 74 14               886 	mov	a,#0x14
   024C F0                  887 	movx	@dptr,a
   024D 90s00rC8            888 	mov	dptr,#(_setMap1CGram_c6_1_1 + 0x0005)
   0250 74 17               889 	mov	a,#0x17
   0252 F0                  890 	movx	@dptr,a
   0253 90s00rC9            891 	mov	dptr,#(_setMap1CGram_c6_1_1 + 0x0006)
   0256 74 10               892 	mov	a,#0x10
   0258 F0                  893 	movx	@dptr,a
   0259 90s00rCA            894 	mov	dptr,#(_setMap1CGram_c6_1_1 + 0x0007)
   025C 74 1F               895 	mov	a,#0x1F
   025E F0                  896 	movx	@dptr,a
                            897 ;	LCD.c:57: unsigned char c7[] =  {0x15,0x15,0x11,0x04,0x15,0x15,0x14,0x1F};
   025F 90s00rCB            898 	mov	dptr,#_setMap1CGram_c7_1_1
   0262 74 15               899 	mov	a,#0x15
   0264 F0                  900 	movx	@dptr,a
   0265 90s00rCC            901 	mov	dptr,#(_setMap1CGram_c7_1_1 + 0x0001)
   0268 74 15               902 	mov	a,#0x15
   026A F0                  903 	movx	@dptr,a
   026B 90s00rCD            904 	mov	dptr,#(_setMap1CGram_c7_1_1 + 0x0002)
   026E 74 11               905 	mov	a,#0x11
   0270 F0                  906 	movx	@dptr,a
   0271 90s00rCE            907 	mov	dptr,#(_setMap1CGram_c7_1_1 + 0x0003)
   0274 74 04               908 	mov	a,#0x04
   0276 F0                  909 	movx	@dptr,a
   0277 90s00rCF            910 	mov	dptr,#(_setMap1CGram_c7_1_1 + 0x0004)
   027A 74 15               911 	mov	a,#0x15
   027C F0                  912 	movx	@dptr,a
   027D 90s00rD0            913 	mov	dptr,#(_setMap1CGram_c7_1_1 + 0x0005)
   0280 74 15               914 	mov	a,#0x15
   0282 F0                  915 	movx	@dptr,a
   0283 90s00rD1            916 	mov	dptr,#(_setMap1CGram_c7_1_1 + 0x0006)
   0286 74 14               917 	mov	a,#0x14
   0288 F0                  918 	movx	@dptr,a
   0289 90s00rD2            919 	mov	dptr,#(_setMap1CGram_c7_1_1 + 0x0007)
   028C 74 1F               920 	mov	a,#0x1F
   028E F0                  921 	movx	@dptr,a
                            922 ;	LCD.c:59: for(n = 0; n < 8 ;n++){
   028F 7A 00               923 	mov	r2,#0x00
   0291                     924 00101$:
   0291 BA 08 00            925 	cjne	r2,#0x08,00124$
   0294                     926 00124$:
   0294 40 03               927 	jc	00125$
   0296 02s03r5E            928 	ljmp	00104$
   0299                     929 00125$:
                            930 ;	LCD.c:60: SCmap[0].adds[n] = c0[n];
   0299 EA                  931 	mov	a,r2
   029A 24r08               932 	add	a,#_SCmap
   029C FB                  933 	mov	r3,a
   029D E4                  934 	clr	a
   029E 34s00               935 	addc	a,#(_SCmap >> 8)
   02A0 FC                  936 	mov	r4,a
   02A1 EA                  937 	mov	a,r2
   02A2 24r93               938 	add	a,#_setMap1CGram_c0_1_1
   02A4 F5 82               939 	mov	dpl,a
   02A6 E4                  940 	clr	a
   02A7 34s00               941 	addc	a,#(_setMap1CGram_c0_1_1 >> 8)
   02A9 F5 83               942 	mov	dph,a
   02AB E0                  943 	movx	a,@dptr
   02AC 8B 82               944 	mov	dpl,r3
   02AE 8C 83               945 	mov	dph,r4
   02B0 F0                  946 	movx	@dptr,a
                            947 ;	LCD.c:61: SCmap[1].adds[n] = c1[n];
   02B1 EA                  948 	mov	a,r2
   02B2 24r10               949 	add	a,#(_SCmap + 0x0008)
   02B4 FB                  950 	mov	r3,a
   02B5 E4                  951 	clr	a
   02B6 34s00               952 	addc	a,#((_SCmap + 0x0008) >> 8)
   02B8 FC                  953 	mov	r4,a
   02B9 EA                  954 	mov	a,r2
   02BA 24r9B               955 	add	a,#_setMap1CGram_c1_1_1
   02BC F5 82               956 	mov	dpl,a
   02BE E4                  957 	clr	a
   02BF 34s00               958 	addc	a,#(_setMap1CGram_c1_1_1 >> 8)
   02C1 F5 83               959 	mov	dph,a
   02C3 E0                  960 	movx	a,@dptr
   02C4 8B 82               961 	mov	dpl,r3
   02C6 8C 83               962 	mov	dph,r4
   02C8 F0                  963 	movx	@dptr,a
                            964 ;	LCD.c:62: SCmap[2].adds[n] = c2[n];
   02C9 EA                  965 	mov	a,r2
   02CA 24r18               966 	add	a,#(_SCmap + 0x0010)
   02CC FB                  967 	mov	r3,a
   02CD E4                  968 	clr	a
   02CE 34s00               969 	addc	a,#((_SCmap + 0x0010) >> 8)
   02D0 FC                  970 	mov	r4,a
   02D1 EA                  971 	mov	a,r2
   02D2 24rA3               972 	add	a,#_setMap1CGram_c2_1_1
   02D4 F5 82               973 	mov	dpl,a
   02D6 E4                  974 	clr	a
   02D7 34s00               975 	addc	a,#(_setMap1CGram_c2_1_1 >> 8)
   02D9 F5 83               976 	mov	dph,a
   02DB E0                  977 	movx	a,@dptr
   02DC 8B 82               978 	mov	dpl,r3
   02DE 8C 83               979 	mov	dph,r4
   02E0 F0                  980 	movx	@dptr,a
                            981 ;	LCD.c:63: SCmap[3].adds[n] = c3[n];
   02E1 EA                  982 	mov	a,r2
   02E2 24r20               983 	add	a,#(_SCmap + 0x0018)
   02E4 FB                  984 	mov	r3,a
   02E5 E4                  985 	clr	a
   02E6 34s00               986 	addc	a,#((_SCmap + 0x0018) >> 8)
   02E8 FC                  987 	mov	r4,a
   02E9 EA                  988 	mov	a,r2
   02EA 24rAB               989 	add	a,#_setMap1CGram_c3_1_1
   02EC F5 82               990 	mov	dpl,a
   02EE E4                  991 	clr	a
   02EF 34s00               992 	addc	a,#(_setMap1CGram_c3_1_1 >> 8)
   02F1 F5 83               993 	mov	dph,a
   02F3 E0                  994 	movx	a,@dptr
   02F4 8B 82               995 	mov	dpl,r3
   02F6 8C 83               996 	mov	dph,r4
   02F8 F0                  997 	movx	@dptr,a
                            998 ;	LCD.c:64: SCmap[4].adds[n] = c4[n];
   02F9 EA                  999 	mov	a,r2
   02FA 24r28              1000 	add	a,#(_SCmap + 0x0020)
   02FC FB                 1001 	mov	r3,a
   02FD E4                 1002 	clr	a
   02FE 34s00              1003 	addc	a,#((_SCmap + 0x0020) >> 8)
   0300 FC                 1004 	mov	r4,a
   0301 EA                 1005 	mov	a,r2
   0302 24rB3              1006 	add	a,#_setMap1CGram_c4_1_1
   0304 F5 82              1007 	mov	dpl,a
   0306 E4                 1008 	clr	a
   0307 34s00              1009 	addc	a,#(_setMap1CGram_c4_1_1 >> 8)
   0309 F5 83              1010 	mov	dph,a
   030B E0                 1011 	movx	a,@dptr
   030C 8B 82              1012 	mov	dpl,r3
   030E 8C 83              1013 	mov	dph,r4
   0310 F0                 1014 	movx	@dptr,a
                           1015 ;	LCD.c:65: SCmap[5].adds[n] = c5[n];
   0311 EA                 1016 	mov	a,r2
   0312 24r30              1017 	add	a,#(_SCmap + 0x0028)
   0314 FB                 1018 	mov	r3,a
   0315 E4                 1019 	clr	a
   0316 34s00              1020 	addc	a,#((_SCmap + 0x0028) >> 8)
   0318 FC                 1021 	mov	r4,a
   0319 EA                 1022 	mov	a,r2
   031A 24rBB              1023 	add	a,#_setMap1CGram_c5_1_1
   031C F5 82              1024 	mov	dpl,a
   031E E4                 1025 	clr	a
   031F 34s00              1026 	addc	a,#(_setMap1CGram_c5_1_1 >> 8)
   0321 F5 83              1027 	mov	dph,a
   0323 E0                 1028 	movx	a,@dptr
   0324 8B 82              1029 	mov	dpl,r3
   0326 8C 83              1030 	mov	dph,r4
   0328 F0                 1031 	movx	@dptr,a
                           1032 ;	LCD.c:66: SCmap[6].adds[n] = c6[n];
   0329 EA                 1033 	mov	a,r2
   032A 24r38              1034 	add	a,#(_SCmap + 0x0030)
   032C FB                 1035 	mov	r3,a
   032D E4                 1036 	clr	a
   032E 34s00              1037 	addc	a,#((_SCmap + 0x0030) >> 8)
   0330 FC                 1038 	mov	r4,a
   0331 EA                 1039 	mov	a,r2
   0332 24rC3              1040 	add	a,#_setMap1CGram_c6_1_1
   0334 F5 82              1041 	mov	dpl,a
   0336 E4                 1042 	clr	a
   0337 34s00              1043 	addc	a,#(_setMap1CGram_c6_1_1 >> 8)
   0339 F5 83              1044 	mov	dph,a
   033B E0                 1045 	movx	a,@dptr
   033C 8B 82              1046 	mov	dpl,r3
   033E 8C 83              1047 	mov	dph,r4
   0340 F0                 1048 	movx	@dptr,a
                           1049 ;	LCD.c:67: SCmap[7].adds[n] = c7[n];
   0341 EA                 1050 	mov	a,r2
   0342 24r40              1051 	add	a,#(_SCmap + 0x0038)
   0344 FB                 1052 	mov	r3,a
   0345 E4                 1053 	clr	a
   0346 34s00              1054 	addc	a,#((_SCmap + 0x0038) >> 8)
   0348 FC                 1055 	mov	r4,a
   0349 EA                 1056 	mov	a,r2
   034A 24rCB              1057 	add	a,#_setMap1CGram_c7_1_1
   034C F5 82              1058 	mov	dpl,a
   034E E4                 1059 	clr	a
   034F 34s00              1060 	addc	a,#(_setMap1CGram_c7_1_1 >> 8)
   0351 F5 83              1061 	mov	dph,a
   0353 E0                 1062 	movx	a,@dptr
   0354 FD                 1063 	mov	r5,a
   0355 8B 82              1064 	mov	dpl,r3
   0357 8C 83              1065 	mov	dph,r4
   0359 F0                 1066 	movx	@dptr,a
                           1067 ;	LCD.c:59: for(n = 0; n < 8 ;n++){
   035A 0A                 1068 	inc	r2
   035B 02s02r91           1069 	ljmp	00101$
   035E                    1070 00104$:
                           1071 ;	LCD.c:70: winstLCD = setCgramAddress;    				 // Atribuindo primeiro endereo da CGRAM
   035E 90 FF C2           1072 	mov	dptr,#_winstLCD
   0361 74 40              1073 	mov	a,#0x40
   0363 F0                 1074 	movx	@dptr,a
                           1075 ;	LCD.c:71: delay(10,0);
   0364 90s00r00           1076 	mov	dptr,#_delay_PARM_2
   0367 E4                 1077 	clr	a
   0368 F0                 1078 	movx	@dptr,a
   0369 90 00 0A           1079 	mov	dptr,#0x000A
   036C 12s00r00           1080 	lcall	_delay
                           1081 ;	LCD.c:73: for(m = 0;m< 8; m++){
   036F 7A 00              1082 	mov	r2,#0x00
   0371                    1083 00109$:
   0371 BA 08 00           1084 	cjne	r2,#0x08,00126$
   0374                    1085 00126$:
   0374 50 3F              1086 	jnc	00112$
                           1087 ;	LCD.c:74: for(n = 0; n < 8 ;n++){
   0376 EA                 1088 	mov	a,r2
   0377 C4                 1089 	swap	a
   0378 03                 1090 	rr	a
   0379 54 F8              1091 	anl	a,#0xf8
   037B FB                 1092 	mov	r3,a
   037C 7C 00              1093 	mov	r4,#0x00
   037E                    1094 00105$:
   037E BC 08 00           1095 	cjne	r4,#0x08,00128$
   0381                    1096 00128$:
   0381 50 2F              1097 	jnc	00111$
                           1098 ;	LCD.c:75: wdataLCD = SCmap[m].adds[n];                // Atribuindo escrita
   0383 EB                 1099 	mov	a,r3
   0384 24r08              1100 	add	a,#_SCmap
   0386 FD                 1101 	mov	r5,a
   0387 E4                 1102 	clr	a
   0388 34s00              1103 	addc	a,#(_SCmap >> 8)
   038A FE                 1104 	mov	r6,a
   038B EC                 1105 	mov	a,r4
   038C 2D                 1106 	add	a,r5
   038D F5 82              1107 	mov	dpl,a
   038F E4                 1108 	clr	a
   0390 3E                 1109 	addc	a,r6
   0391 F5 83              1110 	mov	dph,a
   0393 E0                 1111 	movx	a,@dptr
   0394 90 FF D2           1112 	mov	dptr,#_wdataLCD
   0397 F0                 1113 	movx	@dptr,a
                           1114 ;	LCD.c:76: delay(10,0);
   0398 90s00r00           1115 	mov	dptr,#_delay_PARM_2
   039B E4                 1116 	clr	a
   039C F0                 1117 	movx	@dptr,a
   039D 90 00 0A           1118 	mov	dptr,#0x000A
   03A0 C0 02              1119 	push	ar2
   03A2 C0 03              1120 	push	ar3
   03A4 C0 04              1121 	push	ar4
   03A6 12s00r00           1122 	lcall	_delay
   03A9 D0 04              1123 	pop	ar4
   03AB D0 03              1124 	pop	ar3
   03AD D0 02              1125 	pop	ar2
                           1126 ;	LCD.c:74: for(n = 0; n < 8 ;n++){
   03AF 0C                 1127 	inc	r4
   03B0 80 CC              1128 	sjmp	00105$
   03B2                    1129 00111$:
                           1130 ;	LCD.c:73: for(m = 0;m< 8; m++){
   03B2 0A                 1131 	inc	r2
   03B3 80 BC              1132 	sjmp	00109$
   03B5                    1133 00112$:
                           1134 ;	LCD.c:80: map[0][0].schar = 2;
   03B5 90s00r48           1135 	mov	dptr,#_map
   03B8 74 02              1136 	mov	a,#0x02
   03BA F0                 1137 	movx	@dptr,a
                           1138 ;	LCD.c:81: map[0][1].schar = 3;
   03BB 90s00r49           1139 	mov	dptr,#(_map + 0x0001)
   03BE 74 03              1140 	mov	a,#0x03
   03C0 F0                 1141 	movx	@dptr,a
                           1142 ;	LCD.c:82: map[0][2].schar = 3;
   03C1 90s00r4A           1143 	mov	dptr,#(_map + 0x0002)
   03C4 74 03              1144 	mov	a,#0x03
   03C6 F0                 1145 	movx	@dptr,a
                           1146 ;	LCD.c:83: map[0][3].schar = 3;
   03C7 90s00r4B           1147 	mov	dptr,#(_map + 0x0003)
   03CA 74 03              1148 	mov	a,#0x03
   03CC F0                 1149 	movx	@dptr,a
                           1150 ;	LCD.c:84: map[0][4].schar = 4;
   03CD 90s00r4C           1151 	mov	dptr,#(_map + 0x0004)
   03D0 74 04              1152 	mov	a,#0x04
   03D2 F0                 1153 	movx	@dptr,a
                           1154 ;	LCD.c:85: map[0][5].schar = 4;
   03D3 90s00r4D           1155 	mov	dptr,#(_map + 0x0005)
   03D6 74 04              1156 	mov	a,#0x04
   03D8 F0                 1157 	movx	@dptr,a
                           1158 ;	LCD.c:86: map[0][6].schar = 5;
   03D9 90s00r4E           1159 	mov	dptr,#(_map + 0x0006)
   03DC 74 05              1160 	mov	a,#0x05
   03DE F0                 1161 	movx	@dptr,a
                           1162 ;	LCD.c:87: map[0][7].schar = 2;
   03DF 90s00r4F           1163 	mov	dptr,#(_map + 0x0007)
   03E2 74 02              1164 	mov	a,#0x02
   03E4 F0                 1165 	movx	@dptr,a
                           1166 ;	LCD.c:88: map[0][8].schar = 4;
   03E5 90s00r50           1167 	mov	dptr,#(_map + 0x0008)
   03E8 74 04              1168 	mov	a,#0x04
   03EA F0                 1169 	movx	@dptr,a
                           1170 ;	LCD.c:89: map[0][9].schar = 5;
   03EB 90s00r51           1171 	mov	dptr,#(_map + 0x0009)
   03EE 74 05              1172 	mov	a,#0x05
   03F0 F0                 1173 	movx	@dptr,a
                           1174 ;	LCD.c:90: map[0][10].schar = 3;
   03F1 90s00r52           1175 	mov	dptr,#(_map + 0x000a)
   03F4 74 03              1176 	mov	a,#0x03
   03F6 F0                 1177 	movx	@dptr,a
                           1178 ;	LCD.c:91: map[0][11].schar = 3;
   03F7 90s00r53           1179 	mov	dptr,#(_map + 0x000b)
   03FA 74 03              1180 	mov	a,#0x03
   03FC F0                 1181 	movx	@dptr,a
                           1182 ;	LCD.c:92: map[0][12].schar = 3;
   03FD 90s00r54           1183 	mov	dptr,#(_map + 0x000c)
   0400 74 03              1184 	mov	a,#0x03
   0402 F0                 1185 	movx	@dptr,a
                           1186 ;	LCD.c:93: map[0][13].schar = 3;
   0403 90s00r55           1187 	mov	dptr,#(_map + 0x000d)
   0406 74 03              1188 	mov	a,#0x03
   0408 F0                 1189 	movx	@dptr,a
                           1190 ;	LCD.c:94: map[0][14].schar = 4;
   0409 90s00r56           1191 	mov	dptr,#(_map + 0x000e)
   040C 74 04              1192 	mov	a,#0x04
   040E F0                 1193 	movx	@dptr,a
                           1194 ;	LCD.c:95: map[0][15].schar = 4;
   040F 90s00r57           1195 	mov	dptr,#(_map + 0x000f)
   0412 74 04              1196 	mov	a,#0x04
   0414 F0                 1197 	movx	@dptr,a
                           1198 ;	LCD.c:97: map[1][0].schar = 6;
   0415 90s00r58           1199 	mov	dptr,#(_map + 0x0010)
   0418 74 06              1200 	mov	a,#0x06
   041A F0                 1201 	movx	@dptr,a
                           1202 ;	LCD.c:98: map[1][1].schar = 2;
   041B 90s00r59           1203 	mov	dptr,#(_map + 0x0011)
   041E 74 02              1204 	mov	a,#0x02
   0420 F0                 1205 	movx	@dptr,a
                           1206 ;	LCD.c:99: map[1][2].schar = 4;
   0421 90s00r5A           1207 	mov	dptr,#(_map + 0x0012)
   0424 74 04              1208 	mov	a,#0x04
   0426 F0                 1209 	movx	@dptr,a
                           1210 ;	LCD.c:100: map[1][3].schar = 2;
   0427 90s00r5B           1211 	mov	dptr,#(_map + 0x0013)
   042A 74 02              1212 	mov	a,#0x02
   042C F0                 1213 	movx	@dptr,a
                           1214 ;	LCD.c:101: map[1][4].schar = 3;
   042D 90s00r5C           1215 	mov	dptr,#(_map + 0x0014)
   0430 74 03              1216 	mov	a,#0x03
   0432 F0                 1217 	movx	@dptr,a
                           1218 ;	LCD.c:102: map[1][5].schar = 5;
   0433 90s00r5D           1219 	mov	dptr,#(_map + 0x0015)
   0436 74 05              1220 	mov	a,#0x05
   0438 F0                 1221 	movx	@dptr,a
                           1222 ;	LCD.c:103: map[1][6].schar = 6;
   0439 90s00r5E           1223 	mov	dptr,#(_map + 0x0016)
   043C 74 06              1224 	mov	a,#0x06
   043E F0                 1225 	movx	@dptr,a
                           1226 ;	LCD.c:104: map[1][7].schar = 2;
   043F 90s00r5F           1227 	mov	dptr,#(_map + 0x0017)
   0442 74 02              1228 	mov	a,#0x02
   0444 F0                 1229 	movx	@dptr,a
                           1230 ;	LCD.c:105: map[1][8].schar = 3;
   0445 90s00r60           1231 	mov	dptr,#(_map + 0x0018)
   0448 74 03              1232 	mov	a,#0x03
   044A F0                 1233 	movx	@dptr,a
                           1234 ;	LCD.c:106: map[1][9].schar = 6;
   044B 90s00r61           1235 	mov	dptr,#(_map + 0x0019)
   044E 74 06              1236 	mov	a,#0x06
   0450 F0                 1237 	movx	@dptr,a
                           1238 ;	LCD.c:107: map[1][10].schar = 4;
   0451 90s00r62           1239 	mov	dptr,#(_map + 0x001a)
   0454 74 04              1240 	mov	a,#0x04
   0456 F0                 1241 	movx	@dptr,a
                           1242 ;	LCD.c:108: map[1][11].schar = 3;
   0457 90s00r63           1243 	mov	dptr,#(_map + 0x001b)
   045A 74 03              1244 	mov	a,#0x03
   045C F0                 1245 	movx	@dptr,a
                           1246 ;	LCD.c:109: map[1][12].schar = 3;
   045D 90s00r64           1247 	mov	dptr,#(_map + 0x001c)
   0460 74 03              1248 	mov	a,#0x03
   0462 F0                 1249 	movx	@dptr,a
                           1250 ;	LCD.c:110: map[1][13].schar = 6;
   0463 90s00r65           1251 	mov	dptr,#(_map + 0x001d)
   0466 74 06              1252 	mov	a,#0x06
   0468 F0                 1253 	movx	@dptr,a
                           1254 ;	LCD.c:111: map[1][14].schar = 3;
   0469 90s00r66           1255 	mov	dptr,#(_map + 0x001e)
   046C 74 03              1256 	mov	a,#0x03
   046E F0                 1257 	movx	@dptr,a
                           1258 ;	LCD.c:112: map[1][15].schar = 4;
   046F 90s00r67           1259 	mov	dptr,#(_map + 0x001f)
   0472 74 04              1260 	mov	a,#0x04
   0474 F0                 1261 	movx	@dptr,a
                           1262 ;	LCD.c:114: map[2][0].schar = 2;
   0475 90s00r68           1263 	mov	dptr,#(_map + 0x0020)
   0478 74 02              1264 	mov	a,#0x02
   047A F0                 1265 	movx	@dptr,a
                           1266 ;	LCD.c:115: map[2][1].schar = 5;
   047B 90s00r69           1267 	mov	dptr,#(_map + 0x0021)
   047E 74 05              1268 	mov	a,#0x05
   0480 F0                 1269 	movx	@dptr,a
                           1270 ;	LCD.c:116: map[2][2].schar = 7;
   0481 90s00r6A           1271 	mov	dptr,#(_map + 0x0022)
   0484 74 07              1272 	mov	a,#0x07
   0486 F0                 1273 	movx	@dptr,a
                           1274 ;	LCD.c:117: map[2][3].schar = 6;
   0487 90s00r6B           1275 	mov	dptr,#(_map + 0x0023)
   048A 74 06              1276 	mov	a,#0x06
   048C F0                 1277 	movx	@dptr,a
                           1278 ;	LCD.c:118: map[2][4].schar = 6;
   048D 90s00r6C           1279 	mov	dptr,#(_map + 0x0024)
   0490 74 06              1280 	mov	a,#0x06
   0492 F0                 1281 	movx	@dptr,a
                           1282 ;	LCD.c:119: map[2][5].schar = 3;
   0493 90s00r6D           1283 	mov	dptr,#(_map + 0x0025)
   0496 74 03              1284 	mov	a,#0x03
   0498 F0                 1285 	movx	@dptr,a
                           1286 ;	LCD.c:120: map[2][6].schar = 5;
   0499 90s00r6E           1287 	mov	dptr,#(_map + 0x0026)
   049C 74 05              1288 	mov	a,#0x05
   049E F0                 1289 	movx	@dptr,a
                           1290 ;	LCD.c:121: map[2][7].schar = 3;
   049F 90s00r6F           1291 	mov	dptr,#(_map + 0x0027)
   04A2 74 03              1292 	mov	a,#0x03
   04A4 F0                 1293 	movx	@dptr,a
                           1294 ;	LCD.c:122: map[2][8].schar = 5;
   04A5 90s00r70           1295 	mov	dptr,#(_map + 0x0028)
   04A8 74 05              1296 	mov	a,#0x05
   04AA F0                 1297 	movx	@dptr,a
                           1298 ;	LCD.c:123: map[2][9].schar = 5;
   04AB 90s00r71           1299 	mov	dptr,#(_map + 0x0029)
   04AE 74 05              1300 	mov	a,#0x05
   04B0 F0                 1301 	movx	@dptr,a
                           1302 ;	LCD.c:124: map[2][10].schar = 3;
   04B1 90s00r72           1303 	mov	dptr,#(_map + 0x002a)
   04B4 74 03              1304 	mov	a,#0x03
   04B6 F0                 1305 	movx	@dptr,a
                           1306 ;	LCD.c:125: map[2][11].schar = 5;
   04B7 90s00r73           1307 	mov	dptr,#(_map + 0x002b)
   04BA 74 05              1308 	mov	a,#0x05
   04BC F0                 1309 	movx	@dptr,a
                           1310 ;	LCD.c:126: map[2][12].schar = 2;
   04BD 90s00r74           1311 	mov	dptr,#(_map + 0x002c)
   04C0 74 02              1312 	mov	a,#0x02
   04C2 F0                 1313 	movx	@dptr,a
                           1314 ;	LCD.c:127: map[2][13].schar = 5;
   04C3 90s00r75           1315 	mov	dptr,#(_map + 0x002d)
   04C6 74 05              1316 	mov	a,#0x05
   04C8 F0                 1317 	movx	@dptr,a
                           1318 ;	LCD.c:128: map[2][14].schar = 3;
   04C9 90s00r76           1319 	mov	dptr,#(_map + 0x002e)
   04CC 74 03              1320 	mov	a,#0x03
   04CE F0                 1321 	movx	@dptr,a
                           1322 ;	LCD.c:129: map[2][15].schar = 2;
   04CF 90s00r77           1323 	mov	dptr,#(_map + 0x002f)
   04D2 74 02              1324 	mov	a,#0x02
   04D4 F0                 1325 	movx	@dptr,a
                           1326 ;	LCD.c:131: map[3][0].schar = 7;
   04D5 90s00r78           1327 	mov	dptr,#(_map + 0x0030)
   04D8 74 07              1328 	mov	a,#0x07
   04DA F0                 1329 	movx	@dptr,a
                           1330 ;	LCD.c:132: map[3][1].schar = 8;
   04DB 90s00r79           1331 	mov	dptr,#(_map + 0x0031)
   04DE 74 08              1332 	mov	a,#0x08
   04E0 F0                 1333 	movx	@dptr,a
                           1334 ;	LCD.c:133: map[3][2].schar = 8;
   04E1 90s00r7A           1335 	mov	dptr,#(_map + 0x0032)
   04E4 74 08              1336 	mov	a,#0x08
   04E6 F0                 1337 	movx	@dptr,a
                           1338 ;	LCD.c:134: map[3][3].schar = 8;
   04E7 90s00r7B           1339 	mov	dptr,#(_map + 0x0033)
   04EA 74 08              1340 	mov	a,#0x08
   04EC F0                 1341 	movx	@dptr,a
                           1342 ;	LCD.c:135: map[3][4].schar = 8;
   04ED 90s00r7C           1343 	mov	dptr,#(_map + 0x0034)
   04F0 74 08              1344 	mov	a,#0x08
   04F2 F0                 1345 	movx	@dptr,a
                           1346 ;	LCD.c:136: map[3][5].schar = 8;
   04F3 90s00r7D           1347 	mov	dptr,#(_map + 0x0035)
   04F6 74 08              1348 	mov	a,#0x08
   04F8 F0                 1349 	movx	@dptr,a
                           1350 ;	LCD.c:137: map[3][6].schar = 8;
   04F9 90s00r7E           1351 	mov	dptr,#(_map + 0x0036)
   04FC 74 08              1352 	mov	a,#0x08
   04FE F0                 1353 	movx	@dptr,a
                           1354 ;	LCD.c:138: map[3][7].schar = 8;
   04FF 90s00r7F           1355 	mov	dptr,#(_map + 0x0037)
   0502 74 08              1356 	mov	a,#0x08
   0504 F0                 1357 	movx	@dptr,a
                           1358 ;	LCD.c:139: map[3][8].schar = 7;
   0505 90s00r80           1359 	mov	dptr,#(_map + 0x0038)
   0508 74 07              1360 	mov	a,#0x07
   050A F0                 1361 	movx	@dptr,a
                           1362 ;	LCD.c:140: map[3][9].schar = 2;
   050B 90s00r81           1363 	mov	dptr,#(_map + 0x0039)
   050E 74 02              1364 	mov	a,#0x02
   0510 F0                 1365 	movx	@dptr,a
                           1366 ;	LCD.c:141: map[3][10].schar = 8;
   0511 90s00r82           1367 	mov	dptr,#(_map + 0x003a)
   0514 74 08              1368 	mov	a,#0x08
   0516 F0                 1369 	movx	@dptr,a
                           1370 ;	LCD.c:142: map[3][11].schar = 8;
   0517 90s00r83           1371 	mov	dptr,#(_map + 0x003b)
   051A 74 08              1372 	mov	a,#0x08
   051C F0                 1373 	movx	@dptr,a
                           1374 ;	LCD.c:143: map[3][12].schar = 8;
   051D 90s00r84           1375 	mov	dptr,#(_map + 0x003c)
   0520 74 08              1376 	mov	a,#0x08
   0522 F0                 1377 	movx	@dptr,a
                           1378 ;	LCD.c:144: map[3][13].schar = 8;
   0523 90s00r85           1379 	mov	dptr,#(_map + 0x003d)
   0526 74 08              1380 	mov	a,#0x08
   0528 F0                 1381 	movx	@dptr,a
                           1382 ;	LCD.c:145: map[3][14].schar = 7;
   0529 90s00r86           1383 	mov	dptr,#(_map + 0x003e)
   052C 74 07              1384 	mov	a,#0x07
   052E F0                 1385 	movx	@dptr,a
                           1386 ;	LCD.c:146: map[3][15].schar = 7;
   052F 90s00r87           1387 	mov	dptr,#(_map + 0x003f)
   0532 74 07              1388 	mov	a,#0x07
   0534 F0                 1389 	movx	@dptr,a
                           1390 ;	LCD.c:148: printMap();
   0535 02s00rB5           1391 	ljmp	_printMap
                           1392 ;------------------------------------------------------------
                           1393 ;Allocation info for local variables in function 'setMap2CGram'
                           1394 ;------------------------------------------------------------
                           1395 ;n                         Allocated with name '_setMap2CGram_n_1_1'
                           1396 ;m                         Allocated with name '_setMap2CGram_m_1_1'
                           1397 ;c0                        Allocated with name '_setMap2CGram_c0_1_1'
                           1398 ;c1                        Allocated with name '_setMap2CGram_c1_1_1'
                           1399 ;c2                        Allocated with name '_setMap2CGram_c2_1_1'
                           1400 ;c3                        Allocated with name '_setMap2CGram_c3_1_1'
                           1401 ;c4                        Allocated with name '_setMap2CGram_c4_1_1'
                           1402 ;c5                        Allocated with name '_setMap2CGram_c5_1_1'
                           1403 ;c6                        Allocated with name '_setMap2CGram_c6_1_1'
                           1404 ;c7                        Allocated with name '_setMap2CGram_c7_1_1'
                           1405 ;------------------------------------------------------------
                           1406 ;	LCD.c:152: void setMap2CGram(){
                           1407 ;	-----------------------------------------
                           1408 ;	 function setMap2CGram
                           1409 ;	-----------------------------------------
   0538                    1410 _setMap2CGram:
                           1411 ;	LCD.c:155: unsigned char c0[] =  {0,0,0,0,0,0,0,0};
   0538 90s00rD3           1412 	mov	dptr,#_setMap2CGram_c0_1_1
   053B E4                 1413 	clr	a
   053C F0                 1414 	movx	@dptr,a
   053D 90s00rD4           1415 	mov	dptr,#(_setMap2CGram_c0_1_1 + 0x0001)
   0540 F0                 1416 	movx	@dptr,a
   0541 90s00rD5           1417 	mov	dptr,#(_setMap2CGram_c0_1_1 + 0x0002)
   0544 F0                 1418 	movx	@dptr,a
   0545 90s00rD6           1419 	mov	dptr,#(_setMap2CGram_c0_1_1 + 0x0003)
   0548 F0                 1420 	movx	@dptr,a
   0549 90s00rD7           1421 	mov	dptr,#(_setMap2CGram_c0_1_1 + 0x0004)
   054C E4                 1422 	clr	a
   054D F0                 1423 	movx	@dptr,a
   054E 90s00rD8           1424 	mov	dptr,#(_setMap2CGram_c0_1_1 + 0x0005)
   0551 F0                 1425 	movx	@dptr,a
   0552 90s00rD9           1426 	mov	dptr,#(_setMap2CGram_c0_1_1 + 0x0006)
   0555 F0                 1427 	movx	@dptr,a
   0556 90s00rDA           1428 	mov	dptr,#(_setMap2CGram_c0_1_1 + 0x0007)
   0559 F0                 1429 	movx	@dptr,a
                           1430 ;	LCD.c:156: unsigned char c1[] =  {0x1B,0x10,0x17,0x10,0x13,0x14,0x02,0x11};
   055A 90s00rDB           1431 	mov	dptr,#_setMap2CGram_c1_1_1
   055D 74 1B              1432 	mov	a,#0x1B
   055F F0                 1433 	movx	@dptr,a
   0560 90s00rDC           1434 	mov	dptr,#(_setMap2CGram_c1_1_1 + 0x0001)
   0563 74 10              1435 	mov	a,#0x10
   0565 F0                 1436 	movx	@dptr,a
   0566 90s00rDD           1437 	mov	dptr,#(_setMap2CGram_c1_1_1 + 0x0002)
   0569 74 17              1438 	mov	a,#0x17
   056B F0                 1439 	movx	@dptr,a
   056C 90s00rDE           1440 	mov	dptr,#(_setMap2CGram_c1_1_1 + 0x0003)
   056F 74 10              1441 	mov	a,#0x10
   0571 F0                 1442 	movx	@dptr,a
   0572 90s00rDF           1443 	mov	dptr,#(_setMap2CGram_c1_1_1 + 0x0004)
   0575 74 13              1444 	mov	a,#0x13
   0577 F0                 1445 	movx	@dptr,a
   0578 90s00rE0           1446 	mov	dptr,#(_setMap2CGram_c1_1_1 + 0x0005)
   057B 74 14              1447 	mov	a,#0x14
   057D F0                 1448 	movx	@dptr,a
   057E 90s00rE1           1449 	mov	dptr,#(_setMap2CGram_c1_1_1 + 0x0006)
   0581 74 02              1450 	mov	a,#0x02
   0583 F0                 1451 	movx	@dptr,a
   0584 90s00rE2           1452 	mov	dptr,#(_setMap2CGram_c1_1_1 + 0x0007)
   0587 74 11              1453 	mov	a,#0x11
   0589 F0                 1454 	movx	@dptr,a
                           1455 ;	LCD.c:157: unsigned char c2[] =  {0x1F,0x00,0x17,0x12,0x02,0x0B,0x08,0x05};
   058A 90s00rE3           1456 	mov	dptr,#_setMap2CGram_c2_1_1
   058D 74 1F              1457 	mov	a,#0x1F
   058F F0                 1458 	movx	@dptr,a
   0590 90s00rE4           1459 	mov	dptr,#(_setMap2CGram_c2_1_1 + 0x0001)
   0593 E4                 1460 	clr	a
   0594 F0                 1461 	movx	@dptr,a
   0595 90s00rE5           1462 	mov	dptr,#(_setMap2CGram_c2_1_1 + 0x0002)
   0598 74 17              1463 	mov	a,#0x17
   059A F0                 1464 	movx	@dptr,a
   059B 90s00rE6           1465 	mov	dptr,#(_setMap2CGram_c2_1_1 + 0x0003)
   059E 74 12              1466 	mov	a,#0x12
   05A0 F0                 1467 	movx	@dptr,a
   05A1 90s00rE7           1468 	mov	dptr,#(_setMap2CGram_c2_1_1 + 0x0004)
   05A4 74 02              1469 	mov	a,#0x02
   05A6 F0                 1470 	movx	@dptr,a
   05A7 90s00rE8           1471 	mov	dptr,#(_setMap2CGram_c2_1_1 + 0x0005)
   05AA 74 0B              1472 	mov	a,#0x0B
   05AC F0                 1473 	movx	@dptr,a
   05AD 90s00rE9           1474 	mov	dptr,#(_setMap2CGram_c2_1_1 + 0x0006)
   05B0 74 08              1475 	mov	a,#0x08
   05B2 F0                 1476 	movx	@dptr,a
   05B3 90s00rEA           1477 	mov	dptr,#(_setMap2CGram_c2_1_1 + 0x0007)
   05B6 74 05              1478 	mov	a,#0x05
   05B8 F0                 1479 	movx	@dptr,a
                           1480 ;	LCD.c:158: unsigned char c3[] =  {0x1F,0x01,0x15,0x05,0x04,0x1D,0x00,0x13};
   05B9 90s00rEB           1481 	mov	dptr,#_setMap2CGram_c3_1_1
   05BC 74 1F              1482 	mov	a,#0x1F
   05BE F0                 1483 	movx	@dptr,a
   05BF 90s00rEC           1484 	mov	dptr,#(_setMap2CGram_c3_1_1 + 0x0001)
   05C2 74 01              1485 	mov	a,#0x01
   05C4 F0                 1486 	movx	@dptr,a
   05C5 90s00rED           1487 	mov	dptr,#(_setMap2CGram_c3_1_1 + 0x0002)
   05C8 74 15              1488 	mov	a,#0x15
   05CA F0                 1489 	movx	@dptr,a
   05CB 90s00rEE           1490 	mov	dptr,#(_setMap2CGram_c3_1_1 + 0x0003)
   05CE 74 05              1491 	mov	a,#0x05
   05D0 F0                 1492 	movx	@dptr,a
   05D1 90s00rEF           1493 	mov	dptr,#(_setMap2CGram_c3_1_1 + 0x0004)
   05D4 74 04              1494 	mov	a,#0x04
   05D6 F0                 1495 	movx	@dptr,a
   05D7 90s00rF0           1496 	mov	dptr,#(_setMap2CGram_c3_1_1 + 0x0005)
   05DA 74 1D              1497 	mov	a,#0x1D
   05DC F0                 1498 	movx	@dptr,a
   05DD 90s00rF1           1499 	mov	dptr,#(_setMap2CGram_c3_1_1 + 0x0006)
   05E0 E4                 1500 	clr	a
   05E1 F0                 1501 	movx	@dptr,a
   05E2 90s00rF2           1502 	mov	dptr,#(_setMap2CGram_c3_1_1 + 0x0007)
   05E5 74 13              1503 	mov	a,#0x13
   05E7 F0                 1504 	movx	@dptr,a
                           1505 ;	LCD.c:159: unsigned char c4[] =  {0x1D,0x15,0x11,0x15,0x15,0x14,0x12,0x19};
   05E8 90s00rF3           1506 	mov	dptr,#_setMap2CGram_c4_1_1
   05EB 74 1D              1507 	mov	a,#0x1D
   05ED F0                 1508 	movx	@dptr,a
   05EE 90s00rF4           1509 	mov	dptr,#(_setMap2CGram_c4_1_1 + 0x0001)
   05F1 74 15              1510 	mov	a,#0x15
   05F3 F0                 1511 	movx	@dptr,a
   05F4 90s00rF5           1512 	mov	dptr,#(_setMap2CGram_c4_1_1 + 0x0002)
   05F7 74 11              1513 	mov	a,#0x11
   05F9 F0                 1514 	movx	@dptr,a
   05FA 90s00rF6           1515 	mov	dptr,#(_setMap2CGram_c4_1_1 + 0x0003)
   05FD 74 15              1516 	mov	a,#0x15
   05FF F0                 1517 	movx	@dptr,a
   0600 90s00rF7           1518 	mov	dptr,#(_setMap2CGram_c4_1_1 + 0x0004)
   0603 74 15              1519 	mov	a,#0x15
   0605 F0                 1520 	movx	@dptr,a
   0606 90s00rF8           1521 	mov	dptr,#(_setMap2CGram_c4_1_1 + 0x0005)
   0609 74 14              1522 	mov	a,#0x14
   060B F0                 1523 	movx	@dptr,a
   060C 90s00rF9           1524 	mov	dptr,#(_setMap2CGram_c4_1_1 + 0x0006)
   060F 74 12              1525 	mov	a,#0x12
   0611 F0                 1526 	movx	@dptr,a
   0612 90s00rFA           1527 	mov	dptr,#(_setMap2CGram_c4_1_1 + 0x0007)
   0615 74 19              1528 	mov	a,#0x19
   0617 F0                 1529 	movx	@dptr,a
                           1530 ;	LCD.c:160: unsigned char c5[] =  {0x1C,0x1D,0x01,0x03,0x17,0x03,0x1B,0x1A};
   0618 90s00rFB           1531 	mov	dptr,#_setMap2CGram_c5_1_1
   061B 74 1C              1532 	mov	a,#0x1C
   061D F0                 1533 	movx	@dptr,a
   061E 90s00rFC           1534 	mov	dptr,#(_setMap2CGram_c5_1_1 + 0x0001)
   0621 74 1D              1535 	mov	a,#0x1D
   0623 F0                 1536 	movx	@dptr,a
   0624 90s00rFD           1537 	mov	dptr,#(_setMap2CGram_c5_1_1 + 0x0002)
   0627 74 01              1538 	mov	a,#0x01
   0629 F0                 1539 	movx	@dptr,a
   062A 90s00rFE           1540 	mov	dptr,#(_setMap2CGram_c5_1_1 + 0x0003)
   062D 74 03              1541 	mov	a,#0x03
   062F F0                 1542 	movx	@dptr,a
   0630 90s00rFF           1543 	mov	dptr,#(_setMap2CGram_c5_1_1 + 0x0004)
   0633 74 17              1544 	mov	a,#0x17
   0635 F0                 1545 	movx	@dptr,a
   0636 90s01r00           1546 	mov	dptr,#(_setMap2CGram_c5_1_1 + 0x0005)
   0639 74 03              1547 	mov	a,#0x03
   063B F0                 1548 	movx	@dptr,a
   063C 90s01r01           1549 	mov	dptr,#(_setMap2CGram_c5_1_1 + 0x0006)
   063F 74 1B              1550 	mov	a,#0x1B
   0641 F0                 1551 	movx	@dptr,a
   0642 90s01r02           1552 	mov	dptr,#(_setMap2CGram_c5_1_1 + 0x0007)
   0645 74 1A              1553 	mov	a,#0x1A
   0647 F0                 1554 	movx	@dptr,a
                           1555 ;	LCD.c:161: unsigned char c6[] =  {0x1D,0x11,0x13,0x17,0x14,0x15,0x10,0x1F};
   0648 90s01r03           1556 	mov	dptr,#_setMap2CGram_c6_1_1
   064B 74 1D              1557 	mov	a,#0x1D
   064D F0                 1558 	movx	@dptr,a
   064E 90s01r04           1559 	mov	dptr,#(_setMap2CGram_c6_1_1 + 0x0001)
   0651 74 11              1560 	mov	a,#0x11
   0653 F0                 1561 	movx	@dptr,a
   0654 90s01r05           1562 	mov	dptr,#(_setMap2CGram_c6_1_1 + 0x0002)
   0657 74 13              1563 	mov	a,#0x13
   0659 F0                 1564 	movx	@dptr,a
   065A 90s01r06           1565 	mov	dptr,#(_setMap2CGram_c6_1_1 + 0x0003)
   065D 74 17              1566 	mov	a,#0x17
   065F F0                 1567 	movx	@dptr,a
   0660 90s01r07           1568 	mov	dptr,#(_setMap2CGram_c6_1_1 + 0x0004)
   0663 74 14              1569 	mov	a,#0x14
   0665 F0                 1570 	movx	@dptr,a
   0666 90s01r08           1571 	mov	dptr,#(_setMap2CGram_c6_1_1 + 0x0005)
   0669 74 15              1572 	mov	a,#0x15
   066B F0                 1573 	movx	@dptr,a
   066C 90s01r09           1574 	mov	dptr,#(_setMap2CGram_c6_1_1 + 0x0006)
   066F 74 10              1575 	mov	a,#0x10
   0671 F0                 1576 	movx	@dptr,a
   0672 90s01r0A           1577 	mov	dptr,#(_setMap2CGram_c6_1_1 + 0x0007)
   0675 74 1F              1578 	mov	a,#0x1F
   0677 F0                 1579 	movx	@dptr,a
                           1580 ;	LCD.c:162: unsigned char c7[] =  {0x06,0x0F,0x0F,0x00,0x03,0x03,0x03,0x1F};
   0678 90s01r0B           1581 	mov	dptr,#_setMap2CGram_c7_1_1
   067B 74 06              1582 	mov	a,#0x06
   067D F0                 1583 	movx	@dptr,a
   067E 90s01r0C           1584 	mov	dptr,#(_setMap2CGram_c7_1_1 + 0x0001)
   0681 74 0F              1585 	mov	a,#0x0F
   0683 F0                 1586 	movx	@dptr,a
   0684 90s01r0D           1587 	mov	dptr,#(_setMap2CGram_c7_1_1 + 0x0002)
   0687 74 0F              1588 	mov	a,#0x0F
   0689 F0                 1589 	movx	@dptr,a
   068A 90s01r0E           1590 	mov	dptr,#(_setMap2CGram_c7_1_1 + 0x0003)
   068D E4                 1591 	clr	a
   068E F0                 1592 	movx	@dptr,a
   068F 90s01r0F           1593 	mov	dptr,#(_setMap2CGram_c7_1_1 + 0x0004)
   0692 74 03              1594 	mov	a,#0x03
   0694 F0                 1595 	movx	@dptr,a
   0695 90s01r10           1596 	mov	dptr,#(_setMap2CGram_c7_1_1 + 0x0005)
   0698 74 03              1597 	mov	a,#0x03
   069A F0                 1598 	movx	@dptr,a
   069B 90s01r11           1599 	mov	dptr,#(_setMap2CGram_c7_1_1 + 0x0006)
   069E 74 03              1600 	mov	a,#0x03
   06A0 F0                 1601 	movx	@dptr,a
   06A1 90s01r12           1602 	mov	dptr,#(_setMap2CGram_c7_1_1 + 0x0007)
   06A4 74 1F              1603 	mov	a,#0x1F
   06A6 F0                 1604 	movx	@dptr,a
                           1605 ;	LCD.c:164: for(n = 0; n < 8 ;n++){
   06A7 7A 00              1606 	mov	r2,#0x00
   06A9                    1607 00101$:
   06A9 BA 08 00           1608 	cjne	r2,#0x08,00124$
   06AC                    1609 00124$:
   06AC 40 03              1610 	jc	00125$
   06AE 02s07r76           1611 	ljmp	00104$
   06B1                    1612 00125$:
                           1613 ;	LCD.c:165: SCmap[0].adds[n] = c0[n];
   06B1 EA                 1614 	mov	a,r2
   06B2 24r08              1615 	add	a,#_SCmap
   06B4 FB                 1616 	mov	r3,a
   06B5 E4                 1617 	clr	a
   06B6 34s00              1618 	addc	a,#(_SCmap >> 8)
   06B8 FC                 1619 	mov	r4,a
   06B9 EA                 1620 	mov	a,r2
   06BA 24rD3              1621 	add	a,#_setMap2CGram_c0_1_1
   06BC F5 82              1622 	mov	dpl,a
   06BE E4                 1623 	clr	a
   06BF 34s00              1624 	addc	a,#(_setMap2CGram_c0_1_1 >> 8)
   06C1 F5 83              1625 	mov	dph,a
   06C3 E0                 1626 	movx	a,@dptr
   06C4 8B 82              1627 	mov	dpl,r3
   06C6 8C 83              1628 	mov	dph,r4
   06C8 F0                 1629 	movx	@dptr,a
                           1630 ;	LCD.c:166: SCmap[1].adds[n] = c1[n];
   06C9 EA                 1631 	mov	a,r2
   06CA 24r10              1632 	add	a,#(_SCmap + 0x0008)
   06CC FB                 1633 	mov	r3,a
   06CD E4                 1634 	clr	a
   06CE 34s00              1635 	addc	a,#((_SCmap + 0x0008) >> 8)
   06D0 FC                 1636 	mov	r4,a
   06D1 EA                 1637 	mov	a,r2
   06D2 24rDB              1638 	add	a,#_setMap2CGram_c1_1_1
   06D4 F5 82              1639 	mov	dpl,a
   06D6 E4                 1640 	clr	a
   06D7 34s00              1641 	addc	a,#(_setMap2CGram_c1_1_1 >> 8)
   06D9 F5 83              1642 	mov	dph,a
   06DB E0                 1643 	movx	a,@dptr
   06DC 8B 82              1644 	mov	dpl,r3
   06DE 8C 83              1645 	mov	dph,r4
   06E0 F0                 1646 	movx	@dptr,a
                           1647 ;	LCD.c:167: SCmap[2].adds[n] = c2[n];
   06E1 EA                 1648 	mov	a,r2
   06E2 24r18              1649 	add	a,#(_SCmap + 0x0010)
   06E4 FB                 1650 	mov	r3,a
   06E5 E4                 1651 	clr	a
   06E6 34s00              1652 	addc	a,#((_SCmap + 0x0010) >> 8)
   06E8 FC                 1653 	mov	r4,a
   06E9 EA                 1654 	mov	a,r2
   06EA 24rE3              1655 	add	a,#_setMap2CGram_c2_1_1
   06EC F5 82              1656 	mov	dpl,a
   06EE E4                 1657 	clr	a
   06EF 34s00              1658 	addc	a,#(_setMap2CGram_c2_1_1 >> 8)
   06F1 F5 83              1659 	mov	dph,a
   06F3 E0                 1660 	movx	a,@dptr
   06F4 8B 82              1661 	mov	dpl,r3
   06F6 8C 83              1662 	mov	dph,r4
   06F8 F0                 1663 	movx	@dptr,a
                           1664 ;	LCD.c:168: SCmap[3].adds[n] = c3[n];
   06F9 EA                 1665 	mov	a,r2
   06FA 24r20              1666 	add	a,#(_SCmap + 0x0018)
   06FC FB                 1667 	mov	r3,a
   06FD E4                 1668 	clr	a
   06FE 34s00              1669 	addc	a,#((_SCmap + 0x0018) >> 8)
   0700 FC                 1670 	mov	r4,a
   0701 EA                 1671 	mov	a,r2
   0702 24rEB              1672 	add	a,#_setMap2CGram_c3_1_1
   0704 F5 82              1673 	mov	dpl,a
   0706 E4                 1674 	clr	a
   0707 34s00              1675 	addc	a,#(_setMap2CGram_c3_1_1 >> 8)
   0709 F5 83              1676 	mov	dph,a
   070B E0                 1677 	movx	a,@dptr
   070C 8B 82              1678 	mov	dpl,r3
   070E 8C 83              1679 	mov	dph,r4
   0710 F0                 1680 	movx	@dptr,a
                           1681 ;	LCD.c:169: SCmap[4].adds[n] = c4[n];
   0711 EA                 1682 	mov	a,r2
   0712 24r28              1683 	add	a,#(_SCmap + 0x0020)
   0714 FB                 1684 	mov	r3,a
   0715 E4                 1685 	clr	a
   0716 34s00              1686 	addc	a,#((_SCmap + 0x0020) >> 8)
   0718 FC                 1687 	mov	r4,a
   0719 EA                 1688 	mov	a,r2
   071A 24rF3              1689 	add	a,#_setMap2CGram_c4_1_1
   071C F5 82              1690 	mov	dpl,a
   071E E4                 1691 	clr	a
   071F 34s00              1692 	addc	a,#(_setMap2CGram_c4_1_1 >> 8)
   0721 F5 83              1693 	mov	dph,a
   0723 E0                 1694 	movx	a,@dptr
   0724 8B 82              1695 	mov	dpl,r3
   0726 8C 83              1696 	mov	dph,r4
   0728 F0                 1697 	movx	@dptr,a
                           1698 ;	LCD.c:170: SCmap[5].adds[n] = c5[n];
   0729 EA                 1699 	mov	a,r2
   072A 24r30              1700 	add	a,#(_SCmap + 0x0028)
   072C FB                 1701 	mov	r3,a
   072D E4                 1702 	clr	a
   072E 34s00              1703 	addc	a,#((_SCmap + 0x0028) >> 8)
   0730 FC                 1704 	mov	r4,a
   0731 EA                 1705 	mov	a,r2
   0732 24rFB              1706 	add	a,#_setMap2CGram_c5_1_1
   0734 F5 82              1707 	mov	dpl,a
   0736 E4                 1708 	clr	a
   0737 34s00              1709 	addc	a,#(_setMap2CGram_c5_1_1 >> 8)
   0739 F5 83              1710 	mov	dph,a
   073B E0                 1711 	movx	a,@dptr
   073C 8B 82              1712 	mov	dpl,r3
   073E 8C 83              1713 	mov	dph,r4
   0740 F0                 1714 	movx	@dptr,a
                           1715 ;	LCD.c:171: SCmap[6].adds[n] = c6[n];
   0741 EA                 1716 	mov	a,r2
   0742 24r38              1717 	add	a,#(_SCmap + 0x0030)
   0744 FB                 1718 	mov	r3,a
   0745 E4                 1719 	clr	a
   0746 34s00              1720 	addc	a,#((_SCmap + 0x0030) >> 8)
   0748 FC                 1721 	mov	r4,a
   0749 EA                 1722 	mov	a,r2
   074A 24r03              1723 	add	a,#_setMap2CGram_c6_1_1
   074C F5 82              1724 	mov	dpl,a
   074E E4                 1725 	clr	a
   074F 34s01              1726 	addc	a,#(_setMap2CGram_c6_1_1 >> 8)
   0751 F5 83              1727 	mov	dph,a
   0753 E0                 1728 	movx	a,@dptr
   0754 8B 82              1729 	mov	dpl,r3
   0756 8C 83              1730 	mov	dph,r4
   0758 F0                 1731 	movx	@dptr,a
                           1732 ;	LCD.c:172: SCmap[7].adds[n] = c7[n];
   0759 EA                 1733 	mov	a,r2
   075A 24r40              1734 	add	a,#(_SCmap + 0x0038)
   075C FB                 1735 	mov	r3,a
   075D E4                 1736 	clr	a
   075E 34s00              1737 	addc	a,#((_SCmap + 0x0038) >> 8)
   0760 FC                 1738 	mov	r4,a
   0761 EA                 1739 	mov	a,r2
   0762 24r0B              1740 	add	a,#_setMap2CGram_c7_1_1
   0764 F5 82              1741 	mov	dpl,a
   0766 E4                 1742 	clr	a
   0767 34s01              1743 	addc	a,#(_setMap2CGram_c7_1_1 >> 8)
   0769 F5 83              1744 	mov	dph,a
   076B E0                 1745 	movx	a,@dptr
   076C FD                 1746 	mov	r5,a
   076D 8B 82              1747 	mov	dpl,r3
   076F 8C 83              1748 	mov	dph,r4
   0771 F0                 1749 	movx	@dptr,a
                           1750 ;	LCD.c:164: for(n = 0; n < 8 ;n++){
   0772 0A                 1751 	inc	r2
   0773 02s06rA9           1752 	ljmp	00101$
   0776                    1753 00104$:
                           1754 ;	LCD.c:175: winstLCD = setCgramAddress;    				 // Atribuindo primeiro endereo da CGRAM
   0776 90 FF C2           1755 	mov	dptr,#_winstLCD
   0779 74 40              1756 	mov	a,#0x40
   077B F0                 1757 	movx	@dptr,a
                           1758 ;	LCD.c:176: delay(10,0);
   077C 90s00r00           1759 	mov	dptr,#_delay_PARM_2
   077F E4                 1760 	clr	a
   0780 F0                 1761 	movx	@dptr,a
   0781 90 00 0A           1762 	mov	dptr,#0x000A
   0784 12s00r00           1763 	lcall	_delay
                           1764 ;	LCD.c:178: for(m = 0;m< 8; m++){
   0787 7A 00              1765 	mov	r2,#0x00
   0789                    1766 00109$:
   0789 BA 08 00           1767 	cjne	r2,#0x08,00126$
   078C                    1768 00126$:
   078C 50 3F              1769 	jnc	00112$
                           1770 ;	LCD.c:179: for(n = 0; n < 8 ;n++){
   078E EA                 1771 	mov	a,r2
   078F C4                 1772 	swap	a
   0790 03                 1773 	rr	a
   0791 54 F8              1774 	anl	a,#0xf8
   0793 FB                 1775 	mov	r3,a
   0794 7C 00              1776 	mov	r4,#0x00
   0796                    1777 00105$:
   0796 BC 08 00           1778 	cjne	r4,#0x08,00128$
   0799                    1779 00128$:
   0799 50 2F              1780 	jnc	00111$
                           1781 ;	LCD.c:180: wdataLCD = SCmap[m].adds[n];                // Atribuindo escrita
   079B EB                 1782 	mov	a,r3
   079C 24r08              1783 	add	a,#_SCmap
   079E FD                 1784 	mov	r5,a
   079F E4                 1785 	clr	a
   07A0 34s00              1786 	addc	a,#(_SCmap >> 8)
   07A2 FE                 1787 	mov	r6,a
   07A3 EC                 1788 	mov	a,r4
   07A4 2D                 1789 	add	a,r5
   07A5 F5 82              1790 	mov	dpl,a
   07A7 E4                 1791 	clr	a
   07A8 3E                 1792 	addc	a,r6
   07A9 F5 83              1793 	mov	dph,a
   07AB E0                 1794 	movx	a,@dptr
   07AC 90 FF D2           1795 	mov	dptr,#_wdataLCD
   07AF F0                 1796 	movx	@dptr,a
                           1797 ;	LCD.c:181: delay(10,0);
   07B0 90s00r00           1798 	mov	dptr,#_delay_PARM_2
   07B3 E4                 1799 	clr	a
   07B4 F0                 1800 	movx	@dptr,a
   07B5 90 00 0A           1801 	mov	dptr,#0x000A
   07B8 C0 02              1802 	push	ar2
   07BA C0 03              1803 	push	ar3
   07BC C0 04              1804 	push	ar4
   07BE 12s00r00           1805 	lcall	_delay
   07C1 D0 04              1806 	pop	ar4
   07C3 D0 03              1807 	pop	ar3
   07C5 D0 02              1808 	pop	ar2
                           1809 ;	LCD.c:179: for(n = 0; n < 8 ;n++){
   07C7 0C                 1810 	inc	r4
   07C8 80 CC              1811 	sjmp	00105$
   07CA                    1812 00111$:
                           1813 ;	LCD.c:178: for(m = 0;m< 8; m++){
   07CA 0A                 1814 	inc	r2
   07CB 80 BC              1815 	sjmp	00109$
   07CD                    1816 00112$:
                           1817 ;	LCD.c:185: map[0][0].schar = 2;
   07CD 90s00r48           1818 	mov	dptr,#_map
   07D0 74 02              1819 	mov	a,#0x02
   07D2 F0                 1820 	movx	@dptr,a
                           1821 ;	LCD.c:186: map[0][1].schar = 3;
   07D3 90s00r49           1822 	mov	dptr,#(_map + 0x0001)
   07D6 74 03              1823 	mov	a,#0x03
   07D8 F0                 1824 	movx	@dptr,a
                           1825 ;	LCD.c:187: map[0][2].schar = 4;
   07D9 90s00r4A           1826 	mov	dptr,#(_map + 0x0002)
   07DC 74 04              1827 	mov	a,#0x04
   07DE F0                 1828 	movx	@dptr,a
                           1829 ;	LCD.c:188: map[0][3].schar = 3;
   07DF 90s00r4B           1830 	mov	dptr,#(_map + 0x0003)
   07E2 74 03              1831 	mov	a,#0x03
   07E4 F0                 1832 	movx	@dptr,a
                           1833 ;	LCD.c:189: map[0][4].schar = 3;
   07E5 90s00r4C           1834 	mov	dptr,#(_map + 0x0004)
   07E8 74 03              1835 	mov	a,#0x03
   07EA F0                 1836 	movx	@dptr,a
                           1837 ;	LCD.c:190: map[0][5].schar = 3;
   07EB 90s00r4D           1838 	mov	dptr,#(_map + 0x0005)
   07EE 74 03              1839 	mov	a,#0x03
   07F0 F0                 1840 	movx	@dptr,a
                           1841 ;	LCD.c:191: map[0][6].schar = 5;
   07F1 90s00r4E           1842 	mov	dptr,#(_map + 0x0006)
   07F4 74 05              1843 	mov	a,#0x05
   07F6 F0                 1844 	movx	@dptr,a
                           1845 ;	LCD.c:192: map[0][7].schar = 4;
   07F7 90s00r4F           1846 	mov	dptr,#(_map + 0x0007)
   07FA 74 04              1847 	mov	a,#0x04
   07FC F0                 1848 	movx	@dptr,a
                           1849 ;	LCD.c:193: map[0][8].schar = 4;
   07FD 90s00r50           1850 	mov	dptr,#(_map + 0x0008)
   0800 74 04              1851 	mov	a,#0x04
   0802 F0                 1852 	movx	@dptr,a
                           1853 ;	LCD.c:194: map[0][9].schar = 4;
   0803 90s00r51           1854 	mov	dptr,#(_map + 0x0009)
   0806 74 04              1855 	mov	a,#0x04
   0808 F0                 1856 	movx	@dptr,a
                           1857 ;	LCD.c:195: map[0][10].schar = 2;
   0809 90s00r52           1858 	mov	dptr,#(_map + 0x000a)
   080C 74 02              1859 	mov	a,#0x02
   080E F0                 1860 	movx	@dptr,a
                           1861 ;	LCD.c:196: map[0][11].schar = 3;
   080F 90s00r53           1862 	mov	dptr,#(_map + 0x000b)
   0812 74 03              1863 	mov	a,#0x03
   0814 F0                 1864 	movx	@dptr,a
                           1865 ;	LCD.c:197: map[0][12].schar = 4;
   0815 90s00r54           1866 	mov	dptr,#(_map + 0x000c)
   0818 74 04              1867 	mov	a,#0x04
   081A F0                 1868 	movx	@dptr,a
                           1869 ;	LCD.c:198: map[0][13].schar = 3;
   081B 90s00r55           1870 	mov	dptr,#(_map + 0x000d)
   081E 74 03              1871 	mov	a,#0x03
   0820 F0                 1872 	movx	@dptr,a
                           1873 ;	LCD.c:199: map[0][14].schar = 3;
   0821 90s00r56           1874 	mov	dptr,#(_map + 0x000e)
   0824 74 03              1875 	mov	a,#0x03
   0826 F0                 1876 	movx	@dptr,a
                           1877 ;	LCD.c:200: map[0][15].schar = 4;
   0827 90s00r57           1878 	mov	dptr,#(_map + 0x000f)
   082A 74 04              1879 	mov	a,#0x04
   082C F0                 1880 	movx	@dptr,a
                           1881 ;	LCD.c:202: map[1][0].schar = 5;
   082D 90s00r58           1882 	mov	dptr,#(_map + 0x0010)
   0830 74 05              1883 	mov	a,#0x05
   0832 F0                 1884 	movx	@dptr,a
                           1885 ;	LCD.c:203: map[1][1].schar = 6;
   0833 90s00r59           1886 	mov	dptr,#(_map + 0x0011)
   0836 74 06              1887 	mov	a,#0x06
   0838 F0                 1888 	movx	@dptr,a
                           1889 ;	LCD.c:204: map[1][2].schar = 8;
   0839 90s00r5A           1890 	mov	dptr,#(_map + 0x0012)
   083C 74 08              1891 	mov	a,#0x08
   083E F0                 1892 	movx	@dptr,a
                           1893 ;	LCD.c:205: map[1][3].schar = 2;
   083F 90s00r5B           1894 	mov	dptr,#(_map + 0x0013)
   0842 74 02              1895 	mov	a,#0x02
   0844 F0                 1896 	movx	@dptr,a
                           1897 ;	LCD.c:206: map[1][4].schar = 5;
   0845 90s00r5C           1898 	mov	dptr,#(_map + 0x0014)
   0848 74 05              1899 	mov	a,#0x05
   084A F0                 1900 	movx	@dptr,a
                           1901 ;	LCD.c:207: map[1][5].schar = 5;
   084B 90s00r5D           1902 	mov	dptr,#(_map + 0x0015)
   084E 74 05              1903 	mov	a,#0x05
   0850 F0                 1904 	movx	@dptr,a
                           1905 ;	LCD.c:208: map[1][6].schar = 6;
   0851 90s00r5E           1906 	mov	dptr,#(_map + 0x0016)
   0854 74 06              1907 	mov	a,#0x06
   0856 F0                 1908 	movx	@dptr,a
                           1909 ;	LCD.c:209: map[1][7].schar = 8;
   0857 90s00r5F           1910 	mov	dptr,#(_map + 0x0017)
   085A 74 08              1911 	mov	a,#0x08
   085C F0                 1912 	movx	@dptr,a
                           1913 ;	LCD.c:210: map[1][8].schar = 8;
   085D 90s00r60           1914 	mov	dptr,#(_map + 0x0018)
   0860 74 08              1915 	mov	a,#0x08
   0862 F0                 1916 	movx	@dptr,a
                           1917 ;	LCD.c:211: map[1][9].schar = 2;
   0863 90s00r61           1918 	mov	dptr,#(_map + 0x0019)
   0866 74 02              1919 	mov	a,#0x02
   0868 F0                 1920 	movx	@dptr,a
                           1921 ;	LCD.c:212: map[1][10].schar = 6;
   0869 90s00r62           1922 	mov	dptr,#(_map + 0x001a)
   086C 74 06              1923 	mov	a,#0x06
   086E F0                 1924 	movx	@dptr,a
                           1925 ;	LCD.c:213: map[1][11].schar = 5;
   086F 90s00r63           1926 	mov	dptr,#(_map + 0x001b)
   0872 74 05              1927 	mov	a,#0x05
   0874 F0                 1928 	movx	@dptr,a
                           1929 ;	LCD.c:214: map[1][12].schar = 3;
   0875 90s00r64           1930 	mov	dptr,#(_map + 0x001c)
   0878 74 03              1931 	mov	a,#0x03
   087A F0                 1932 	movx	@dptr,a
                           1933 ;	LCD.c:215: map[1][13].schar = 6;
   087B 90s00r65           1934 	mov	dptr,#(_map + 0x001d)
   087E 74 06              1935 	mov	a,#0x06
   0880 F0                 1936 	movx	@dptr,a
                           1937 ;	LCD.c:216: map[1][14].schar = 4;
   0881 90s00r66           1938 	mov	dptr,#(_map + 0x001e)
   0884 74 04              1939 	mov	a,#0x04
   0886 F0                 1940 	movx	@dptr,a
                           1941 ;	LCD.c:217: map[1][15].schar = 5;
   0887 90s00r67           1942 	mov	dptr,#(_map + 0x001f)
   088A 74 05              1943 	mov	a,#0x05
   088C F0                 1944 	movx	@dptr,a
                           1945 ;	LCD.c:219: map[2][0].schar = 5;
   088D 90s00r68           1946 	mov	dptr,#(_map + 0x0020)
   0890 74 05              1947 	mov	a,#0x05
   0892 F0                 1948 	movx	@dptr,a
                           1949 ;	LCD.c:220: map[2][1].schar = 3;
   0893 90s00r69           1950 	mov	dptr,#(_map + 0x0021)
   0896 74 03              1951 	mov	a,#0x03
   0898 F0                 1952 	movx	@dptr,a
                           1953 ;	LCD.c:221: map[2][2].schar = 4;
   0899 90s00r6A           1954 	mov	dptr,#(_map + 0x0022)
   089C 74 04              1955 	mov	a,#0x04
   089E F0                 1956 	movx	@dptr,a
                           1957 ;	LCD.c:222: map[2][3].schar = 8;
   089F 90s00r6B           1958 	mov	dptr,#(_map + 0x0023)
   08A2 74 08              1959 	mov	a,#0x08
   08A4 F0                 1960 	movx	@dptr,a
                           1961 ;	LCD.c:223: map[2][4].schar = 4;
   08A5 90s00r6C           1962 	mov	dptr,#(_map + 0x0024)
   08A8 74 04              1963 	mov	a,#0x04
   08AA F0                 1964 	movx	@dptr,a
                           1965 ;	LCD.c:224: map[2][5].schar = 3;
   08AB 90s00r6D           1966 	mov	dptr,#(_map + 0x0025)
   08AE 74 03              1967 	mov	a,#0x03
   08B0 F0                 1968 	movx	@dptr,a
                           1969 ;	LCD.c:225: map[2][6].schar = 2;
   08B1 90s00r6E           1970 	mov	dptr,#(_map + 0x0026)
   08B4 74 02              1971 	mov	a,#0x02
   08B6 F0                 1972 	movx	@dptr,a
                           1973 ;	LCD.c:226: map[2][7].schar = 3;
   08B7 90s00r6F           1974 	mov	dptr,#(_map + 0x0027)
   08BA 74 03              1975 	mov	a,#0x03
   08BC F0                 1976 	movx	@dptr,a
                           1977 ;	LCD.c:227: map[2][8].schar = 6;
   08BD 90s00r70           1978 	mov	dptr,#(_map + 0x0028)
   08C0 74 06              1979 	mov	a,#0x06
   08C2 F0                 1980 	movx	@dptr,a
                           1981 ;	LCD.c:228: map[2][9].schar = 5;
   08C3 90s00r71           1982 	mov	dptr,#(_map + 0x0029)
   08C6 74 05              1983 	mov	a,#0x05
   08C8 F0                 1984 	movx	@dptr,a
                           1985 ;	LCD.c:229: map[2][10].schar = 6;
   08C9 90s00r72           1986 	mov	dptr,#(_map + 0x002a)
   08CC 74 06              1987 	mov	a,#0x06
   08CE F0                 1988 	movx	@dptr,a
                           1989 ;	LCD.c:230: map[2][11].schar = 3;
   08CF 90s00r73           1990 	mov	dptr,#(_map + 0x002b)
   08D2 74 03              1991 	mov	a,#0x03
   08D4 F0                 1992 	movx	@dptr,a
                           1993 ;	LCD.c:231: map[2][12].schar = 4;
   08D5 90s00r74           1994 	mov	dptr,#(_map + 0x002c)
   08D8 74 04              1995 	mov	a,#0x04
   08DA F0                 1996 	movx	@dptr,a
                           1997 ;	LCD.c:232: map[2][13].schar = 2;
   08DB 90s00r75           1998 	mov	dptr,#(_map + 0x002d)
   08DE 74 02              1999 	mov	a,#0x02
   08E0 F0                 2000 	movx	@dptr,a
                           2001 ;	LCD.c:233: map[2][14].schar = 6;
   08E1 90s00r76           2002 	mov	dptr,#(_map + 0x002e)
   08E4 74 06              2003 	mov	a,#0x06
   08E6 F0                 2004 	movx	@dptr,a
                           2005 ;	LCD.c:234: map[2][15].schar = 8;
   08E7 90s00r77           2006 	mov	dptr,#(_map + 0x002f)
   08EA 74 08              2007 	mov	a,#0x08
   08EC F0                 2008 	movx	@dptr,a
                           2009 ;	LCD.c:236: map[3][0].schar = 7;
   08ED 90s00r78           2010 	mov	dptr,#(_map + 0x0030)
   08F0 74 07              2011 	mov	a,#0x07
   08F2 F0                 2012 	movx	@dptr,a
                           2013 ;	LCD.c:237: map[3][1].schar = 2;
   08F3 90s00r79           2014 	mov	dptr,#(_map + 0x0031)
   08F6 74 02              2015 	mov	a,#0x02
   08F8 F0                 2016 	movx	@dptr,a
                           2017 ;	LCD.c:238: map[3][2].schar = 8;
   08F9 90s00r7A           2018 	mov	dptr,#(_map + 0x0032)
   08FC 74 08              2019 	mov	a,#0x08
   08FE F0                 2020 	movx	@dptr,a
                           2021 ;	LCD.c:239: map[3][3].schar = 8;
   08FF 90s00r7B           2022 	mov	dptr,#(_map + 0x0033)
   0902 74 08              2023 	mov	a,#0x08
   0904 F0                 2024 	movx	@dptr,a
                           2025 ;	LCD.c:240: map[3][4].schar = 4;
   0905 90s00r7C           2026 	mov	dptr,#(_map + 0x0034)
   0908 74 04              2027 	mov	a,#0x04
   090A F0                 2028 	movx	@dptr,a
                           2029 ;	LCD.c:241: map[3][5].schar = 6;
   090B 90s00r7D           2030 	mov	dptr,#(_map + 0x0035)
   090E 74 06              2031 	mov	a,#0x06
   0910 F0                 2032 	movx	@dptr,a
                           2033 ;	LCD.c:242: map[3][6].schar = 7;
   0911 90s00r7E           2034 	mov	dptr,#(_map + 0x0036)
   0914 74 07              2035 	mov	a,#0x07
   0916 F0                 2036 	movx	@dptr,a
                           2037 ;	LCD.c:243: map[3][7].schar = 7;
   0917 90s00r7F           2038 	mov	dptr,#(_map + 0x0037)
   091A 74 07              2039 	mov	a,#0x07
   091C F0                 2040 	movx	@dptr,a
                           2041 ;	LCD.c:244: map[3][8].schar = 8;
   091D 90s00r80           2042 	mov	dptr,#(_map + 0x0038)
   0920 74 08              2043 	mov	a,#0x08
   0922 F0                 2044 	movx	@dptr,a
                           2045 ;	LCD.c:245: map[3][9].schar = 7;
   0923 90s00r81           2046 	mov	dptr,#(_map + 0x0039)
   0926 74 07              2047 	mov	a,#0x07
   0928 F0                 2048 	movx	@dptr,a
                           2049 ;	LCD.c:246: map[3][10].schar = 4;
   0929 90s00r82           2050 	mov	dptr,#(_map + 0x003a)
   092C 74 04              2051 	mov	a,#0x04
   092E F0                 2052 	movx	@dptr,a
                           2053 ;	LCD.c:247: map[3][11].schar = 7;
   092F 90s00r83           2054 	mov	dptr,#(_map + 0x003b)
   0932 74 07              2055 	mov	a,#0x07
   0934 F0                 2056 	movx	@dptr,a
                           2057 ;	LCD.c:248: map[3][12].schar = 8;
   0935 90s00r84           2058 	mov	dptr,#(_map + 0x003c)
   0938 74 08              2059 	mov	a,#0x08
   093A F0                 2060 	movx	@dptr,a
                           2061 ;	LCD.c:249: map[3][13].schar = 8;
   093B 90s00r85           2062 	mov	dptr,#(_map + 0x003d)
   093E 74 08              2063 	mov	a,#0x08
   0940 F0                 2064 	movx	@dptr,a
                           2065 ;	LCD.c:250: map[3][14].schar = 7;
   0941 90s00r86           2066 	mov	dptr,#(_map + 0x003e)
   0944 74 07              2067 	mov	a,#0x07
   0946 F0                 2068 	movx	@dptr,a
                           2069 ;	LCD.c:251: map[3][15].schar = 4;
   0947 90s00r87           2070 	mov	dptr,#(_map + 0x003f)
   094A 74 04              2071 	mov	a,#0x04
   094C F0                 2072 	movx	@dptr,a
                           2073 ;	LCD.c:253: printMap();
   094D 02s00rB5           2074 	ljmp	_printMap
                           2075 ;------------------------------------------------------------
                           2076 ;Allocation info for local variables in function 'setMap3CGram'
                           2077 ;------------------------------------------------------------
                           2078 ;n                         Allocated with name '_setMap3CGram_n_1_1'
                           2079 ;m                         Allocated with name '_setMap3CGram_m_1_1'
                           2080 ;c0                        Allocated with name '_setMap3CGram_c0_1_1'
                           2081 ;c1                        Allocated with name '_setMap3CGram_c1_1_1'
                           2082 ;c2                        Allocated with name '_setMap3CGram_c2_1_1'
                           2083 ;c3                        Allocated with name '_setMap3CGram_c3_1_1'
                           2084 ;c4                        Allocated with name '_setMap3CGram_c4_1_1'
                           2085 ;c5                        Allocated with name '_setMap3CGram_c5_1_1'
                           2086 ;c6                        Allocated with name '_setMap3CGram_c6_1_1'
                           2087 ;c7                        Allocated with name '_setMap3CGram_c7_1_1'
                           2088 ;------------------------------------------------------------
                           2089 ;	LCD.c:257: void setMap3CGram(){
                           2090 ;	-----------------------------------------
                           2091 ;	 function setMap3CGram
                           2092 ;	-----------------------------------------
   0950                    2093 _setMap3CGram:
                           2094 ;	LCD.c:260: unsigned char c0[] =  {0,0,0,0,0,0,0,0};
   0950 90s01r13           2095 	mov	dptr,#_setMap3CGram_c0_1_1
   0953 E4                 2096 	clr	a
   0954 F0                 2097 	movx	@dptr,a
   0955 90s01r14           2098 	mov	dptr,#(_setMap3CGram_c0_1_1 + 0x0001)
   0958 F0                 2099 	movx	@dptr,a
   0959 90s01r15           2100 	mov	dptr,#(_setMap3CGram_c0_1_1 + 0x0002)
   095C F0                 2101 	movx	@dptr,a
   095D 90s01r16           2102 	mov	dptr,#(_setMap3CGram_c0_1_1 + 0x0003)
   0960 F0                 2103 	movx	@dptr,a
   0961 90s01r17           2104 	mov	dptr,#(_setMap3CGram_c0_1_1 + 0x0004)
   0964 E4                 2105 	clr	a
   0965 F0                 2106 	movx	@dptr,a
   0966 90s01r18           2107 	mov	dptr,#(_setMap3CGram_c0_1_1 + 0x0005)
   0969 F0                 2108 	movx	@dptr,a
   096A 90s01r19           2109 	mov	dptr,#(_setMap3CGram_c0_1_1 + 0x0006)
   096D F0                 2110 	movx	@dptr,a
   096E 90s01r1A           2111 	mov	dptr,#(_setMap3CGram_c0_1_1 + 0x0007)
   0971 F0                 2112 	movx	@dptr,a
                           2113 ;	LCD.c:261: unsigned char c1[] =  {0x1B,0x1B,0x18,0x19,0x1A,0x11,0x1A,0x19};
   0972 90s01r1B           2114 	mov	dptr,#_setMap3CGram_c1_1_1
   0975 74 1B              2115 	mov	a,#0x1B
   0977 F0                 2116 	movx	@dptr,a
   0978 90s01r1C           2117 	mov	dptr,#(_setMap3CGram_c1_1_1 + 0x0001)
   097B 74 1B              2118 	mov	a,#0x1B
   097D F0                 2119 	movx	@dptr,a
   097E 90s01r1D           2120 	mov	dptr,#(_setMap3CGram_c1_1_1 + 0x0002)
   0981 74 18              2121 	mov	a,#0x18
   0983 F0                 2122 	movx	@dptr,a
   0984 90s01r1E           2123 	mov	dptr,#(_setMap3CGram_c1_1_1 + 0x0003)
   0987 74 19              2124 	mov	a,#0x19
   0989 F0                 2125 	movx	@dptr,a
   098A 90s01r1F           2126 	mov	dptr,#(_setMap3CGram_c1_1_1 + 0x0004)
   098D 74 1A              2127 	mov	a,#0x1A
   098F F0                 2128 	movx	@dptr,a
   0990 90s01r20           2129 	mov	dptr,#(_setMap3CGram_c1_1_1 + 0x0005)
   0993 74 11              2130 	mov	a,#0x11
   0995 F0                 2131 	movx	@dptr,a
   0996 90s01r21           2132 	mov	dptr,#(_setMap3CGram_c1_1_1 + 0x0006)
   0999 74 1A              2133 	mov	a,#0x1A
   099B F0                 2134 	movx	@dptr,a
   099C 90s01r22           2135 	mov	dptr,#(_setMap3CGram_c1_1_1 + 0x0007)
   099F 74 19              2136 	mov	a,#0x19
   09A1 F0                 2137 	movx	@dptr,a
                           2138 ;	LCD.c:262: unsigned char c2[] =  {0x1F,0x08,0x0A,0x0A,0x0A,0x0A,0x02,0x1F};
   09A2 90s01r23           2139 	mov	dptr,#_setMap3CGram_c2_1_1
   09A5 74 1F              2140 	mov	a,#0x1F
   09A7 F0                 2141 	movx	@dptr,a
   09A8 90s01r24           2142 	mov	dptr,#(_setMap3CGram_c2_1_1 + 0x0001)
   09AB 74 08              2143 	mov	a,#0x08
   09AD F0                 2144 	movx	@dptr,a
   09AE 90s01r25           2145 	mov	dptr,#(_setMap3CGram_c2_1_1 + 0x0002)
   09B1 74 0A              2146 	mov	a,#0x0A
   09B3 F0                 2147 	movx	@dptr,a
   09B4 90s01r26           2148 	mov	dptr,#(_setMap3CGram_c2_1_1 + 0x0003)
   09B7 74 0A              2149 	mov	a,#0x0A
   09B9 F0                 2150 	movx	@dptr,a
   09BA 90s01r27           2151 	mov	dptr,#(_setMap3CGram_c2_1_1 + 0x0004)
   09BD 74 0A              2152 	mov	a,#0x0A
   09BF F0                 2153 	movx	@dptr,a
   09C0 90s01r28           2154 	mov	dptr,#(_setMap3CGram_c2_1_1 + 0x0005)
   09C3 74 0A              2155 	mov	a,#0x0A
   09C5 F0                 2156 	movx	@dptr,a
   09C6 90s01r29           2157 	mov	dptr,#(_setMap3CGram_c2_1_1 + 0x0006)
   09C9 74 02              2158 	mov	a,#0x02
   09CB F0                 2159 	movx	@dptr,a
   09CC 90s01r2A           2160 	mov	dptr,#(_setMap3CGram_c2_1_1 + 0x0007)
   09CF 74 1F              2161 	mov	a,#0x1F
   09D1 F0                 2162 	movx	@dptr,a
                           2163 ;	LCD.c:263: unsigned char c3[] =  {0x1B,0x11,0x15,0x05,0x14,0x15,0x11,0x1B};
   09D2 90s01r2B           2164 	mov	dptr,#_setMap3CGram_c3_1_1
   09D5 74 1B              2165 	mov	a,#0x1B
   09D7 F0                 2166 	movx	@dptr,a
   09D8 90s01r2C           2167 	mov	dptr,#(_setMap3CGram_c3_1_1 + 0x0001)
   09DB 74 11              2168 	mov	a,#0x11
   09DD F0                 2169 	movx	@dptr,a
   09DE 90s01r2D           2170 	mov	dptr,#(_setMap3CGram_c3_1_1 + 0x0002)
   09E1 74 15              2171 	mov	a,#0x15
   09E3 F0                 2172 	movx	@dptr,a
   09E4 90s01r2E           2173 	mov	dptr,#(_setMap3CGram_c3_1_1 + 0x0003)
   09E7 74 05              2174 	mov	a,#0x05
   09E9 F0                 2175 	movx	@dptr,a
   09EA 90s01r2F           2176 	mov	dptr,#(_setMap3CGram_c3_1_1 + 0x0004)
   09ED 74 14              2177 	mov	a,#0x14
   09EF F0                 2178 	movx	@dptr,a
   09F0 90s01r30           2179 	mov	dptr,#(_setMap3CGram_c3_1_1 + 0x0005)
   09F3 74 15              2180 	mov	a,#0x15
   09F5 F0                 2181 	movx	@dptr,a
   09F6 90s01r31           2182 	mov	dptr,#(_setMap3CGram_c3_1_1 + 0x0006)
   09F9 74 11              2183 	mov	a,#0x11
   09FB F0                 2184 	movx	@dptr,a
   09FC 90s01r32           2185 	mov	dptr,#(_setMap3CGram_c3_1_1 + 0x0007)
   09FF 74 1B              2186 	mov	a,#0x1B
   0A01 F0                 2187 	movx	@dptr,a
                           2188 ;	LCD.c:264: unsigned char c4[] =  {0x19,0x13,0x17,0x10,0x03,0x1B,0x19,0x13};
   0A02 90s01r33           2189 	mov	dptr,#_setMap3CGram_c4_1_1
   0A05 74 19              2190 	mov	a,#0x19
   0A07 F0                 2191 	movx	@dptr,a
   0A08 90s01r34           2192 	mov	dptr,#(_setMap3CGram_c4_1_1 + 0x0001)
   0A0B 74 13              2193 	mov	a,#0x13
   0A0D F0                 2194 	movx	@dptr,a
   0A0E 90s01r35           2195 	mov	dptr,#(_setMap3CGram_c4_1_1 + 0x0002)
   0A11 74 17              2196 	mov	a,#0x17
   0A13 F0                 2197 	movx	@dptr,a
   0A14 90s01r36           2198 	mov	dptr,#(_setMap3CGram_c4_1_1 + 0x0003)
   0A17 74 10              2199 	mov	a,#0x10
   0A19 F0                 2200 	movx	@dptr,a
   0A1A 90s01r37           2201 	mov	dptr,#(_setMap3CGram_c4_1_1 + 0x0004)
   0A1D 74 03              2202 	mov	a,#0x03
   0A1F F0                 2203 	movx	@dptr,a
   0A20 90s01r38           2204 	mov	dptr,#(_setMap3CGram_c4_1_1 + 0x0005)
   0A23 74 1B              2205 	mov	a,#0x1B
   0A25 F0                 2206 	movx	@dptr,a
   0A26 90s01r39           2207 	mov	dptr,#(_setMap3CGram_c4_1_1 + 0x0006)
   0A29 74 19              2208 	mov	a,#0x19
   0A2B F0                 2209 	movx	@dptr,a
   0A2C 90s01r3A           2210 	mov	dptr,#(_setMap3CGram_c4_1_1 + 0x0007)
   0A2F 74 13              2211 	mov	a,#0x13
   0A31 F0                 2212 	movx	@dptr,a
                           2213 ;	LCD.c:265: unsigned char c5[] =  {0x12,0x1B,0x1A,0x09,0x00,0x11,0x11,0x1B};
   0A32 90s01r3B           2214 	mov	dptr,#_setMap3CGram_c5_1_1
   0A35 74 12              2215 	mov	a,#0x12
   0A37 F0                 2216 	movx	@dptr,a
   0A38 90s01r3C           2217 	mov	dptr,#(_setMap3CGram_c5_1_1 + 0x0001)
   0A3B 74 1B              2218 	mov	a,#0x1B
   0A3D F0                 2219 	movx	@dptr,a
   0A3E 90s01r3D           2220 	mov	dptr,#(_setMap3CGram_c5_1_1 + 0x0002)
   0A41 74 1A              2221 	mov	a,#0x1A
   0A43 F0                 2222 	movx	@dptr,a
   0A44 90s01r3E           2223 	mov	dptr,#(_setMap3CGram_c5_1_1 + 0x0003)
   0A47 74 09              2224 	mov	a,#0x09
   0A49 F0                 2225 	movx	@dptr,a
   0A4A 90s01r3F           2226 	mov	dptr,#(_setMap3CGram_c5_1_1 + 0x0004)
   0A4D E4                 2227 	clr	a
   0A4E F0                 2228 	movx	@dptr,a
   0A4F 90s01r40           2229 	mov	dptr,#(_setMap3CGram_c5_1_1 + 0x0005)
   0A52 74 11              2230 	mov	a,#0x11
   0A54 F0                 2231 	movx	@dptr,a
   0A55 90s01r41           2232 	mov	dptr,#(_setMap3CGram_c5_1_1 + 0x0006)
   0A58 74 11              2233 	mov	a,#0x11
   0A5A F0                 2234 	movx	@dptr,a
   0A5B 90s01r42           2235 	mov	dptr,#(_setMap3CGram_c5_1_1 + 0x0007)
   0A5E 74 1B              2236 	mov	a,#0x1B
   0A60 F0                 2237 	movx	@dptr,a
                           2238 ;	LCD.c:266: unsigned char c6[] =  {0x12,0x17,0x10,0x12,0x15,0x14,0x13,0x1F};
   0A61 90s01r43           2239 	mov	dptr,#_setMap3CGram_c6_1_1
   0A64 74 12              2240 	mov	a,#0x12
   0A66 F0                 2241 	movx	@dptr,a
   0A67 90s01r44           2242 	mov	dptr,#(_setMap3CGram_c6_1_1 + 0x0001)
   0A6A 74 17              2243 	mov	a,#0x17
   0A6C F0                 2244 	movx	@dptr,a
   0A6D 90s01r45           2245 	mov	dptr,#(_setMap3CGram_c6_1_1 + 0x0002)
   0A70 74 10              2246 	mov	a,#0x10
   0A72 F0                 2247 	movx	@dptr,a
   0A73 90s01r46           2248 	mov	dptr,#(_setMap3CGram_c6_1_1 + 0x0003)
   0A76 74 12              2249 	mov	a,#0x12
   0A78 F0                 2250 	movx	@dptr,a
   0A79 90s01r47           2251 	mov	dptr,#(_setMap3CGram_c6_1_1 + 0x0004)
   0A7C 74 15              2252 	mov	a,#0x15
   0A7E F0                 2253 	movx	@dptr,a
   0A7F 90s01r48           2254 	mov	dptr,#(_setMap3CGram_c6_1_1 + 0x0005)
   0A82 74 14              2255 	mov	a,#0x14
   0A84 F0                 2256 	movx	@dptr,a
   0A85 90s01r49           2257 	mov	dptr,#(_setMap3CGram_c6_1_1 + 0x0006)
   0A88 74 13              2258 	mov	a,#0x13
   0A8A F0                 2259 	movx	@dptr,a
   0A8B 90s01r4A           2260 	mov	dptr,#(_setMap3CGram_c6_1_1 + 0x0007)
   0A8E 74 1F              2261 	mov	a,#0x1F
   0A90 F0                 2262 	movx	@dptr,a
                           2263 ;	LCD.c:267: unsigned char c7[] =  {0x1B,0x11,0x15,0x00,0x15,0x00,0x15,0x1B};
   0A91 90s01r4B           2264 	mov	dptr,#_setMap3CGram_c7_1_1
   0A94 74 1B              2265 	mov	a,#0x1B
   0A96 F0                 2266 	movx	@dptr,a
   0A97 90s01r4C           2267 	mov	dptr,#(_setMap3CGram_c7_1_1 + 0x0001)
   0A9A 74 11              2268 	mov	a,#0x11
   0A9C F0                 2269 	movx	@dptr,a
   0A9D 90s01r4D           2270 	mov	dptr,#(_setMap3CGram_c7_1_1 + 0x0002)
   0AA0 74 15              2271 	mov	a,#0x15
   0AA2 F0                 2272 	movx	@dptr,a
   0AA3 90s01r4E           2273 	mov	dptr,#(_setMap3CGram_c7_1_1 + 0x0003)
   0AA6 E4                 2274 	clr	a
   0AA7 F0                 2275 	movx	@dptr,a
   0AA8 90s01r4F           2276 	mov	dptr,#(_setMap3CGram_c7_1_1 + 0x0004)
   0AAB 74 15              2277 	mov	a,#0x15
   0AAD F0                 2278 	movx	@dptr,a
   0AAE 90s01r50           2279 	mov	dptr,#(_setMap3CGram_c7_1_1 + 0x0005)
   0AB1 E4                 2280 	clr	a
   0AB2 F0                 2281 	movx	@dptr,a
   0AB3 90s01r51           2282 	mov	dptr,#(_setMap3CGram_c7_1_1 + 0x0006)
   0AB6 74 15              2283 	mov	a,#0x15
   0AB8 F0                 2284 	movx	@dptr,a
   0AB9 90s01r52           2285 	mov	dptr,#(_setMap3CGram_c7_1_1 + 0x0007)
   0ABC 74 1B              2286 	mov	a,#0x1B
   0ABE F0                 2287 	movx	@dptr,a
                           2288 ;	LCD.c:270: for(n = 0; n < 8 ;n++){
   0ABF 7A 00              2289 	mov	r2,#0x00
   0AC1                    2290 00101$:
   0AC1 BA 08 00           2291 	cjne	r2,#0x08,00124$
   0AC4                    2292 00124$:
   0AC4 40 03              2293 	jc	00125$
   0AC6 02s0Br8E           2294 	ljmp	00104$
   0AC9                    2295 00125$:
                           2296 ;	LCD.c:271: SCmap[0].adds[n] = c0[n];
   0AC9 EA                 2297 	mov	a,r2
   0ACA 24r08              2298 	add	a,#_SCmap
   0ACC FB                 2299 	mov	r3,a
   0ACD E4                 2300 	clr	a
   0ACE 34s00              2301 	addc	a,#(_SCmap >> 8)
   0AD0 FC                 2302 	mov	r4,a
   0AD1 EA                 2303 	mov	a,r2
   0AD2 24r13              2304 	add	a,#_setMap3CGram_c0_1_1
   0AD4 F5 82              2305 	mov	dpl,a
   0AD6 E4                 2306 	clr	a
   0AD7 34s01              2307 	addc	a,#(_setMap3CGram_c0_1_1 >> 8)
   0AD9 F5 83              2308 	mov	dph,a
   0ADB E0                 2309 	movx	a,@dptr
   0ADC 8B 82              2310 	mov	dpl,r3
   0ADE 8C 83              2311 	mov	dph,r4
   0AE0 F0                 2312 	movx	@dptr,a
                           2313 ;	LCD.c:272: SCmap[1].adds[n] = c1[n];
   0AE1 EA                 2314 	mov	a,r2
   0AE2 24r10              2315 	add	a,#(_SCmap + 0x0008)
   0AE4 FB                 2316 	mov	r3,a
   0AE5 E4                 2317 	clr	a
   0AE6 34s00              2318 	addc	a,#((_SCmap + 0x0008) >> 8)
   0AE8 FC                 2319 	mov	r4,a
   0AE9 EA                 2320 	mov	a,r2
   0AEA 24r1B              2321 	add	a,#_setMap3CGram_c1_1_1
   0AEC F5 82              2322 	mov	dpl,a
   0AEE E4                 2323 	clr	a
   0AEF 34s01              2324 	addc	a,#(_setMap3CGram_c1_1_1 >> 8)
   0AF1 F5 83              2325 	mov	dph,a
   0AF3 E0                 2326 	movx	a,@dptr
   0AF4 8B 82              2327 	mov	dpl,r3
   0AF6 8C 83              2328 	mov	dph,r4
   0AF8 F0                 2329 	movx	@dptr,a
                           2330 ;	LCD.c:273: SCmap[2].adds[n] = c2[n];
   0AF9 EA                 2331 	mov	a,r2
   0AFA 24r18              2332 	add	a,#(_SCmap + 0x0010)
   0AFC FB                 2333 	mov	r3,a
   0AFD E4                 2334 	clr	a
   0AFE 34s00              2335 	addc	a,#((_SCmap + 0x0010) >> 8)
   0B00 FC                 2336 	mov	r4,a
   0B01 EA                 2337 	mov	a,r2
   0B02 24r23              2338 	add	a,#_setMap3CGram_c2_1_1
   0B04 F5 82              2339 	mov	dpl,a
   0B06 E4                 2340 	clr	a
   0B07 34s01              2341 	addc	a,#(_setMap3CGram_c2_1_1 >> 8)
   0B09 F5 83              2342 	mov	dph,a
   0B0B E0                 2343 	movx	a,@dptr
   0B0C 8B 82              2344 	mov	dpl,r3
   0B0E 8C 83              2345 	mov	dph,r4
   0B10 F0                 2346 	movx	@dptr,a
                           2347 ;	LCD.c:274: SCmap[3].adds[n] = c3[n];
   0B11 EA                 2348 	mov	a,r2
   0B12 24r20              2349 	add	a,#(_SCmap + 0x0018)
   0B14 FB                 2350 	mov	r3,a
   0B15 E4                 2351 	clr	a
   0B16 34s00              2352 	addc	a,#((_SCmap + 0x0018) >> 8)
   0B18 FC                 2353 	mov	r4,a
   0B19 EA                 2354 	mov	a,r2
   0B1A 24r2B              2355 	add	a,#_setMap3CGram_c3_1_1
   0B1C F5 82              2356 	mov	dpl,a
   0B1E E4                 2357 	clr	a
   0B1F 34s01              2358 	addc	a,#(_setMap3CGram_c3_1_1 >> 8)
   0B21 F5 83              2359 	mov	dph,a
   0B23 E0                 2360 	movx	a,@dptr
   0B24 8B 82              2361 	mov	dpl,r3
   0B26 8C 83              2362 	mov	dph,r4
   0B28 F0                 2363 	movx	@dptr,a
                           2364 ;	LCD.c:275: SCmap[4].adds[n] = c4[n];
   0B29 EA                 2365 	mov	a,r2
   0B2A 24r28              2366 	add	a,#(_SCmap + 0x0020)
   0B2C FB                 2367 	mov	r3,a
   0B2D E4                 2368 	clr	a
   0B2E 34s00              2369 	addc	a,#((_SCmap + 0x0020) >> 8)
   0B30 FC                 2370 	mov	r4,a
   0B31 EA                 2371 	mov	a,r2
   0B32 24r33              2372 	add	a,#_setMap3CGram_c4_1_1
   0B34 F5 82              2373 	mov	dpl,a
   0B36 E4                 2374 	clr	a
   0B37 34s01              2375 	addc	a,#(_setMap3CGram_c4_1_1 >> 8)
   0B39 F5 83              2376 	mov	dph,a
   0B3B E0                 2377 	movx	a,@dptr
   0B3C 8B 82              2378 	mov	dpl,r3
   0B3E 8C 83              2379 	mov	dph,r4
   0B40 F0                 2380 	movx	@dptr,a
                           2381 ;	LCD.c:276: SCmap[5].adds[n] = c5[n];
   0B41 EA                 2382 	mov	a,r2
   0B42 24r30              2383 	add	a,#(_SCmap + 0x0028)
   0B44 FB                 2384 	mov	r3,a
   0B45 E4                 2385 	clr	a
   0B46 34s00              2386 	addc	a,#((_SCmap + 0x0028) >> 8)
   0B48 FC                 2387 	mov	r4,a
   0B49 EA                 2388 	mov	a,r2
   0B4A 24r3B              2389 	add	a,#_setMap3CGram_c5_1_1
   0B4C F5 82              2390 	mov	dpl,a
   0B4E E4                 2391 	clr	a
   0B4F 34s01              2392 	addc	a,#(_setMap3CGram_c5_1_1 >> 8)
   0B51 F5 83              2393 	mov	dph,a
   0B53 E0                 2394 	movx	a,@dptr
   0B54 8B 82              2395 	mov	dpl,r3
   0B56 8C 83              2396 	mov	dph,r4
   0B58 F0                 2397 	movx	@dptr,a
                           2398 ;	LCD.c:277: SCmap[6].adds[n] = c6[n];
   0B59 EA                 2399 	mov	a,r2
   0B5A 24r38              2400 	add	a,#(_SCmap + 0x0030)
   0B5C FB                 2401 	mov	r3,a
   0B5D E4                 2402 	clr	a
   0B5E 34s00              2403 	addc	a,#((_SCmap + 0x0030) >> 8)
   0B60 FC                 2404 	mov	r4,a
   0B61 EA                 2405 	mov	a,r2
   0B62 24r43              2406 	add	a,#_setMap3CGram_c6_1_1
   0B64 F5 82              2407 	mov	dpl,a
   0B66 E4                 2408 	clr	a
   0B67 34s01              2409 	addc	a,#(_setMap3CGram_c6_1_1 >> 8)
   0B69 F5 83              2410 	mov	dph,a
   0B6B E0                 2411 	movx	a,@dptr
   0B6C 8B 82              2412 	mov	dpl,r3
   0B6E 8C 83              2413 	mov	dph,r4
   0B70 F0                 2414 	movx	@dptr,a
                           2415 ;	LCD.c:278: SCmap[7].adds[n] = c7[n];
   0B71 EA                 2416 	mov	a,r2
   0B72 24r40              2417 	add	a,#(_SCmap + 0x0038)
   0B74 FB                 2418 	mov	r3,a
   0B75 E4                 2419 	clr	a
   0B76 34s00              2420 	addc	a,#((_SCmap + 0x0038) >> 8)
   0B78 FC                 2421 	mov	r4,a
   0B79 EA                 2422 	mov	a,r2
   0B7A 24r4B              2423 	add	a,#_setMap3CGram_c7_1_1
   0B7C F5 82              2424 	mov	dpl,a
   0B7E E4                 2425 	clr	a
   0B7F 34s01              2426 	addc	a,#(_setMap3CGram_c7_1_1 >> 8)
   0B81 F5 83              2427 	mov	dph,a
   0B83 E0                 2428 	movx	a,@dptr
   0B84 FD                 2429 	mov	r5,a
   0B85 8B 82              2430 	mov	dpl,r3
   0B87 8C 83              2431 	mov	dph,r4
   0B89 F0                 2432 	movx	@dptr,a
                           2433 ;	LCD.c:270: for(n = 0; n < 8 ;n++){
   0B8A 0A                 2434 	inc	r2
   0B8B 02s0ArC1           2435 	ljmp	00101$
   0B8E                    2436 00104$:
                           2437 ;	LCD.c:281: winstLCD = setCgramAddress;    				 // Atribuindo primeiro endereo da CGRAM
   0B8E 90 FF C2           2438 	mov	dptr,#_winstLCD
   0B91 74 40              2439 	mov	a,#0x40
   0B93 F0                 2440 	movx	@dptr,a
                           2441 ;	LCD.c:282: delay(10,0);
   0B94 90s00r00           2442 	mov	dptr,#_delay_PARM_2
   0B97 E4                 2443 	clr	a
   0B98 F0                 2444 	movx	@dptr,a
   0B99 90 00 0A           2445 	mov	dptr,#0x000A
   0B9C 12s00r00           2446 	lcall	_delay
                           2447 ;	LCD.c:284: for(m = 0;m< 8; m++){
   0B9F 7A 00              2448 	mov	r2,#0x00
   0BA1                    2449 00109$:
   0BA1 BA 08 00           2450 	cjne	r2,#0x08,00126$
   0BA4                    2451 00126$:
   0BA4 50 3F              2452 	jnc	00112$
                           2453 ;	LCD.c:285: for(n = 0; n < 8 ;n++){
   0BA6 EA                 2454 	mov	a,r2
   0BA7 C4                 2455 	swap	a
   0BA8 03                 2456 	rr	a
   0BA9 54 F8              2457 	anl	a,#0xf8
   0BAB FB                 2458 	mov	r3,a
   0BAC 7C 00              2459 	mov	r4,#0x00
   0BAE                    2460 00105$:
   0BAE BC 08 00           2461 	cjne	r4,#0x08,00128$
   0BB1                    2462 00128$:
   0BB1 50 2F              2463 	jnc	00111$
                           2464 ;	LCD.c:286: wdataLCD = SCmap[m].adds[n];                // Atribuindo escrita
   0BB3 EB                 2465 	mov	a,r3
   0BB4 24r08              2466 	add	a,#_SCmap
   0BB6 FD                 2467 	mov	r5,a
   0BB7 E4                 2468 	clr	a
   0BB8 34s00              2469 	addc	a,#(_SCmap >> 8)
   0BBA FE                 2470 	mov	r6,a
   0BBB EC                 2471 	mov	a,r4
   0BBC 2D                 2472 	add	a,r5
   0BBD F5 82              2473 	mov	dpl,a
   0BBF E4                 2474 	clr	a
   0BC0 3E                 2475 	addc	a,r6
   0BC1 F5 83              2476 	mov	dph,a
   0BC3 E0                 2477 	movx	a,@dptr
   0BC4 90 FF D2           2478 	mov	dptr,#_wdataLCD
   0BC7 F0                 2479 	movx	@dptr,a
                           2480 ;	LCD.c:287: delay(10,0);
   0BC8 90s00r00           2481 	mov	dptr,#_delay_PARM_2
   0BCB E4                 2482 	clr	a
   0BCC F0                 2483 	movx	@dptr,a
   0BCD 90 00 0A           2484 	mov	dptr,#0x000A
   0BD0 C0 02              2485 	push	ar2
   0BD2 C0 03              2486 	push	ar3
   0BD4 C0 04              2487 	push	ar4
   0BD6 12s00r00           2488 	lcall	_delay
   0BD9 D0 04              2489 	pop	ar4
   0BDB D0 03              2490 	pop	ar3
   0BDD D0 02              2491 	pop	ar2
                           2492 ;	LCD.c:285: for(n = 0; n < 8 ;n++){
   0BDF 0C                 2493 	inc	r4
   0BE0 80 CC              2494 	sjmp	00105$
   0BE2                    2495 00111$:
                           2496 ;	LCD.c:284: for(m = 0;m< 8; m++){
   0BE2 0A                 2497 	inc	r2
   0BE3 80 BC              2498 	sjmp	00109$
   0BE5                    2499 00112$:
                           2500 ;	LCD.c:291: map[0][0].schar = 2;
   0BE5 90s00r48           2501 	mov	dptr,#_map
   0BE8 74 02              2502 	mov	a,#0x02
   0BEA F0                 2503 	movx	@dptr,a
                           2504 ;	LCD.c:292: map[0][1].schar = 3;
   0BEB 90s00r49           2505 	mov	dptr,#(_map + 0x0001)
   0BEE 74 03              2506 	mov	a,#0x03
   0BF0 F0                 2507 	movx	@dptr,a
                           2508 ;	LCD.c:293: map[0][2].schar = 7;
   0BF1 90s00r4A           2509 	mov	dptr,#(_map + 0x0002)
   0BF4 74 07              2510 	mov	a,#0x07
   0BF6 F0                 2511 	movx	@dptr,a
                           2512 ;	LCD.c:294: map[0][3].schar = 2;
   0BF7 90s00r4B           2513 	mov	dptr,#(_map + 0x0003)
   0BFA 74 02              2514 	mov	a,#0x02
   0BFC F0                 2515 	movx	@dptr,a
                           2516 ;	LCD.c:295: map[0][4].schar = 4;
   0BFD 90s00r4C           2517 	mov	dptr,#(_map + 0x0004)
   0C00 74 04              2518 	mov	a,#0x04
   0C02 F0                 2519 	movx	@dptr,a
                           2520 ;	LCD.c:296: map[0][5].schar = 3;
   0C03 90s00r4D           2521 	mov	dptr,#(_map + 0x0005)
   0C06 74 03              2522 	mov	a,#0x03
   0C08 F0                 2523 	movx	@dptr,a
                           2524 ;	LCD.c:297: map[0][6].schar = 3;
   0C09 90s00r4E           2525 	mov	dptr,#(_map + 0x0006)
   0C0C 74 03              2526 	mov	a,#0x03
   0C0E F0                 2527 	movx	@dptr,a
                           2528 ;	LCD.c:298: map[0][7].schar = 6;
   0C0F 90s00r4F           2529 	mov	dptr,#(_map + 0x0007)
   0C12 74 06              2530 	mov	a,#0x06
   0C14 F0                 2531 	movx	@dptr,a
                           2532 ;	LCD.c:299: map[0][8].schar = 8;
   0C15 90s00r50           2533 	mov	dptr,#(_map + 0x0008)
   0C18 74 08              2534 	mov	a,#0x08
   0C1A F0                 2535 	movx	@dptr,a
                           2536 ;	LCD.c:300: map[0][9].schar = 8;
   0C1B 90s00r51           2537 	mov	dptr,#(_map + 0x0009)
   0C1E 74 08              2538 	mov	a,#0x08
   0C20 F0                 2539 	movx	@dptr,a
                           2540 ;	LCD.c:301: map[0][10].schar = 2;
   0C21 90s00r52           2541 	mov	dptr,#(_map + 0x000a)
   0C24 74 02              2542 	mov	a,#0x02
   0C26 F0                 2543 	movx	@dptr,a
                           2544 ;	LCD.c:302: map[0][11].schar = 8;
   0C27 90s00r53           2545 	mov	dptr,#(_map + 0x000b)
   0C2A 74 08              2546 	mov	a,#0x08
   0C2C F0                 2547 	movx	@dptr,a
                           2548 ;	LCD.c:303: map[0][12].schar = 2;
   0C2D 90s00r54           2549 	mov	dptr,#(_map + 0x000c)
   0C30 74 02              2550 	mov	a,#0x02
   0C32 F0                 2551 	movx	@dptr,a
                           2552 ;	LCD.c:304: map[0][13].schar = 4;
   0C33 90s00r55           2553 	mov	dptr,#(_map + 0x000d)
   0C36 74 04              2554 	mov	a,#0x04
   0C38 F0                 2555 	movx	@dptr,a
                           2556 ;	LCD.c:305: map[0][14].schar = 8;
   0C39 90s00r56           2557 	mov	dptr,#(_map + 0x000e)
   0C3C 74 08              2558 	mov	a,#0x08
   0C3E F0                 2559 	movx	@dptr,a
                           2560 ;	LCD.c:306: map[0][15].schar = 8;
   0C3F 90s00r57           2561 	mov	dptr,#(_map + 0x000f)
   0C42 74 08              2562 	mov	a,#0x08
   0C44 F0                 2563 	movx	@dptr,a
                           2564 ;	LCD.c:308: map[1][0].schar = 3;
   0C45 90s00r58           2565 	mov	dptr,#(_map + 0x0010)
   0C48 74 03              2566 	mov	a,#0x03
   0C4A F0                 2567 	movx	@dptr,a
                           2568 ;	LCD.c:309: map[1][1].schar = 4;
   0C4B 90s00r59           2569 	mov	dptr,#(_map + 0x0011)
   0C4E 74 04              2570 	mov	a,#0x04
   0C50 F0                 2571 	movx	@dptr,a
                           2572 ;	LCD.c:310: map[1][2].schar = 5;
   0C51 90s00r5A           2573 	mov	dptr,#(_map + 0x0012)
   0C54 74 05              2574 	mov	a,#0x05
   0C56 F0                 2575 	movx	@dptr,a
                           2576 ;	LCD.c:311: map[1][3].schar = 2;
   0C57 90s00r5B           2577 	mov	dptr,#(_map + 0x0013)
   0C5A 74 02              2578 	mov	a,#0x02
   0C5C F0                 2579 	movx	@dptr,a
                           2580 ;	LCD.c:312: map[1][4].schar = 5;
   0C5D 90s00r5C           2581 	mov	dptr,#(_map + 0x0014)
   0C60 74 05              2582 	mov	a,#0x05
   0C62 F0                 2583 	movx	@dptr,a
                           2584 ;	LCD.c:313: map[1][5].schar = 4;
   0C63 90s00r5D           2585 	mov	dptr,#(_map + 0x0015)
   0C66 74 04              2586 	mov	a,#0x04
   0C68 F0                 2587 	movx	@dptr,a
                           2588 ;	LCD.c:314: map[1][6].schar = 6;
   0C69 90s00r5E           2589 	mov	dptr,#(_map + 0x0016)
   0C6C 74 06              2590 	mov	a,#0x06
   0C6E F0                 2591 	movx	@dptr,a
                           2592 ;	LCD.c:315: map[1][7].schar = 2;
   0C6F 90s00r5F           2593 	mov	dptr,#(_map + 0x0017)
   0C72 74 02              2594 	mov	a,#0x02
   0C74 F0                 2595 	movx	@dptr,a
                           2596 ;	LCD.c:316: map[1][8].schar = 5;
   0C75 90s00r60           2597 	mov	dptr,#(_map + 0x0018)
   0C78 74 05              2598 	mov	a,#0x05
   0C7A F0                 2599 	movx	@dptr,a
                           2600 ;	LCD.c:317: map[1][9].schar = 6;
   0C7B 90s00r61           2601 	mov	dptr,#(_map + 0x0019)
   0C7E 74 06              2602 	mov	a,#0x06
   0C80 F0                 2603 	movx	@dptr,a
                           2604 ;	LCD.c:318: map[1][10].schar = 4;
   0C81 90s00r62           2605 	mov	dptr,#(_map + 0x001a)
   0C84 74 04              2606 	mov	a,#0x04
   0C86 F0                 2607 	movx	@dptr,a
                           2608 ;	LCD.c:319: map[1][11].schar = 6;
   0C87 90s00r63           2609 	mov	dptr,#(_map + 0x001b)
   0C8A 74 06              2610 	mov	a,#0x06
   0C8C F0                 2611 	movx	@dptr,a
                           2612 ;	LCD.c:320: map[1][12].schar = 3;
   0C8D 90s00r64           2613 	mov	dptr,#(_map + 0x001c)
   0C90 74 03              2614 	mov	a,#0x03
   0C92 F0                 2615 	movx	@dptr,a
                           2616 ;	LCD.c:321: map[1][13].schar = 6;
   0C93 90s00r65           2617 	mov	dptr,#(_map + 0x001d)
   0C96 74 06              2618 	mov	a,#0x06
   0C98 F0                 2619 	movx	@dptr,a
                           2620 ;	LCD.c:322: map[1][14].schar = 7;
   0C99 90s00r66           2621 	mov	dptr,#(_map + 0x001e)
   0C9C 74 07              2622 	mov	a,#0x07
   0C9E F0                 2623 	movx	@dptr,a
                           2624 ;	LCD.c:323: map[1][15].schar = 4;
   0C9F 90s00r67           2625 	mov	dptr,#(_map + 0x001f)
   0CA2 74 04              2626 	mov	a,#0x04
   0CA4 F0                 2627 	movx	@dptr,a
                           2628 ;	LCD.c:325: map[2][0].schar = 3;
   0CA5 90s00r68           2629 	mov	dptr,#(_map + 0x0020)
   0CA8 74 03              2630 	mov	a,#0x03
   0CAA F0                 2631 	movx	@dptr,a
                           2632 ;	LCD.c:326: map[2][1].schar = 6;
   0CAB 90s00r69           2633 	mov	dptr,#(_map + 0x0021)
   0CAE 74 06              2634 	mov	a,#0x06
   0CB0 F0                 2635 	movx	@dptr,a
                           2636 ;	LCD.c:327: map[2][2].schar = 2;
   0CB1 90s00r6A           2637 	mov	dptr,#(_map + 0x0022)
   0CB4 74 02              2638 	mov	a,#0x02
   0CB6 F0                 2639 	movx	@dptr,a
                           2640 ;	LCD.c:328: map[2][3].schar = 4;
   0CB7 90s00r6B           2641 	mov	dptr,#(_map + 0x0023)
   0CBA 74 04              2642 	mov	a,#0x04
   0CBC F0                 2643 	movx	@dptr,a
                           2644 ;	LCD.c:329: map[2][4].schar = 6;
   0CBD 90s00r6C           2645 	mov	dptr,#(_map + 0x0024)
   0CC0 74 06              2646 	mov	a,#0x06
   0CC2 F0                 2647 	movx	@dptr,a
                           2648 ;	LCD.c:330: map[2][5].schar = 5;
   0CC3 90s00r6D           2649 	mov	dptr,#(_map + 0x0025)
   0CC6 74 05              2650 	mov	a,#0x05
   0CC8 F0                 2651 	movx	@dptr,a
                           2652 ;	LCD.c:331: map[2][6].schar = 2;
   0CC9 90s00r6E           2653 	mov	dptr,#(_map + 0x0026)
   0CCC 74 02              2654 	mov	a,#0x02
   0CCE F0                 2655 	movx	@dptr,a
                           2656 ;	LCD.c:332: map[2][7].schar = 4;
   0CCF 90s00r6F           2657 	mov	dptr,#(_map + 0x0027)
   0CD2 74 04              2658 	mov	a,#0x04
   0CD4 F0                 2659 	movx	@dptr,a
                           2660 ;	LCD.c:333: map[2][8].schar = 5;
   0CD5 90s00r70           2661 	mov	dptr,#(_map + 0x0028)
   0CD8 74 05              2662 	mov	a,#0x05
   0CDA F0                 2663 	movx	@dptr,a
                           2664 ;	LCD.c:334: map[2][9].schar = 5;
   0CDB 90s00r71           2665 	mov	dptr,#(_map + 0x0029)
   0CDE 74 05              2666 	mov	a,#0x05
   0CE0 F0                 2667 	movx	@dptr,a
                           2668 ;	LCD.c:335: map[2][10].schar = 6;
   0CE1 90s00r72           2669 	mov	dptr,#(_map + 0x002a)
   0CE4 74 06              2670 	mov	a,#0x06
   0CE6 F0                 2671 	movx	@dptr,a
                           2672 ;	LCD.c:336: map[2][11].schar = 4;
   0CE7 90s00r73           2673 	mov	dptr,#(_map + 0x002b)
   0CEA 74 04              2674 	mov	a,#0x04
   0CEC F0                 2675 	movx	@dptr,a
                           2676 ;	LCD.c:337: map[2][12].schar = 2;
   0CED 90s00r74           2677 	mov	dptr,#(_map + 0x002c)
   0CF0 74 02              2678 	mov	a,#0x02
   0CF2 F0                 2679 	movx	@dptr,a
                           2680 ;	LCD.c:338: map[2][13].schar = 5;
   0CF3 90s00r75           2681 	mov	dptr,#(_map + 0x002d)
   0CF6 74 05              2682 	mov	a,#0x05
   0CF8 F0                 2683 	movx	@dptr,a
                           2684 ;	LCD.c:339: map[2][14].schar = 3;
   0CF9 90s00r76           2685 	mov	dptr,#(_map + 0x002e)
   0CFC 74 03              2686 	mov	a,#0x03
   0CFE F0                 2687 	movx	@dptr,a
                           2688 ;	LCD.c:340: map[2][15].schar = 7;
   0CFF 90s00r77           2689 	mov	dptr,#(_map + 0x002f)
   0D02 74 07              2690 	mov	a,#0x07
   0D04 F0                 2691 	movx	@dptr,a
                           2692 ;	LCD.c:342: map[3][0].schar = 7;
   0D05 90s00r78           2693 	mov	dptr,#(_map + 0x0030)
   0D08 74 07              2694 	mov	a,#0x07
   0D0A F0                 2695 	movx	@dptr,a
                           2696 ;	LCD.c:343: map[3][1].schar = 8;
   0D0B 90s00r79           2697 	mov	dptr,#(_map + 0x0031)
   0D0E 74 08              2698 	mov	a,#0x08
   0D10 F0                 2699 	movx	@dptr,a
                           2700 ;	LCD.c:344: map[3][2].schar = 4;
   0D11 90s00r7A           2701 	mov	dptr,#(_map + 0x0032)
   0D14 74 04              2702 	mov	a,#0x04
   0D16 F0                 2703 	movx	@dptr,a
                           2704 ;	LCD.c:345: map[3][3].schar = 3;
   0D17 90s00r7B           2705 	mov	dptr,#(_map + 0x0033)
   0D1A 74 03              2706 	mov	a,#0x03
   0D1C F0                 2707 	movx	@dptr,a
                           2708 ;	LCD.c:346: map[3][4].schar = 7;
   0D1D 90s00r7C           2709 	mov	dptr,#(_map + 0x0034)
   0D20 74 07              2710 	mov	a,#0x07
   0D22 F0                 2711 	movx	@dptr,a
                           2712 ;	LCD.c:347: map[3][5].schar = 8;
   0D23 90s00r7D           2713 	mov	dptr,#(_map + 0x0035)
   0D26 74 08              2714 	mov	a,#0x08
   0D28 F0                 2715 	movx	@dptr,a
                           2716 ;	LCD.c:348: map[3][6].schar = 8;
   0D29 90s00r7E           2717 	mov	dptr,#(_map + 0x0036)
   0D2C 74 08              2718 	mov	a,#0x08
   0D2E F0                 2719 	movx	@dptr,a
                           2720 ;	LCD.c:349: map[3][7].schar = 3;
   0D2F 90s00r7F           2721 	mov	dptr,#(_map + 0x0037)
   0D32 74 03              2722 	mov	a,#0x03
   0D34 F0                 2723 	movx	@dptr,a
                           2724 ;	LCD.c:350: map[3][8].schar = 6;
   0D35 90s00r80           2725 	mov	dptr,#(_map + 0x0038)
   0D38 74 06              2726 	mov	a,#0x06
   0D3A F0                 2727 	movx	@dptr,a
                           2728 ;	LCD.c:351: map[3][9].schar = 3;
   0D3B 90s00r81           2729 	mov	dptr,#(_map + 0x0039)
   0D3E 74 03              2730 	mov	a,#0x03
   0D40 F0                 2731 	movx	@dptr,a
                           2732 ;	LCD.c:352: map[3][10].schar = 7;
   0D41 90s00r82           2733 	mov	dptr,#(_map + 0x003a)
   0D44 74 07              2734 	mov	a,#0x07
   0D46 F0                 2735 	movx	@dptr,a
                           2736 ;	LCD.c:353: map[3][11].schar = 8;
   0D47 90s00r83           2737 	mov	dptr,#(_map + 0x003b)
   0D4A 74 08              2738 	mov	a,#0x08
   0D4C F0                 2739 	movx	@dptr,a
                           2740 ;	LCD.c:354: map[3][12].schar = 6;
   0D4D 90s00r84           2741 	mov	dptr,#(_map + 0x003c)
   0D50 74 06              2742 	mov	a,#0x06
   0D52 F0                 2743 	movx	@dptr,a
                           2744 ;	LCD.c:355: map[3][13].schar = 7;
   0D53 90s00r85           2745 	mov	dptr,#(_map + 0x003d)
   0D56 74 07              2746 	mov	a,#0x07
   0D58 F0                 2747 	movx	@dptr,a
                           2748 ;	LCD.c:356: map[3][14].schar = 2;
   0D59 90s00r86           2749 	mov	dptr,#(_map + 0x003e)
   0D5C 74 02              2750 	mov	a,#0x02
   0D5E F0                 2751 	movx	@dptr,a
                           2752 ;	LCD.c:357: map[3][15].schar = 7;
   0D5F 90s00r87           2753 	mov	dptr,#(_map + 0x003f)
   0D62 74 07              2754 	mov	a,#0x07
   0D64 F0                 2755 	movx	@dptr,a
                           2756 ;	LCD.c:359: printMap();
   0D65 02s00rB5           2757 	ljmp	_printMap
                           2758 ;------------------------------------------------------------
                           2759 ;Allocation info for local variables in function 'setMap4CGram'
                           2760 ;------------------------------------------------------------
                           2761 ;n                         Allocated with name '_setMap4CGram_n_1_1'
                           2762 ;m                         Allocated with name '_setMap4CGram_m_1_1'
                           2763 ;c0                        Allocated with name '_setMap4CGram_c0_1_1'
                           2764 ;c1                        Allocated with name '_setMap4CGram_c1_1_1'
                           2765 ;c2                        Allocated with name '_setMap4CGram_c2_1_1'
                           2766 ;c3                        Allocated with name '_setMap4CGram_c3_1_1'
                           2767 ;c4                        Allocated with name '_setMap4CGram_c4_1_1'
                           2768 ;c5                        Allocated with name '_setMap4CGram_c5_1_1'
                           2769 ;c6                        Allocated with name '_setMap4CGram_c6_1_1'
                           2770 ;c7                        Allocated with name '_setMap4CGram_c7_1_1'
                           2771 ;------------------------------------------------------------
                           2772 ;	LCD.c:363: void setMap4CGram(){
                           2773 ;	-----------------------------------------
                           2774 ;	 function setMap4CGram
                           2775 ;	-----------------------------------------
   0D68                    2776 _setMap4CGram:
                           2777 ;	LCD.c:366: unsigned char c0[] =  {0,0,0,0,0,0,0,0};
   0D68 90s01r53           2778 	mov	dptr,#_setMap4CGram_c0_1_1
   0D6B E4                 2779 	clr	a
   0D6C F0                 2780 	movx	@dptr,a
   0D6D 90s01r54           2781 	mov	dptr,#(_setMap4CGram_c0_1_1 + 0x0001)
   0D70 F0                 2782 	movx	@dptr,a
   0D71 90s01r55           2783 	mov	dptr,#(_setMap4CGram_c0_1_1 + 0x0002)
   0D74 F0                 2784 	movx	@dptr,a
   0D75 90s01r56           2785 	mov	dptr,#(_setMap4CGram_c0_1_1 + 0x0003)
   0D78 F0                 2786 	movx	@dptr,a
   0D79 90s01r57           2787 	mov	dptr,#(_setMap4CGram_c0_1_1 + 0x0004)
   0D7C E4                 2788 	clr	a
   0D7D F0                 2789 	movx	@dptr,a
   0D7E 90s01r58           2790 	mov	dptr,#(_setMap4CGram_c0_1_1 + 0x0005)
   0D81 F0                 2791 	movx	@dptr,a
   0D82 90s01r59           2792 	mov	dptr,#(_setMap4CGram_c0_1_1 + 0x0006)
   0D85 F0                 2793 	movx	@dptr,a
   0D86 90s01r5A           2794 	mov	dptr,#(_setMap4CGram_c0_1_1 + 0x0007)
   0D89 F0                 2795 	movx	@dptr,a
                           2796 ;	LCD.c:367: unsigned char c1[] =  {0x1F,0x19,0x15,0x11,0x14,0x15,0x12,0x1A};
   0D8A 90s01r5B           2797 	mov	dptr,#_setMap4CGram_c1_1_1
   0D8D 74 1F              2798 	mov	a,#0x1F
   0D8F F0                 2799 	movx	@dptr,a
   0D90 90s01r5C           2800 	mov	dptr,#(_setMap4CGram_c1_1_1 + 0x0001)
   0D93 74 19              2801 	mov	a,#0x19
   0D95 F0                 2802 	movx	@dptr,a
   0D96 90s01r5D           2803 	mov	dptr,#(_setMap4CGram_c1_1_1 + 0x0002)
   0D99 74 15              2804 	mov	a,#0x15
   0D9B F0                 2805 	movx	@dptr,a
   0D9C 90s01r5E           2806 	mov	dptr,#(_setMap4CGram_c1_1_1 + 0x0003)
   0D9F 74 11              2807 	mov	a,#0x11
   0DA1 F0                 2808 	movx	@dptr,a
   0DA2 90s01r5F           2809 	mov	dptr,#(_setMap4CGram_c1_1_1 + 0x0004)
   0DA5 74 14              2810 	mov	a,#0x14
   0DA7 F0                 2811 	movx	@dptr,a
   0DA8 90s01r60           2812 	mov	dptr,#(_setMap4CGram_c1_1_1 + 0x0005)
   0DAB 74 15              2813 	mov	a,#0x15
   0DAD F0                 2814 	movx	@dptr,a
   0DAE 90s01r61           2815 	mov	dptr,#(_setMap4CGram_c1_1_1 + 0x0006)
   0DB1 74 12              2816 	mov	a,#0x12
   0DB3 F0                 2817 	movx	@dptr,a
   0DB4 90s01r62           2818 	mov	dptr,#(_setMap4CGram_c1_1_1 + 0x0007)
   0DB7 74 1A              2819 	mov	a,#0x1A
   0DB9 F0                 2820 	movx	@dptr,a
                           2821 ;	LCD.c:368: unsigned char c2[] =  {0x1F,0x01,0x05,0x08,0x11,0x05,0x09,0x12};
   0DBA 90s01r63           2822 	mov	dptr,#_setMap4CGram_c2_1_1
   0DBD 74 1F              2823 	mov	a,#0x1F
   0DBF F0                 2824 	movx	@dptr,a
   0DC0 90s01r64           2825 	mov	dptr,#(_setMap4CGram_c2_1_1 + 0x0001)
   0DC3 74 01              2826 	mov	a,#0x01
   0DC5 F0                 2827 	movx	@dptr,a
   0DC6 90s01r65           2828 	mov	dptr,#(_setMap4CGram_c2_1_1 + 0x0002)
   0DC9 74 05              2829 	mov	a,#0x05
   0DCB F0                 2830 	movx	@dptr,a
   0DCC 90s01r66           2831 	mov	dptr,#(_setMap4CGram_c2_1_1 + 0x0003)
   0DCF 74 08              2832 	mov	a,#0x08
   0DD1 F0                 2833 	movx	@dptr,a
   0DD2 90s01r67           2834 	mov	dptr,#(_setMap4CGram_c2_1_1 + 0x0004)
   0DD5 74 11              2835 	mov	a,#0x11
   0DD7 F0                 2836 	movx	@dptr,a
   0DD8 90s01r68           2837 	mov	dptr,#(_setMap4CGram_c2_1_1 + 0x0005)
   0DDB 74 05              2838 	mov	a,#0x05
   0DDD F0                 2839 	movx	@dptr,a
   0DDE 90s01r69           2840 	mov	dptr,#(_setMap4CGram_c2_1_1 + 0x0006)
   0DE1 74 09              2841 	mov	a,#0x09
   0DE3 F0                 2842 	movx	@dptr,a
   0DE4 90s01r6A           2843 	mov	dptr,#(_setMap4CGram_c2_1_1 + 0x0007)
   0DE7 74 12              2844 	mov	a,#0x12
   0DE9 F0                 2845 	movx	@dptr,a
                           2846 ;	LCD.c:369: unsigned char c3[] =  {0x1B,0x11,0x00,0x1B,0x11,0x00,0x11,0x1B};
   0DEA 90s01r6B           2847 	mov	dptr,#_setMap4CGram_c3_1_1
   0DED 74 1B              2848 	mov	a,#0x1B
   0DEF F0                 2849 	movx	@dptr,a
   0DF0 90s01r6C           2850 	mov	dptr,#(_setMap4CGram_c3_1_1 + 0x0001)
   0DF3 74 11              2851 	mov	a,#0x11
   0DF5 F0                 2852 	movx	@dptr,a
   0DF6 90s01r6D           2853 	mov	dptr,#(_setMap4CGram_c3_1_1 + 0x0002)
   0DF9 E4                 2854 	clr	a
   0DFA F0                 2855 	movx	@dptr,a
   0DFB 90s01r6E           2856 	mov	dptr,#(_setMap4CGram_c3_1_1 + 0x0003)
   0DFE 74 1B              2857 	mov	a,#0x1B
   0E00 F0                 2858 	movx	@dptr,a
   0E01 90s01r6F           2859 	mov	dptr,#(_setMap4CGram_c3_1_1 + 0x0004)
   0E04 74 11              2860 	mov	a,#0x11
   0E06 F0                 2861 	movx	@dptr,a
   0E07 90s01r70           2862 	mov	dptr,#(_setMap4CGram_c3_1_1 + 0x0005)
   0E0A E4                 2863 	clr	a
   0E0B F0                 2864 	movx	@dptr,a
   0E0C 90s01r71           2865 	mov	dptr,#(_setMap4CGram_c3_1_1 + 0x0006)
   0E0F 74 11              2866 	mov	a,#0x11
   0E11 F0                 2867 	movx	@dptr,a
   0E12 90s01r72           2868 	mov	dptr,#(_setMap4CGram_c3_1_1 + 0x0007)
   0E15 74 1B              2869 	mov	a,#0x1B
   0E17 F0                 2870 	movx	@dptr,a
                           2871 ;	LCD.c:370: unsigned char c4[] =  {0x12,0x0A,0x09,0x04,0x19,0x03,0x19,0x0B};
   0E18 90s01r73           2872 	mov	dptr,#_setMap4CGram_c4_1_1
   0E1B 74 12              2873 	mov	a,#0x12
   0E1D F0                 2874 	movx	@dptr,a
   0E1E 90s01r74           2875 	mov	dptr,#(_setMap4CGram_c4_1_1 + 0x0001)
   0E21 74 0A              2876 	mov	a,#0x0A
   0E23 F0                 2877 	movx	@dptr,a
   0E24 90s01r75           2878 	mov	dptr,#(_setMap4CGram_c4_1_1 + 0x0002)
   0E27 74 09              2879 	mov	a,#0x09
   0E29 F0                 2880 	movx	@dptr,a
   0E2A 90s01r76           2881 	mov	dptr,#(_setMap4CGram_c4_1_1 + 0x0003)
   0E2D 74 04              2882 	mov	a,#0x04
   0E2F F0                 2883 	movx	@dptr,a
   0E30 90s01r77           2884 	mov	dptr,#(_setMap4CGram_c4_1_1 + 0x0004)
   0E33 74 19              2885 	mov	a,#0x19
   0E35 F0                 2886 	movx	@dptr,a
   0E36 90s01r78           2887 	mov	dptr,#(_setMap4CGram_c4_1_1 + 0x0005)
   0E39 74 03              2888 	mov	a,#0x03
   0E3B F0                 2889 	movx	@dptr,a
   0E3C 90s01r79           2890 	mov	dptr,#(_setMap4CGram_c4_1_1 + 0x0006)
   0E3F 74 19              2891 	mov	a,#0x19
   0E41 F0                 2892 	movx	@dptr,a
   0E42 90s01r7A           2893 	mov	dptr,#(_setMap4CGram_c4_1_1 + 0x0007)
   0E45 74 0B              2894 	mov	a,#0x0B
   0E47 F0                 2895 	movx	@dptr,a
                           2896 ;	LCD.c:371: unsigned char c5[] =  {0x12,0x16,0x13,0x18,0x12,0x16,0x13,0x1B};
   0E48 90s01r7B           2897 	mov	dptr,#_setMap4CGram_c5_1_1
   0E4B 74 12              2898 	mov	a,#0x12
   0E4D F0                 2899 	movx	@dptr,a
   0E4E 90s01r7C           2900 	mov	dptr,#(_setMap4CGram_c5_1_1 + 0x0001)
   0E51 74 16              2901 	mov	a,#0x16
   0E53 F0                 2902 	movx	@dptr,a
   0E54 90s01r7D           2903 	mov	dptr,#(_setMap4CGram_c5_1_1 + 0x0002)
   0E57 74 13              2904 	mov	a,#0x13
   0E59 F0                 2905 	movx	@dptr,a
   0E5A 90s01r7E           2906 	mov	dptr,#(_setMap4CGram_c5_1_1 + 0x0003)
   0E5D 74 18              2907 	mov	a,#0x18
   0E5F F0                 2908 	movx	@dptr,a
   0E60 90s01r7F           2909 	mov	dptr,#(_setMap4CGram_c5_1_1 + 0x0004)
   0E63 74 12              2910 	mov	a,#0x12
   0E65 F0                 2911 	movx	@dptr,a
   0E66 90s01r80           2912 	mov	dptr,#(_setMap4CGram_c5_1_1 + 0x0005)
   0E69 74 16              2913 	mov	a,#0x16
   0E6B F0                 2914 	movx	@dptr,a
   0E6C 90s01r81           2915 	mov	dptr,#(_setMap4CGram_c5_1_1 + 0x0006)
   0E6F 74 13              2916 	mov	a,#0x13
   0E71 F0                 2917 	movx	@dptr,a
   0E72 90s01r82           2918 	mov	dptr,#(_setMap4CGram_c5_1_1 + 0x0007)
   0E75 74 1B              2919 	mov	a,#0x1B
   0E77 F0                 2920 	movx	@dptr,a
                           2921 ;	LCD.c:372: unsigned char c6[] =  {0x1A,0x11,0x15,0x14,0x12,0x15,0x10,0x1F};
   0E78 90s01r83           2922 	mov	dptr,#_setMap4CGram_c6_1_1
   0E7B 74 1A              2923 	mov	a,#0x1A
   0E7D F0                 2924 	movx	@dptr,a
   0E7E 90s01r84           2925 	mov	dptr,#(_setMap4CGram_c6_1_1 + 0x0001)
   0E81 74 11              2926 	mov	a,#0x11
   0E83 F0                 2927 	movx	@dptr,a
   0E84 90s01r85           2928 	mov	dptr,#(_setMap4CGram_c6_1_1 + 0x0002)
   0E87 74 15              2929 	mov	a,#0x15
   0E89 F0                 2930 	movx	@dptr,a
   0E8A 90s01r86           2931 	mov	dptr,#(_setMap4CGram_c6_1_1 + 0x0003)
   0E8D 74 14              2932 	mov	a,#0x14
   0E8F F0                 2933 	movx	@dptr,a
   0E90 90s01r87           2934 	mov	dptr,#(_setMap4CGram_c6_1_1 + 0x0004)
   0E93 74 12              2935 	mov	a,#0x12
   0E95 F0                 2936 	movx	@dptr,a
   0E96 90s01r88           2937 	mov	dptr,#(_setMap4CGram_c6_1_1 + 0x0005)
   0E99 74 15              2938 	mov	a,#0x15
   0E9B F0                 2939 	movx	@dptr,a
   0E9C 90s01r89           2940 	mov	dptr,#(_setMap4CGram_c6_1_1 + 0x0006)
   0E9F 74 10              2941 	mov	a,#0x10
   0EA1 F0                 2942 	movx	@dptr,a
   0EA2 90s01r8A           2943 	mov	dptr,#(_setMap4CGram_c6_1_1 + 0x0007)
   0EA5 74 1F              2944 	mov	a,#0x1F
   0EA7 F0                 2945 	movx	@dptr,a
                           2946 ;	LCD.c:373: unsigned char c7[] =  {0x13,0x05,0x09,0x09,0x05,0x15,0x01,0x1F};
   0EA8 90s01r8B           2947 	mov	dptr,#_setMap4CGram_c7_1_1
   0EAB 74 13              2948 	mov	a,#0x13
   0EAD F0                 2949 	movx	@dptr,a
   0EAE 90s01r8C           2950 	mov	dptr,#(_setMap4CGram_c7_1_1 + 0x0001)
   0EB1 74 05              2951 	mov	a,#0x05
   0EB3 F0                 2952 	movx	@dptr,a
   0EB4 90s01r8D           2953 	mov	dptr,#(_setMap4CGram_c7_1_1 + 0x0002)
   0EB7 74 09              2954 	mov	a,#0x09
   0EB9 F0                 2955 	movx	@dptr,a
   0EBA 90s01r8E           2956 	mov	dptr,#(_setMap4CGram_c7_1_1 + 0x0003)
   0EBD 74 09              2957 	mov	a,#0x09
   0EBF F0                 2958 	movx	@dptr,a
   0EC0 90s01r8F           2959 	mov	dptr,#(_setMap4CGram_c7_1_1 + 0x0004)
   0EC3 74 05              2960 	mov	a,#0x05
   0EC5 F0                 2961 	movx	@dptr,a
   0EC6 90s01r90           2962 	mov	dptr,#(_setMap4CGram_c7_1_1 + 0x0005)
   0EC9 74 15              2963 	mov	a,#0x15
   0ECB F0                 2964 	movx	@dptr,a
   0ECC 90s01r91           2965 	mov	dptr,#(_setMap4CGram_c7_1_1 + 0x0006)
   0ECF 74 01              2966 	mov	a,#0x01
   0ED1 F0                 2967 	movx	@dptr,a
   0ED2 90s01r92           2968 	mov	dptr,#(_setMap4CGram_c7_1_1 + 0x0007)
   0ED5 74 1F              2969 	mov	a,#0x1F
   0ED7 F0                 2970 	movx	@dptr,a
                           2971 ;	LCD.c:375: for(n = 0; n < 8 ;n++){
   0ED8 7A 00              2972 	mov	r2,#0x00
   0EDA                    2973 00101$:
   0EDA BA 08 00           2974 	cjne	r2,#0x08,00124$
   0EDD                    2975 00124$:
   0EDD 40 03              2976 	jc	00125$
   0EDF 02s0FrA7           2977 	ljmp	00104$
   0EE2                    2978 00125$:
                           2979 ;	LCD.c:376: SCmap[0].adds[n] = c0[n];
   0EE2 EA                 2980 	mov	a,r2
   0EE3 24r08              2981 	add	a,#_SCmap
   0EE5 FB                 2982 	mov	r3,a
   0EE6 E4                 2983 	clr	a
   0EE7 34s00              2984 	addc	a,#(_SCmap >> 8)
   0EE9 FC                 2985 	mov	r4,a
   0EEA EA                 2986 	mov	a,r2
   0EEB 24r53              2987 	add	a,#_setMap4CGram_c0_1_1
   0EED F5 82              2988 	mov	dpl,a
   0EEF E4                 2989 	clr	a
   0EF0 34s01              2990 	addc	a,#(_setMap4CGram_c0_1_1 >> 8)
   0EF2 F5 83              2991 	mov	dph,a
   0EF4 E0                 2992 	movx	a,@dptr
   0EF5 8B 82              2993 	mov	dpl,r3
   0EF7 8C 83              2994 	mov	dph,r4
   0EF9 F0                 2995 	movx	@dptr,a
                           2996 ;	LCD.c:377: SCmap[1].adds[n] = c1[n];
   0EFA EA                 2997 	mov	a,r2
   0EFB 24r10              2998 	add	a,#(_SCmap + 0x0008)
   0EFD FB                 2999 	mov	r3,a
   0EFE E4                 3000 	clr	a
   0EFF 34s00              3001 	addc	a,#((_SCmap + 0x0008) >> 8)
   0F01 FC                 3002 	mov	r4,a
   0F02 EA                 3003 	mov	a,r2
   0F03 24r5B              3004 	add	a,#_setMap4CGram_c1_1_1
   0F05 F5 82              3005 	mov	dpl,a
   0F07 E4                 3006 	clr	a
   0F08 34s01              3007 	addc	a,#(_setMap4CGram_c1_1_1 >> 8)
   0F0A F5 83              3008 	mov	dph,a
   0F0C E0                 3009 	movx	a,@dptr
   0F0D 8B 82              3010 	mov	dpl,r3
   0F0F 8C 83              3011 	mov	dph,r4
   0F11 F0                 3012 	movx	@dptr,a
                           3013 ;	LCD.c:378: SCmap[2].adds[n] = c2[n];
   0F12 EA                 3014 	mov	a,r2
   0F13 24r18              3015 	add	a,#(_SCmap + 0x0010)
   0F15 FB                 3016 	mov	r3,a
   0F16 E4                 3017 	clr	a
   0F17 34s00              3018 	addc	a,#((_SCmap + 0x0010) >> 8)
   0F19 FC                 3019 	mov	r4,a
   0F1A EA                 3020 	mov	a,r2
   0F1B 24r63              3021 	add	a,#_setMap4CGram_c2_1_1
   0F1D F5 82              3022 	mov	dpl,a
   0F1F E4                 3023 	clr	a
   0F20 34s01              3024 	addc	a,#(_setMap4CGram_c2_1_1 >> 8)
   0F22 F5 83              3025 	mov	dph,a
   0F24 E0                 3026 	movx	a,@dptr
   0F25 8B 82              3027 	mov	dpl,r3
   0F27 8C 83              3028 	mov	dph,r4
   0F29 F0                 3029 	movx	@dptr,a
                           3030 ;	LCD.c:379: SCmap[3].adds[n] = c3[n];
   0F2A EA                 3031 	mov	a,r2
   0F2B 24r20              3032 	add	a,#(_SCmap + 0x0018)
   0F2D FB                 3033 	mov	r3,a
   0F2E E4                 3034 	clr	a
   0F2F 34s00              3035 	addc	a,#((_SCmap + 0x0018) >> 8)
   0F31 FC                 3036 	mov	r4,a
   0F32 EA                 3037 	mov	a,r2
   0F33 24r6B              3038 	add	a,#_setMap4CGram_c3_1_1
   0F35 F5 82              3039 	mov	dpl,a
   0F37 E4                 3040 	clr	a
   0F38 34s01              3041 	addc	a,#(_setMap4CGram_c3_1_1 >> 8)
   0F3A F5 83              3042 	mov	dph,a
   0F3C E0                 3043 	movx	a,@dptr
   0F3D 8B 82              3044 	mov	dpl,r3
   0F3F 8C 83              3045 	mov	dph,r4
   0F41 F0                 3046 	movx	@dptr,a
                           3047 ;	LCD.c:380: SCmap[4].adds[n] = c4[n];
   0F42 EA                 3048 	mov	a,r2
   0F43 24r28              3049 	add	a,#(_SCmap + 0x0020)
   0F45 FB                 3050 	mov	r3,a
   0F46 E4                 3051 	clr	a
   0F47 34s00              3052 	addc	a,#((_SCmap + 0x0020) >> 8)
   0F49 FC                 3053 	mov	r4,a
   0F4A EA                 3054 	mov	a,r2
   0F4B 24r73              3055 	add	a,#_setMap4CGram_c4_1_1
   0F4D F5 82              3056 	mov	dpl,a
   0F4F E4                 3057 	clr	a
   0F50 34s01              3058 	addc	a,#(_setMap4CGram_c4_1_1 >> 8)
   0F52 F5 83              3059 	mov	dph,a
   0F54 E0                 3060 	movx	a,@dptr
   0F55 8B 82              3061 	mov	dpl,r3
   0F57 8C 83              3062 	mov	dph,r4
   0F59 F0                 3063 	movx	@dptr,a
                           3064 ;	LCD.c:381: SCmap[5].adds[n] = c5[n];
   0F5A EA                 3065 	mov	a,r2
   0F5B 24r30              3066 	add	a,#(_SCmap + 0x0028)
   0F5D FB                 3067 	mov	r3,a
   0F5E E4                 3068 	clr	a
   0F5F 34s00              3069 	addc	a,#((_SCmap + 0x0028) >> 8)
   0F61 FC                 3070 	mov	r4,a
   0F62 EA                 3071 	mov	a,r2
   0F63 24r7B              3072 	add	a,#_setMap4CGram_c5_1_1
   0F65 F5 82              3073 	mov	dpl,a
   0F67 E4                 3074 	clr	a
   0F68 34s01              3075 	addc	a,#(_setMap4CGram_c5_1_1 >> 8)
   0F6A F5 83              3076 	mov	dph,a
   0F6C E0                 3077 	movx	a,@dptr
   0F6D 8B 82              3078 	mov	dpl,r3
   0F6F 8C 83              3079 	mov	dph,r4
   0F71 F0                 3080 	movx	@dptr,a
                           3081 ;	LCD.c:382: SCmap[6].adds[n] = c6[n];
   0F72 EA                 3082 	mov	a,r2
   0F73 24r38              3083 	add	a,#(_SCmap + 0x0030)
   0F75 FB                 3084 	mov	r3,a
   0F76 E4                 3085 	clr	a
   0F77 34s00              3086 	addc	a,#((_SCmap + 0x0030) >> 8)
   0F79 FC                 3087 	mov	r4,a
   0F7A EA                 3088 	mov	a,r2
   0F7B 24r83              3089 	add	a,#_setMap4CGram_c6_1_1
   0F7D F5 82              3090 	mov	dpl,a
   0F7F E4                 3091 	clr	a
   0F80 34s01              3092 	addc	a,#(_setMap4CGram_c6_1_1 >> 8)
   0F82 F5 83              3093 	mov	dph,a
   0F84 E0                 3094 	movx	a,@dptr
   0F85 8B 82              3095 	mov	dpl,r3
   0F87 8C 83              3096 	mov	dph,r4
   0F89 F0                 3097 	movx	@dptr,a
                           3098 ;	LCD.c:383: SCmap[7].adds[n] = c7[n];
   0F8A EA                 3099 	mov	a,r2
   0F8B 24r40              3100 	add	a,#(_SCmap + 0x0038)
   0F8D FB                 3101 	mov	r3,a
   0F8E E4                 3102 	clr	a
   0F8F 34s00              3103 	addc	a,#((_SCmap + 0x0038) >> 8)
   0F91 FC                 3104 	mov	r4,a
   0F92 EA                 3105 	mov	a,r2
   0F93 24r8B              3106 	add	a,#_setMap4CGram_c7_1_1
   0F95 F5 82              3107 	mov	dpl,a
   0F97 E4                 3108 	clr	a
   0F98 34s01              3109 	addc	a,#(_setMap4CGram_c7_1_1 >> 8)
   0F9A F5 83              3110 	mov	dph,a
   0F9C E0                 3111 	movx	a,@dptr
   0F9D FD                 3112 	mov	r5,a
   0F9E 8B 82              3113 	mov	dpl,r3
   0FA0 8C 83              3114 	mov	dph,r4
   0FA2 F0                 3115 	movx	@dptr,a
                           3116 ;	LCD.c:375: for(n = 0; n < 8 ;n++){
   0FA3 0A                 3117 	inc	r2
   0FA4 02s0ErDA           3118 	ljmp	00101$
   0FA7                    3119 00104$:
                           3120 ;	LCD.c:386: winstLCD = setCgramAddress;    				 // Atribuindo primeiro endereo da CGRAM
   0FA7 90 FF C2           3121 	mov	dptr,#_winstLCD
   0FAA 74 40              3122 	mov	a,#0x40
   0FAC F0                 3123 	movx	@dptr,a
                           3124 ;	LCD.c:387: delay(10,0);
   0FAD 90s00r00           3125 	mov	dptr,#_delay_PARM_2
   0FB0 E4                 3126 	clr	a
   0FB1 F0                 3127 	movx	@dptr,a
   0FB2 90 00 0A           3128 	mov	dptr,#0x000A
   0FB5 12s00r00           3129 	lcall	_delay
                           3130 ;	LCD.c:389: for(m = 0;m< 8; m++){
   0FB8 7A 00              3131 	mov	r2,#0x00
   0FBA                    3132 00109$:
   0FBA BA 08 00           3133 	cjne	r2,#0x08,00126$
   0FBD                    3134 00126$:
   0FBD 50 3F              3135 	jnc	00112$
                           3136 ;	LCD.c:390: for(n = 0; n < 8 ;n++){
   0FBF EA                 3137 	mov	a,r2
   0FC0 C4                 3138 	swap	a
   0FC1 03                 3139 	rr	a
   0FC2 54 F8              3140 	anl	a,#0xf8
   0FC4 FB                 3141 	mov	r3,a
   0FC5 7C 00              3142 	mov	r4,#0x00
   0FC7                    3143 00105$:
   0FC7 BC 08 00           3144 	cjne	r4,#0x08,00128$
   0FCA                    3145 00128$:
   0FCA 50 2F              3146 	jnc	00111$
                           3147 ;	LCD.c:391: wdataLCD = SCmap[m].adds[n];                // Atribuindo escrita
   0FCC EB                 3148 	mov	a,r3
   0FCD 24r08              3149 	add	a,#_SCmap
   0FCF FD                 3150 	mov	r5,a
   0FD0 E4                 3151 	clr	a
   0FD1 34s00              3152 	addc	a,#(_SCmap >> 8)
   0FD3 FE                 3153 	mov	r6,a
   0FD4 EC                 3154 	mov	a,r4
   0FD5 2D                 3155 	add	a,r5
   0FD6 F5 82              3156 	mov	dpl,a
   0FD8 E4                 3157 	clr	a
   0FD9 3E                 3158 	addc	a,r6
   0FDA F5 83              3159 	mov	dph,a
   0FDC E0                 3160 	movx	a,@dptr
   0FDD 90 FF D2           3161 	mov	dptr,#_wdataLCD
   0FE0 F0                 3162 	movx	@dptr,a
                           3163 ;	LCD.c:392: delay(10,0);
   0FE1 90s00r00           3164 	mov	dptr,#_delay_PARM_2
   0FE4 E4                 3165 	clr	a
   0FE5 F0                 3166 	movx	@dptr,a
   0FE6 90 00 0A           3167 	mov	dptr,#0x000A
   0FE9 C0 02              3168 	push	ar2
   0FEB C0 03              3169 	push	ar3
   0FED C0 04              3170 	push	ar4
   0FEF 12s00r00           3171 	lcall	_delay
   0FF2 D0 04              3172 	pop	ar4
   0FF4 D0 03              3173 	pop	ar3
   0FF6 D0 02              3174 	pop	ar2
                           3175 ;	LCD.c:390: for(n = 0; n < 8 ;n++){
   0FF8 0C                 3176 	inc	r4
   0FF9 80 CC              3177 	sjmp	00105$
   0FFB                    3178 00111$:
                           3179 ;	LCD.c:389: for(m = 0;m< 8; m++){
   0FFB 0A                 3180 	inc	r2
   0FFC 80 BC              3181 	sjmp	00109$
   0FFE                    3182 00112$:
                           3183 ;	LCD.c:396: map[0][0].schar = 2;
   0FFE 90s00r48           3184 	mov	dptr,#_map
   1001 74 02              3185 	mov	a,#0x02
   1003 F0                 3186 	movx	@dptr,a
                           3187 ;	LCD.c:397: map[0][1].schar = 8;
   1004 90s00r49           3188 	mov	dptr,#(_map + 0x0001)
   1007 74 08              3189 	mov	a,#0x08
   1009 F0                 3190 	movx	@dptr,a
                           3191 ;	LCD.c:398: map[0][2].schar = 3;
   100A 90s00r4A           3192 	mov	dptr,#(_map + 0x0002)
   100D 74 03              3193 	mov	a,#0x03
   100F F0                 3194 	movx	@dptr,a
                           3195 ;	LCD.c:399: map[0][3].schar = 2;
   1010 90s00r4B           3196 	mov	dptr,#(_map + 0x0003)
   1013 74 02              3197 	mov	a,#0x02
   1015 F0                 3198 	movx	@dptr,a
                           3199 ;	LCD.c:400: map[0][4].schar = 3;
   1016 90s00r4C           3200 	mov	dptr,#(_map + 0x0004)
   1019 74 03              3201 	mov	a,#0x03
   101B F0                 3202 	movx	@dptr,a
                           3203 ;	LCD.c:401: map[0][5].schar = 3;
   101C 90s00r4D           3204 	mov	dptr,#(_map + 0x0005)
   101F 74 03              3205 	mov	a,#0x03
   1021 F0                 3206 	movx	@dptr,a
                           3207 ;	LCD.c:402: map[0][6].schar = 2;
   1022 90s00r4E           3208 	mov	dptr,#(_map + 0x0006)
   1025 74 02              3209 	mov	a,#0x02
   1027 F0                 3210 	movx	@dptr,a
                           3211 ;	LCD.c:403: map[0][7].schar = 7;
   1028 90s00r4F           3212 	mov	dptr,#(_map + 0x0007)
   102B 74 07              3213 	mov	a,#0x07
   102D F0                 3214 	movx	@dptr,a
                           3215 ;	LCD.c:404: map[0][8].schar = 7;
   102E 90s00r50           3216 	mov	dptr,#(_map + 0x0008)
   1031 74 07              3217 	mov	a,#0x07
   1033 F0                 3218 	movx	@dptr,a
                           3219 ;	LCD.c:405: map[0][9].schar = 2;
   1034 90s00r51           3220 	mov	dptr,#(_map + 0x0009)
   1037 74 02              3221 	mov	a,#0x02
   1039 F0                 3222 	movx	@dptr,a
                           3223 ;	LCD.c:406: map[0][10].schar = 7;
   103A 90s00r52           3224 	mov	dptr,#(_map + 0x000a)
   103D 74 07              3225 	mov	a,#0x07
   103F F0                 3226 	movx	@dptr,a
                           3227 ;	LCD.c:407: map[0][11].schar = 8;
   1040 90s00r53           3228 	mov	dptr,#(_map + 0x000b)
   1043 74 08              3229 	mov	a,#0x08
   1045 F0                 3230 	movx	@dptr,a
                           3231 ;	LCD.c:408: map[0][12].schar = 8;
   1046 90s00r54           3232 	mov	dptr,#(_map + 0x000c)
   1049 74 08              3233 	mov	a,#0x08
   104B F0                 3234 	movx	@dptr,a
                           3235 ;	LCD.c:409: map[0][13].schar = 4;
   104C 90s00r55           3236 	mov	dptr,#(_map + 0x000d)
   104F 74 04              3237 	mov	a,#0x04
   1051 F0                 3238 	movx	@dptr,a
                           3239 ;	LCD.c:410: map[0][14].schar = 8;
   1052 90s00r56           3240 	mov	dptr,#(_map + 0x000e)
   1055 74 08              3241 	mov	a,#0x08
   1057 F0                 3242 	movx	@dptr,a
                           3243 ;	LCD.c:411: map[0][15].schar = 2;
   1058 90s00r57           3244 	mov	dptr,#(_map + 0x000f)
   105B 74 02              3245 	mov	a,#0x02
   105D F0                 3246 	movx	@dptr,a
                           3247 ;	LCD.c:413: map[1][0].schar = 6;
   105E 90s00r58           3248 	mov	dptr,#(_map + 0x0010)
   1061 74 06              3249 	mov	a,#0x06
   1063 F0                 3250 	movx	@dptr,a
                           3251 ;	LCD.c:414: map[1][1].schar = 5;
   1064 90s00r59           3252 	mov	dptr,#(_map + 0x0011)
   1067 74 05              3253 	mov	a,#0x05
   1069 F0                 3254 	movx	@dptr,a
                           3255 ;	LCD.c:415: map[1][2].schar = 6;
   106A 90s00r5A           3256 	mov	dptr,#(_map + 0x0012)
   106D 74 06              3257 	mov	a,#0x06
   106F F0                 3258 	movx	@dptr,a
                           3259 ;	LCD.c:416: map[1][3].schar = 4;
   1070 90s00r5B           3260 	mov	dptr,#(_map + 0x0013)
   1073 74 04              3261 	mov	a,#0x04
   1075 F0                 3262 	movx	@dptr,a
                           3263 ;	LCD.c:417: map[1][4].schar = 5;
   1076 90s00r5C           3264 	mov	dptr,#(_map + 0x0014)
   1079 74 05              3265 	mov	a,#0x05
   107B F0                 3266 	movx	@dptr,a
                           3267 ;	LCD.c:418: map[1][5].schar = 4;
   107C 90s00r5D           3268 	mov	dptr,#(_map + 0x0015)
   107F 74 04              3269 	mov	a,#0x04
   1081 F0                 3270 	movx	@dptr,a
                           3271 ;	LCD.c:419: map[1][6].schar = 4;
   1082 90s00r5E           3272 	mov	dptr,#(_map + 0x0016)
   1085 74 04              3273 	mov	a,#0x04
   1087 F0                 3274 	movx	@dptr,a
                           3275 ;	LCD.c:420: map[1][7].schar = 4;
   1088 90s00r5F           3276 	mov	dptr,#(_map + 0x0017)
   108B 74 04              3277 	mov	a,#0x04
   108D F0                 3278 	movx	@dptr,a
                           3279 ;	LCD.c:421: map[1][8].schar = 3;
   108E 90s00r60           3280 	mov	dptr,#(_map + 0x0018)
   1091 74 03              3281 	mov	a,#0x03
   1093 F0                 3282 	movx	@dptr,a
                           3283 ;	LCD.c:422: map[1][9].schar = 6;
   1094 90s00r61           3284 	mov	dptr,#(_map + 0x0019)
   1097 74 06              3285 	mov	a,#0x06
   1099 F0                 3286 	movx	@dptr,a
                           3287 ;	LCD.c:423: map[1][10].schar = 4;
   109A 90s00r62           3288 	mov	dptr,#(_map + 0x001a)
   109D 74 04              3289 	mov	a,#0x04
   109F F0                 3290 	movx	@dptr,a
                           3291 ;	LCD.c:424: map[1][11].schar = 6;
   10A0 90s00r63           3292 	mov	dptr,#(_map + 0x001b)
   10A3 74 06              3293 	mov	a,#0x06
   10A5 F0                 3294 	movx	@dptr,a
                           3295 ;	LCD.c:425: map[1][12].schar = 5;
   10A6 90s00r64           3296 	mov	dptr,#(_map + 0x001c)
   10A9 74 05              3297 	mov	a,#0x05
   10AB F0                 3298 	movx	@dptr,a
                           3299 ;	LCD.c:426: map[1][13].schar = 3;
   10AC 90s00r65           3300 	mov	dptr,#(_map + 0x001d)
   10AF 74 03              3301 	mov	a,#0x03
   10B1 F0                 3302 	movx	@dptr,a
                           3303 ;	LCD.c:427: map[1][14].schar = 4;
   10B2 90s00r66           3304 	mov	dptr,#(_map + 0x001e)
   10B5 74 04              3305 	mov	a,#0x04
   10B7 F0                 3306 	movx	@dptr,a
                           3307 ;	LCD.c:428: map[1][15].schar = 7;
   10B8 90s00r67           3308 	mov	dptr,#(_map + 0x001f)
   10BB 74 07              3309 	mov	a,#0x07
   10BD F0                 3310 	movx	@dptr,a
                           3311 ;	LCD.c:430: map[2][0].schar = 6;
   10BE 90s00r68           3312 	mov	dptr,#(_map + 0x0020)
   10C1 74 06              3313 	mov	a,#0x06
   10C3 F0                 3314 	movx	@dptr,a
                           3315 ;	LCD.c:431: map[2][1].schar = 4;
   10C4 90s00r69           3316 	mov	dptr,#(_map + 0x0021)
   10C7 74 04              3317 	mov	a,#0x04
   10C9 F0                 3318 	movx	@dptr,a
                           3319 ;	LCD.c:432: map[2][2].schar = 5;
   10CA 90s00r6A           3320 	mov	dptr,#(_map + 0x0022)
   10CD 74 05              3321 	mov	a,#0x05
   10CF F0                 3322 	movx	@dptr,a
                           3323 ;	LCD.c:433: map[2][3].schar = 6;
   10D0 90s00r6B           3324 	mov	dptr,#(_map + 0x0023)
   10D3 74 06              3325 	mov	a,#0x06
   10D5 F0                 3326 	movx	@dptr,a
                           3327 ;	LCD.c:434: map[2][4].schar = 4;
   10D6 90s00r6C           3328 	mov	dptr,#(_map + 0x0024)
   10D9 74 04              3329 	mov	a,#0x04
   10DB F0                 3330 	movx	@dptr,a
                           3331 ;	LCD.c:435: map[2][5].schar = 5;
   10DC 90s00r6D           3332 	mov	dptr,#(_map + 0x0025)
   10DF 74 05              3333 	mov	a,#0x05
   10E1 F0                 3334 	movx	@dptr,a
                           3335 ;	LCD.c:436: map[2][6].schar = 5;
   10E2 90s00r6E           3336 	mov	dptr,#(_map + 0x0026)
   10E5 74 05              3337 	mov	a,#0x05
   10E7 F0                 3338 	movx	@dptr,a
                           3339 ;	LCD.c:437: map[2][7].schar = 7;
   10E8 90s00r6F           3340 	mov	dptr,#(_map + 0x0027)
   10EB 74 07              3341 	mov	a,#0x07
   10ED F0                 3342 	movx	@dptr,a
                           3343 ;	LCD.c:438: map[2][8].schar = 6;
   10EE 90s00r70           3344 	mov	dptr,#(_map + 0x0028)
   10F1 74 06              3345 	mov	a,#0x06
   10F3 F0                 3346 	movx	@dptr,a
                           3347 ;	LCD.c:439: map[2][9].schar = 4;
   10F4 90s00r71           3348 	mov	dptr,#(_map + 0x0029)
   10F7 74 04              3349 	mov	a,#0x04
   10F9 F0                 3350 	movx	@dptr,a
                           3351 ;	LCD.c:440: map[2][10].schar = 6;
   10FA 90s00r72           3352 	mov	dptr,#(_map + 0x002a)
   10FD 74 06              3353 	mov	a,#0x06
   10FF F0                 3354 	movx	@dptr,a
                           3355 ;	LCD.c:441: map[2][11].schar = 4;
   1100 90s00r73           3356 	mov	dptr,#(_map + 0x002b)
   1103 74 04              3357 	mov	a,#0x04
   1105 F0                 3358 	movx	@dptr,a
                           3359 ;	LCD.c:442: map[2][12].schar = 3;
   1106 90s00r74           3360 	mov	dptr,#(_map + 0x002c)
   1109 74 03              3361 	mov	a,#0x03
   110B F0                 3362 	movx	@dptr,a
                           3363 ;	LCD.c:443: map[2][13].schar = 5;
   110C 90s00r75           3364 	mov	dptr,#(_map + 0x002d)
   110F 74 05              3365 	mov	a,#0x05
   1111 F0                 3366 	movx	@dptr,a
                           3367 ;	LCD.c:444: map[2][14].schar = 3;
   1112 90s00r76           3368 	mov	dptr,#(_map + 0x002e)
   1115 74 03              3369 	mov	a,#0x03
   1117 F0                 3370 	movx	@dptr,a
                           3371 ;	LCD.c:445: map[2][15].schar = 8;
   1118 90s00r77           3372 	mov	dptr,#(_map + 0x002f)
   111B 74 08              3373 	mov	a,#0x08
   111D F0                 3374 	movx	@dptr,a
                           3375 ;	LCD.c:447: map[3][0].schar = 7;
   111E 90s00r78           3376 	mov	dptr,#(_map + 0x0030)
   1121 74 07              3377 	mov	a,#0x07
   1123 F0                 3378 	movx	@dptr,a
                           3379 ;	LCD.c:448: map[3][1].schar = 6;
   1124 90s00r79           3380 	mov	dptr,#(_map + 0x0031)
   1127 74 06              3381 	mov	a,#0x06
   1129 F0                 3382 	movx	@dptr,a
                           3383 ;	LCD.c:449: map[3][2].schar = 7;
   112A 90s00r7A           3384 	mov	dptr,#(_map + 0x0032)
   112D 74 07              3385 	mov	a,#0x07
   112F F0                 3386 	movx	@dptr,a
                           3387 ;	LCD.c:450: map[3][3].schar = 3;
   1130 90s00r7B           3388 	mov	dptr,#(_map + 0x0033)
   1133 74 03              3389 	mov	a,#0x03
   1135 F0                 3390 	movx	@dptr,a
                           3391 ;	LCD.c:451: map[3][4].schar = 5;
   1136 90s00r7C           3392 	mov	dptr,#(_map + 0x0034)
   1139 74 05              3393 	mov	a,#0x05
   113B F0                 3394 	movx	@dptr,a
                           3395 ;	LCD.c:452: map[3][5].schar = 8;
   113C 90s00r7D           3396 	mov	dptr,#(_map + 0x0035)
   113F 74 08              3397 	mov	a,#0x08
   1141 F0                 3398 	movx	@dptr,a
                           3399 ;	LCD.c:453: map[3][6].schar = 7;
   1142 90s00r7E           3400 	mov	dptr,#(_map + 0x0036)
   1145 74 07              3401 	mov	a,#0x07
   1147 F0                 3402 	movx	@dptr,a
                           3403 ;	LCD.c:454: map[3][7].schar = 7;
   1148 90s00r7F           3404 	mov	dptr,#(_map + 0x0037)
   114B 74 07              3405 	mov	a,#0x07
   114D F0                 3406 	movx	@dptr,a
                           3407 ;	LCD.c:455: map[3][8].schar = 8;
   114E 90s00r80           3408 	mov	dptr,#(_map + 0x0038)
   1151 74 08              3409 	mov	a,#0x08
   1153 F0                 3410 	movx	@dptr,a
                           3411 ;	LCD.c:456: map[3][9].schar = 6;
   1154 90s00r81           3412 	mov	dptr,#(_map + 0x0039)
   1157 74 06              3413 	mov	a,#0x06
   1159 F0                 3414 	movx	@dptr,a
                           3415 ;	LCD.c:457: map[3][10].schar = 7;
   115A 90s00r82           3416 	mov	dptr,#(_map + 0x003a)
   115D 74 07              3417 	mov	a,#0x07
   115F F0                 3418 	movx	@dptr,a
                           3419 ;	LCD.c:458: map[3][11].schar = 8;
   1160 90s00r83           3420 	mov	dptr,#(_map + 0x003b)
   1163 74 08              3421 	mov	a,#0x08
   1165 F0                 3422 	movx	@dptr,a
                           3423 ;	LCD.c:459: map[3][12].schar = 6;
   1166 90s00r84           3424 	mov	dptr,#(_map + 0x003c)
   1169 74 06              3425 	mov	a,#0x06
   116B F0                 3426 	movx	@dptr,a
                           3427 ;	LCD.c:460: map[3][13].schar = 7;
   116C 90s00r85           3428 	mov	dptr,#(_map + 0x003d)
   116F 74 07              3429 	mov	a,#0x07
   1171 F0                 3430 	movx	@dptr,a
                           3431 ;	LCD.c:461: map[3][14].schar = 5;
   1172 90s00r86           3432 	mov	dptr,#(_map + 0x003e)
   1175 74 05              3433 	mov	a,#0x05
   1177 F0                 3434 	movx	@dptr,a
                           3435 ;	LCD.c:462: map[3][15].schar = 8;
   1178 90s00r87           3436 	mov	dptr,#(_map + 0x003f)
   117B 74 08              3437 	mov	a,#0x08
   117D F0                 3438 	movx	@dptr,a
                           3439 ;	LCD.c:464: printMap();
   117E 02s00rB5           3440 	ljmp	_printMap
                           3441 ;------------------------------------------------------------
                           3442 ;Allocation info for local variables in function 'setMap5CGram'
                           3443 ;------------------------------------------------------------
                           3444 ;n                         Allocated with name '_setMap5CGram_n_1_1'
                           3445 ;m                         Allocated with name '_setMap5CGram_m_1_1'
                           3446 ;c0                        Allocated with name '_setMap5CGram_c0_1_1'
                           3447 ;c1                        Allocated with name '_setMap5CGram_c1_1_1'
                           3448 ;c2                        Allocated with name '_setMap5CGram_c2_1_1'
                           3449 ;c3                        Allocated with name '_setMap5CGram_c3_1_1'
                           3450 ;c4                        Allocated with name '_setMap5CGram_c4_1_1'
                           3451 ;c5                        Allocated with name '_setMap5CGram_c5_1_1'
                           3452 ;c6                        Allocated with name '_setMap5CGram_c6_1_1'
                           3453 ;c7                        Allocated with name '_setMap5CGram_c7_1_1'
                           3454 ;------------------------------------------------------------
                           3455 ;	LCD.c:468: void setMap5CGram(){
                           3456 ;	-----------------------------------------
                           3457 ;	 function setMap5CGram
                           3458 ;	-----------------------------------------
   1181                    3459 _setMap5CGram:
                           3460 ;	LCD.c:471: unsigned char c0[] =  {0,0,0,0,0,0,0,0};
   1181 90s01r93           3461 	mov	dptr,#_setMap5CGram_c0_1_1
   1184 E4                 3462 	clr	a
   1185 F0                 3463 	movx	@dptr,a
   1186 90s01r94           3464 	mov	dptr,#(_setMap5CGram_c0_1_1 + 0x0001)
   1189 F0                 3465 	movx	@dptr,a
   118A 90s01r95           3466 	mov	dptr,#(_setMap5CGram_c0_1_1 + 0x0002)
   118D F0                 3467 	movx	@dptr,a
   118E 90s01r96           3468 	mov	dptr,#(_setMap5CGram_c0_1_1 + 0x0003)
   1191 F0                 3469 	movx	@dptr,a
   1192 90s01r97           3470 	mov	dptr,#(_setMap5CGram_c0_1_1 + 0x0004)
   1195 E4                 3471 	clr	a
   1196 F0                 3472 	movx	@dptr,a
   1197 90s01r98           3473 	mov	dptr,#(_setMap5CGram_c0_1_1 + 0x0005)
   119A F0                 3474 	movx	@dptr,a
   119B 90s01r99           3475 	mov	dptr,#(_setMap5CGram_c0_1_1 + 0x0006)
   119E F0                 3476 	movx	@dptr,a
   119F 90s01r9A           3477 	mov	dptr,#(_setMap5CGram_c0_1_1 + 0x0007)
   11A2 F0                 3478 	movx	@dptr,a
                           3479 ;	LCD.c:472: unsigned char c1[] =  {0x1F,0x19,0x15,0x11,0x14,0x15,0x12,0x1A};
   11A3 90s01r9B           3480 	mov	dptr,#_setMap5CGram_c1_1_1
   11A6 74 1F              3481 	mov	a,#0x1F
   11A8 F0                 3482 	movx	@dptr,a
   11A9 90s01r9C           3483 	mov	dptr,#(_setMap5CGram_c1_1_1 + 0x0001)
   11AC 74 19              3484 	mov	a,#0x19
   11AE F0                 3485 	movx	@dptr,a
   11AF 90s01r9D           3486 	mov	dptr,#(_setMap5CGram_c1_1_1 + 0x0002)
   11B2 74 15              3487 	mov	a,#0x15
   11B4 F0                 3488 	movx	@dptr,a
   11B5 90s01r9E           3489 	mov	dptr,#(_setMap5CGram_c1_1_1 + 0x0003)
   11B8 74 11              3490 	mov	a,#0x11
   11BA F0                 3491 	movx	@dptr,a
   11BB 90s01r9F           3492 	mov	dptr,#(_setMap5CGram_c1_1_1 + 0x0004)
   11BE 74 14              3493 	mov	a,#0x14
   11C0 F0                 3494 	movx	@dptr,a
   11C1 90s01rA0           3495 	mov	dptr,#(_setMap5CGram_c1_1_1 + 0x0005)
   11C4 74 15              3496 	mov	a,#0x15
   11C6 F0                 3497 	movx	@dptr,a
   11C7 90s01rA1           3498 	mov	dptr,#(_setMap5CGram_c1_1_1 + 0x0006)
   11CA 74 12              3499 	mov	a,#0x12
   11CC F0                 3500 	movx	@dptr,a
   11CD 90s01rA2           3501 	mov	dptr,#(_setMap5CGram_c1_1_1 + 0x0007)
   11D0 74 1A              3502 	mov	a,#0x1A
   11D2 F0                 3503 	movx	@dptr,a
                           3504 ;	LCD.c:473: unsigned char c2[] =  {0x1F,0x01,0x05,0x08,0x11,0x05,0x09,0x12};
   11D3 90s01rA3           3505 	mov	dptr,#_setMap5CGram_c2_1_1
   11D6 74 1F              3506 	mov	a,#0x1F
   11D8 F0                 3507 	movx	@dptr,a
   11D9 90s01rA4           3508 	mov	dptr,#(_setMap5CGram_c2_1_1 + 0x0001)
   11DC 74 01              3509 	mov	a,#0x01
   11DE F0                 3510 	movx	@dptr,a
   11DF 90s01rA5           3511 	mov	dptr,#(_setMap5CGram_c2_1_1 + 0x0002)
   11E2 74 05              3512 	mov	a,#0x05
   11E4 F0                 3513 	movx	@dptr,a
   11E5 90s01rA6           3514 	mov	dptr,#(_setMap5CGram_c2_1_1 + 0x0003)
   11E8 74 08              3515 	mov	a,#0x08
   11EA F0                 3516 	movx	@dptr,a
   11EB 90s01rA7           3517 	mov	dptr,#(_setMap5CGram_c2_1_1 + 0x0004)
   11EE 74 11              3518 	mov	a,#0x11
   11F0 F0                 3519 	movx	@dptr,a
   11F1 90s01rA8           3520 	mov	dptr,#(_setMap5CGram_c2_1_1 + 0x0005)
   11F4 74 05              3521 	mov	a,#0x05
   11F6 F0                 3522 	movx	@dptr,a
   11F7 90s01rA9           3523 	mov	dptr,#(_setMap5CGram_c2_1_1 + 0x0006)
   11FA 74 09              3524 	mov	a,#0x09
   11FC F0                 3525 	movx	@dptr,a
   11FD 90s01rAA           3526 	mov	dptr,#(_setMap5CGram_c2_1_1 + 0x0007)
   1200 74 12              3527 	mov	a,#0x12
   1202 F0                 3528 	movx	@dptr,a
                           3529 ;	LCD.c:474: unsigned char c3[] =  {0x1B,0x11,0x00,0x1B,0x11,0x00,0x11,0x1B};
   1203 90s01rAB           3530 	mov	dptr,#_setMap5CGram_c3_1_1
   1206 74 1B              3531 	mov	a,#0x1B
   1208 F0                 3532 	movx	@dptr,a
   1209 90s01rAC           3533 	mov	dptr,#(_setMap5CGram_c3_1_1 + 0x0001)
   120C 74 11              3534 	mov	a,#0x11
   120E F0                 3535 	movx	@dptr,a
   120F 90s01rAD           3536 	mov	dptr,#(_setMap5CGram_c3_1_1 + 0x0002)
   1212 E4                 3537 	clr	a
   1213 F0                 3538 	movx	@dptr,a
   1214 90s01rAE           3539 	mov	dptr,#(_setMap5CGram_c3_1_1 + 0x0003)
   1217 74 1B              3540 	mov	a,#0x1B
   1219 F0                 3541 	movx	@dptr,a
   121A 90s01rAF           3542 	mov	dptr,#(_setMap5CGram_c3_1_1 + 0x0004)
   121D 74 11              3543 	mov	a,#0x11
   121F F0                 3544 	movx	@dptr,a
   1220 90s01rB0           3545 	mov	dptr,#(_setMap5CGram_c3_1_1 + 0x0005)
   1223 E4                 3546 	clr	a
   1224 F0                 3547 	movx	@dptr,a
   1225 90s01rB1           3548 	mov	dptr,#(_setMap5CGram_c3_1_1 + 0x0006)
   1228 74 11              3549 	mov	a,#0x11
   122A F0                 3550 	movx	@dptr,a
   122B 90s01rB2           3551 	mov	dptr,#(_setMap5CGram_c3_1_1 + 0x0007)
   122E 74 1B              3552 	mov	a,#0x1B
   1230 F0                 3553 	movx	@dptr,a
                           3554 ;	LCD.c:475: unsigned char c4[] =  {0x12,0x0A,0x09,0x04,0x19,0x03,0x19,0x0B};
   1231 90s01rB3           3555 	mov	dptr,#_setMap5CGram_c4_1_1
   1234 74 12              3556 	mov	a,#0x12
   1236 F0                 3557 	movx	@dptr,a
   1237 90s01rB4           3558 	mov	dptr,#(_setMap5CGram_c4_1_1 + 0x0001)
   123A 74 0A              3559 	mov	a,#0x0A
   123C F0                 3560 	movx	@dptr,a
   123D 90s01rB5           3561 	mov	dptr,#(_setMap5CGram_c4_1_1 + 0x0002)
   1240 74 09              3562 	mov	a,#0x09
   1242 F0                 3563 	movx	@dptr,a
   1243 90s01rB6           3564 	mov	dptr,#(_setMap5CGram_c4_1_1 + 0x0003)
   1246 74 04              3565 	mov	a,#0x04
   1248 F0                 3566 	movx	@dptr,a
   1249 90s01rB7           3567 	mov	dptr,#(_setMap5CGram_c4_1_1 + 0x0004)
   124C 74 19              3568 	mov	a,#0x19
   124E F0                 3569 	movx	@dptr,a
   124F 90s01rB8           3570 	mov	dptr,#(_setMap5CGram_c4_1_1 + 0x0005)
   1252 74 03              3571 	mov	a,#0x03
   1254 F0                 3572 	movx	@dptr,a
   1255 90s01rB9           3573 	mov	dptr,#(_setMap5CGram_c4_1_1 + 0x0006)
   1258 74 19              3574 	mov	a,#0x19
   125A F0                 3575 	movx	@dptr,a
   125B 90s01rBA           3576 	mov	dptr,#(_setMap5CGram_c4_1_1 + 0x0007)
   125E 74 0B              3577 	mov	a,#0x0B
   1260 F0                 3578 	movx	@dptr,a
                           3579 ;	LCD.c:476: unsigned char c5[] =  {0x12,0x16,0x13,0x18,0x12,0x16,0x13,0x1B};
   1261 90s01rBB           3580 	mov	dptr,#_setMap5CGram_c5_1_1
   1264 74 12              3581 	mov	a,#0x12
   1266 F0                 3582 	movx	@dptr,a
   1267 90s01rBC           3583 	mov	dptr,#(_setMap5CGram_c5_1_1 + 0x0001)
   126A 74 16              3584 	mov	a,#0x16
   126C F0                 3585 	movx	@dptr,a
   126D 90s01rBD           3586 	mov	dptr,#(_setMap5CGram_c5_1_1 + 0x0002)
   1270 74 13              3587 	mov	a,#0x13
   1272 F0                 3588 	movx	@dptr,a
   1273 90s01rBE           3589 	mov	dptr,#(_setMap5CGram_c5_1_1 + 0x0003)
   1276 74 18              3590 	mov	a,#0x18
   1278 F0                 3591 	movx	@dptr,a
   1279 90s01rBF           3592 	mov	dptr,#(_setMap5CGram_c5_1_1 + 0x0004)
   127C 74 12              3593 	mov	a,#0x12
   127E F0                 3594 	movx	@dptr,a
   127F 90s01rC0           3595 	mov	dptr,#(_setMap5CGram_c5_1_1 + 0x0005)
   1282 74 16              3596 	mov	a,#0x16
   1284 F0                 3597 	movx	@dptr,a
   1285 90s01rC1           3598 	mov	dptr,#(_setMap5CGram_c5_1_1 + 0x0006)
   1288 74 13              3599 	mov	a,#0x13
   128A F0                 3600 	movx	@dptr,a
   128B 90s01rC2           3601 	mov	dptr,#(_setMap5CGram_c5_1_1 + 0x0007)
   128E 74 1B              3602 	mov	a,#0x1B
   1290 F0                 3603 	movx	@dptr,a
                           3604 ;	LCD.c:477: unsigned char c6[] =  {0x1A,0x11,0x15,0x14,0x12,0x15,0x10,0x17};
   1291 90s01rC3           3605 	mov	dptr,#_setMap5CGram_c6_1_1
   1294 74 1A              3606 	mov	a,#0x1A
   1296 F0                 3607 	movx	@dptr,a
   1297 90s01rC4           3608 	mov	dptr,#(_setMap5CGram_c6_1_1 + 0x0001)
   129A 74 11              3609 	mov	a,#0x11
   129C F0                 3610 	movx	@dptr,a
   129D 90s01rC5           3611 	mov	dptr,#(_setMap5CGram_c6_1_1 + 0x0002)
   12A0 74 15              3612 	mov	a,#0x15
   12A2 F0                 3613 	movx	@dptr,a
   12A3 90s01rC6           3614 	mov	dptr,#(_setMap5CGram_c6_1_1 + 0x0003)
   12A6 74 14              3615 	mov	a,#0x14
   12A8 F0                 3616 	movx	@dptr,a
   12A9 90s01rC7           3617 	mov	dptr,#(_setMap5CGram_c6_1_1 + 0x0004)
   12AC 74 12              3618 	mov	a,#0x12
   12AE F0                 3619 	movx	@dptr,a
   12AF 90s01rC8           3620 	mov	dptr,#(_setMap5CGram_c6_1_1 + 0x0005)
   12B2 74 15              3621 	mov	a,#0x15
   12B4 F0                 3622 	movx	@dptr,a
   12B5 90s01rC9           3623 	mov	dptr,#(_setMap5CGram_c6_1_1 + 0x0006)
   12B8 74 10              3624 	mov	a,#0x10
   12BA F0                 3625 	movx	@dptr,a
   12BB 90s01rCA           3626 	mov	dptr,#(_setMap5CGram_c6_1_1 + 0x0007)
   12BE 74 17              3627 	mov	a,#0x17
   12C0 F0                 3628 	movx	@dptr,a
                           3629 ;	LCD.c:478: unsigned char c7[] =  {0x13,0x05,0x09,0x09,0x05,0x15,0x01,0x1F};
   12C1 90s01rCB           3630 	mov	dptr,#_setMap5CGram_c7_1_1
   12C4 74 13              3631 	mov	a,#0x13
   12C6 F0                 3632 	movx	@dptr,a
   12C7 90s01rCC           3633 	mov	dptr,#(_setMap5CGram_c7_1_1 + 0x0001)
   12CA 74 05              3634 	mov	a,#0x05
   12CC F0                 3635 	movx	@dptr,a
   12CD 90s01rCD           3636 	mov	dptr,#(_setMap5CGram_c7_1_1 + 0x0002)
   12D0 74 09              3637 	mov	a,#0x09
   12D2 F0                 3638 	movx	@dptr,a
   12D3 90s01rCE           3639 	mov	dptr,#(_setMap5CGram_c7_1_1 + 0x0003)
   12D6 74 09              3640 	mov	a,#0x09
   12D8 F0                 3641 	movx	@dptr,a
   12D9 90s01rCF           3642 	mov	dptr,#(_setMap5CGram_c7_1_1 + 0x0004)
   12DC 74 05              3643 	mov	a,#0x05
   12DE F0                 3644 	movx	@dptr,a
   12DF 90s01rD0           3645 	mov	dptr,#(_setMap5CGram_c7_1_1 + 0x0005)
   12E2 74 15              3646 	mov	a,#0x15
   12E4 F0                 3647 	movx	@dptr,a
   12E5 90s01rD1           3648 	mov	dptr,#(_setMap5CGram_c7_1_1 + 0x0006)
   12E8 74 01              3649 	mov	a,#0x01
   12EA F0                 3650 	movx	@dptr,a
   12EB 90s01rD2           3651 	mov	dptr,#(_setMap5CGram_c7_1_1 + 0x0007)
   12EE 74 1F              3652 	mov	a,#0x1F
   12F0 F0                 3653 	movx	@dptr,a
                           3654 ;	LCD.c:480: for(n = 0; n < 8 ;n++){
   12F1 7A 00              3655 	mov	r2,#0x00
   12F3                    3656 00101$:
   12F3 BA 08 00           3657 	cjne	r2,#0x08,00124$
   12F6                    3658 00124$:
   12F6 40 03              3659 	jc	00125$
   12F8 02s13rC0           3660 	ljmp	00104$
   12FB                    3661 00125$:
                           3662 ;	LCD.c:481: SCmap[0].adds[n] = c0[n];
   12FB EA                 3663 	mov	a,r2
   12FC 24r08              3664 	add	a,#_SCmap
   12FE FB                 3665 	mov	r3,a
   12FF E4                 3666 	clr	a
   1300 34s00              3667 	addc	a,#(_SCmap >> 8)
   1302 FC                 3668 	mov	r4,a
   1303 EA                 3669 	mov	a,r2
   1304 24r93              3670 	add	a,#_setMap5CGram_c0_1_1
   1306 F5 82              3671 	mov	dpl,a
   1308 E4                 3672 	clr	a
   1309 34s01              3673 	addc	a,#(_setMap5CGram_c0_1_1 >> 8)
   130B F5 83              3674 	mov	dph,a
   130D E0                 3675 	movx	a,@dptr
   130E 8B 82              3676 	mov	dpl,r3
   1310 8C 83              3677 	mov	dph,r4
   1312 F0                 3678 	movx	@dptr,a
                           3679 ;	LCD.c:482: SCmap[1].adds[n] = c1[n];
   1313 EA                 3680 	mov	a,r2
   1314 24r10              3681 	add	a,#(_SCmap + 0x0008)
   1316 FB                 3682 	mov	r3,a
   1317 E4                 3683 	clr	a
   1318 34s00              3684 	addc	a,#((_SCmap + 0x0008) >> 8)
   131A FC                 3685 	mov	r4,a
   131B EA                 3686 	mov	a,r2
   131C 24r9B              3687 	add	a,#_setMap5CGram_c1_1_1
   131E F5 82              3688 	mov	dpl,a
   1320 E4                 3689 	clr	a
   1321 34s01              3690 	addc	a,#(_setMap5CGram_c1_1_1 >> 8)
   1323 F5 83              3691 	mov	dph,a
   1325 E0                 3692 	movx	a,@dptr
   1326 8B 82              3693 	mov	dpl,r3
   1328 8C 83              3694 	mov	dph,r4
   132A F0                 3695 	movx	@dptr,a
                           3696 ;	LCD.c:483: SCmap[2].adds[n] = c2[n];
   132B EA                 3697 	mov	a,r2
   132C 24r18              3698 	add	a,#(_SCmap + 0x0010)
   132E FB                 3699 	mov	r3,a
   132F E4                 3700 	clr	a
   1330 34s00              3701 	addc	a,#((_SCmap + 0x0010) >> 8)
   1332 FC                 3702 	mov	r4,a
   1333 EA                 3703 	mov	a,r2
   1334 24rA3              3704 	add	a,#_setMap5CGram_c2_1_1
   1336 F5 82              3705 	mov	dpl,a
   1338 E4                 3706 	clr	a
   1339 34s01              3707 	addc	a,#(_setMap5CGram_c2_1_1 >> 8)
   133B F5 83              3708 	mov	dph,a
   133D E0                 3709 	movx	a,@dptr
   133E 8B 82              3710 	mov	dpl,r3
   1340 8C 83              3711 	mov	dph,r4
   1342 F0                 3712 	movx	@dptr,a
                           3713 ;	LCD.c:484: SCmap[3].adds[n] = c3[n];
   1343 EA                 3714 	mov	a,r2
   1344 24r20              3715 	add	a,#(_SCmap + 0x0018)
   1346 FB                 3716 	mov	r3,a
   1347 E4                 3717 	clr	a
   1348 34s00              3718 	addc	a,#((_SCmap + 0x0018) >> 8)
   134A FC                 3719 	mov	r4,a
   134B EA                 3720 	mov	a,r2
   134C 24rAB              3721 	add	a,#_setMap5CGram_c3_1_1
   134E F5 82              3722 	mov	dpl,a
   1350 E4                 3723 	clr	a
   1351 34s01              3724 	addc	a,#(_setMap5CGram_c3_1_1 >> 8)
   1353 F5 83              3725 	mov	dph,a
   1355 E0                 3726 	movx	a,@dptr
   1356 8B 82              3727 	mov	dpl,r3
   1358 8C 83              3728 	mov	dph,r4
   135A F0                 3729 	movx	@dptr,a
                           3730 ;	LCD.c:485: SCmap[4].adds[n] = c4[n];
   135B EA                 3731 	mov	a,r2
   135C 24r28              3732 	add	a,#(_SCmap + 0x0020)
   135E FB                 3733 	mov	r3,a
   135F E4                 3734 	clr	a
   1360 34s00              3735 	addc	a,#((_SCmap + 0x0020) >> 8)
   1362 FC                 3736 	mov	r4,a
   1363 EA                 3737 	mov	a,r2
   1364 24rB3              3738 	add	a,#_setMap5CGram_c4_1_1
   1366 F5 82              3739 	mov	dpl,a
   1368 E4                 3740 	clr	a
   1369 34s01              3741 	addc	a,#(_setMap5CGram_c4_1_1 >> 8)
   136B F5 83              3742 	mov	dph,a
   136D E0                 3743 	movx	a,@dptr
   136E 8B 82              3744 	mov	dpl,r3
   1370 8C 83              3745 	mov	dph,r4
   1372 F0                 3746 	movx	@dptr,a
                           3747 ;	LCD.c:486: SCmap[5].adds[n] = c5[n];
   1373 EA                 3748 	mov	a,r2
   1374 24r30              3749 	add	a,#(_SCmap + 0x0028)
   1376 FB                 3750 	mov	r3,a
   1377 E4                 3751 	clr	a
   1378 34s00              3752 	addc	a,#((_SCmap + 0x0028) >> 8)
   137A FC                 3753 	mov	r4,a
   137B EA                 3754 	mov	a,r2
   137C 24rBB              3755 	add	a,#_setMap5CGram_c5_1_1
   137E F5 82              3756 	mov	dpl,a
   1380 E4                 3757 	clr	a
   1381 34s01              3758 	addc	a,#(_setMap5CGram_c5_1_1 >> 8)
   1383 F5 83              3759 	mov	dph,a
   1385 E0                 3760 	movx	a,@dptr
   1386 8B 82              3761 	mov	dpl,r3
   1388 8C 83              3762 	mov	dph,r4
   138A F0                 3763 	movx	@dptr,a
                           3764 ;	LCD.c:487: SCmap[6].adds[n] = c6[n];
   138B EA                 3765 	mov	a,r2
   138C 24r38              3766 	add	a,#(_SCmap + 0x0030)
   138E FB                 3767 	mov	r3,a
   138F E4                 3768 	clr	a
   1390 34s00              3769 	addc	a,#((_SCmap + 0x0030) >> 8)
   1392 FC                 3770 	mov	r4,a
   1393 EA                 3771 	mov	a,r2
   1394 24rC3              3772 	add	a,#_setMap5CGram_c6_1_1
   1396 F5 82              3773 	mov	dpl,a
   1398 E4                 3774 	clr	a
   1399 34s01              3775 	addc	a,#(_setMap5CGram_c6_1_1 >> 8)
   139B F5 83              3776 	mov	dph,a
   139D E0                 3777 	movx	a,@dptr
   139E 8B 82              3778 	mov	dpl,r3
   13A0 8C 83              3779 	mov	dph,r4
   13A2 F0                 3780 	movx	@dptr,a
                           3781 ;	LCD.c:488: SCmap[7].adds[n] = c7[n];
   13A3 EA                 3782 	mov	a,r2
   13A4 24r40              3783 	add	a,#(_SCmap + 0x0038)
   13A6 FB                 3784 	mov	r3,a
   13A7 E4                 3785 	clr	a
   13A8 34s00              3786 	addc	a,#((_SCmap + 0x0038) >> 8)
   13AA FC                 3787 	mov	r4,a
   13AB EA                 3788 	mov	a,r2
   13AC 24rCB              3789 	add	a,#_setMap5CGram_c7_1_1
   13AE F5 82              3790 	mov	dpl,a
   13B0 E4                 3791 	clr	a
   13B1 34s01              3792 	addc	a,#(_setMap5CGram_c7_1_1 >> 8)
   13B3 F5 83              3793 	mov	dph,a
   13B5 E0                 3794 	movx	a,@dptr
   13B6 FD                 3795 	mov	r5,a
   13B7 8B 82              3796 	mov	dpl,r3
   13B9 8C 83              3797 	mov	dph,r4
   13BB F0                 3798 	movx	@dptr,a
                           3799 ;	LCD.c:480: for(n = 0; n < 8 ;n++){
   13BC 0A                 3800 	inc	r2
   13BD 02s12rF3           3801 	ljmp	00101$
   13C0                    3802 00104$:
                           3803 ;	LCD.c:491: winstLCD = setCgramAddress;    				 // Atribuindo primeiro endereo da CGRAM
   13C0 90 FF C2           3804 	mov	dptr,#_winstLCD
   13C3 74 40              3805 	mov	a,#0x40
   13C5 F0                 3806 	movx	@dptr,a
                           3807 ;	LCD.c:492: delay(10,0);
   13C6 90s00r00           3808 	mov	dptr,#_delay_PARM_2
   13C9 E4                 3809 	clr	a
   13CA F0                 3810 	movx	@dptr,a
   13CB 90 00 0A           3811 	mov	dptr,#0x000A
   13CE 12s00r00           3812 	lcall	_delay
                           3813 ;	LCD.c:494: for(m = 0;m< 8; m++){
   13D1 7A 00              3814 	mov	r2,#0x00
   13D3                    3815 00109$:
   13D3 BA 08 00           3816 	cjne	r2,#0x08,00126$
   13D6                    3817 00126$:
   13D6 50 3F              3818 	jnc	00112$
                           3819 ;	LCD.c:495: for(n = 0; n < 8 ;n++){
   13D8 EA                 3820 	mov	a,r2
   13D9 C4                 3821 	swap	a
   13DA 03                 3822 	rr	a
   13DB 54 F8              3823 	anl	a,#0xf8
   13DD FB                 3824 	mov	r3,a
   13DE 7C 00              3825 	mov	r4,#0x00
   13E0                    3826 00105$:
   13E0 BC 08 00           3827 	cjne	r4,#0x08,00128$
   13E3                    3828 00128$:
   13E3 50 2F              3829 	jnc	00111$
                           3830 ;	LCD.c:496: wdataLCD = SCmap[m].adds[n];                // Atribuindo escrita
   13E5 EB                 3831 	mov	a,r3
   13E6 24r08              3832 	add	a,#_SCmap
   13E8 FD                 3833 	mov	r5,a
   13E9 E4                 3834 	clr	a
   13EA 34s00              3835 	addc	a,#(_SCmap >> 8)
   13EC FE                 3836 	mov	r6,a
   13ED EC                 3837 	mov	a,r4
   13EE 2D                 3838 	add	a,r5
   13EF F5 82              3839 	mov	dpl,a
   13F1 E4                 3840 	clr	a
   13F2 3E                 3841 	addc	a,r6
   13F3 F5 83              3842 	mov	dph,a
   13F5 E0                 3843 	movx	a,@dptr
   13F6 90 FF D2           3844 	mov	dptr,#_wdataLCD
   13F9 F0                 3845 	movx	@dptr,a
                           3846 ;	LCD.c:497: delay(10,0);
   13FA 90s00r00           3847 	mov	dptr,#_delay_PARM_2
   13FD E4                 3848 	clr	a
   13FE F0                 3849 	movx	@dptr,a
   13FF 90 00 0A           3850 	mov	dptr,#0x000A
   1402 C0 02              3851 	push	ar2
   1404 C0 03              3852 	push	ar3
   1406 C0 04              3853 	push	ar4
   1408 12s00r00           3854 	lcall	_delay
   140B D0 04              3855 	pop	ar4
   140D D0 03              3856 	pop	ar3
   140F D0 02              3857 	pop	ar2
                           3858 ;	LCD.c:495: for(n = 0; n < 8 ;n++){
   1411 0C                 3859 	inc	r4
   1412 80 CC              3860 	sjmp	00105$
   1414                    3861 00111$:
                           3862 ;	LCD.c:494: for(m = 0;m< 8; m++){
   1414 0A                 3863 	inc	r2
   1415 80 BC              3864 	sjmp	00109$
   1417                    3865 00112$:
                           3866 ;	LCD.c:501: map[0][0].schar = 2;
   1417 90s00r48           3867 	mov	dptr,#_map
   141A 74 02              3868 	mov	a,#0x02
   141C F0                 3869 	movx	@dptr,a
                           3870 ;	LCD.c:502: map[0][1].schar = 3;
   141D 90s00r49           3871 	mov	dptr,#(_map + 0x0001)
   1420 74 03              3872 	mov	a,#0x03
   1422 F0                 3873 	movx	@dptr,a
                           3874 ;	LCD.c:503: map[0][2].schar = 3;
   1423 90s00r4A           3875 	mov	dptr,#(_map + 0x0002)
   1426 74 03              3876 	mov	a,#0x03
   1428 F0                 3877 	movx	@dptr,a
                           3878 ;	LCD.c:504: map[0][3].schar = 2;
   1429 90s00r4B           3879 	mov	dptr,#(_map + 0x0003)
   142C 74 02              3880 	mov	a,#0x02
   142E F0                 3881 	movx	@dptr,a
                           3882 ;	LCD.c:505: map[0][4].schar = 3;
   142F 90s00r4C           3883 	mov	dptr,#(_map + 0x0004)
   1432 74 03              3884 	mov	a,#0x03
   1434 F0                 3885 	movx	@dptr,a
                           3886 ;	LCD.c:506: map[0][5].schar = 3;
   1435 90s00r4D           3887 	mov	dptr,#(_map + 0x0005)
   1438 74 03              3888 	mov	a,#0x03
   143A F0                 3889 	movx	@dptr,a
                           3890 ;	LCD.c:507: map[0][6].schar = 2;
   143B 90s00r4E           3891 	mov	dptr,#(_map + 0x0006)
   143E 74 02              3892 	mov	a,#0x02
   1440 F0                 3893 	movx	@dptr,a
                           3894 ;	LCD.c:508: map[0][7].schar = 7;
   1441 90s00r4F           3895 	mov	dptr,#(_map + 0x0007)
   1444 74 07              3896 	mov	a,#0x07
   1446 F0                 3897 	movx	@dptr,a
                           3898 ;	LCD.c:509: map[0][8].schar = 7;
   1447 90s00r50           3899 	mov	dptr,#(_map + 0x0008)
   144A 74 07              3900 	mov	a,#0x07
   144C F0                 3901 	movx	@dptr,a
                           3902 ;	LCD.c:510: map[0][9].schar = 2;
   144D 90s00r51           3903 	mov	dptr,#(_map + 0x0009)
   1450 74 02              3904 	mov	a,#0x02
   1452 F0                 3905 	movx	@dptr,a
                           3906 ;	LCD.c:511: map[0][10].schar = 7;
   1453 90s00r52           3907 	mov	dptr,#(_map + 0x000a)
   1456 74 07              3908 	mov	a,#0x07
   1458 F0                 3909 	movx	@dptr,a
                           3910 ;	LCD.c:512: map[0][11].schar = 8;
   1459 90s00r53           3911 	mov	dptr,#(_map + 0x000b)
   145C 74 08              3912 	mov	a,#0x08
   145E F0                 3913 	movx	@dptr,a
                           3914 ;	LCD.c:513: map[0][12].schar = 8;
   145F 90s00r54           3915 	mov	dptr,#(_map + 0x000c)
   1462 74 08              3916 	mov	a,#0x08
   1464 F0                 3917 	movx	@dptr,a
                           3918 ;	LCD.c:514: map[0][13].schar = 4;
   1465 90s00r55           3919 	mov	dptr,#(_map + 0x000d)
   1468 74 04              3920 	mov	a,#0x04
   146A F0                 3921 	movx	@dptr,a
                           3922 ;	LCD.c:515: map[0][14].schar = 8;
   146B 90s00r56           3923 	mov	dptr,#(_map + 0x000e)
   146E 74 08              3924 	mov	a,#0x08
   1470 F0                 3925 	movx	@dptr,a
                           3926 ;	LCD.c:516: map[0][15].schar = 2;
   1471 90s00r57           3927 	mov	dptr,#(_map + 0x000f)
   1474 74 02              3928 	mov	a,#0x02
   1476 F0                 3929 	movx	@dptr,a
                           3930 ;	LCD.c:518: map[1][0].schar = 6;
   1477 90s00r58           3931 	mov	dptr,#(_map + 0x0010)
   147A 74 06              3932 	mov	a,#0x06
   147C F0                 3933 	movx	@dptr,a
                           3934 ;	LCD.c:519: map[1][1].schar = 5;
   147D 90s00r59           3935 	mov	dptr,#(_map + 0x0011)
   1480 74 05              3936 	mov	a,#0x05
   1482 F0                 3937 	movx	@dptr,a
                           3938 ;	LCD.c:520: map[1][2].schar = 6;
   1483 90s00r5A           3939 	mov	dptr,#(_map + 0x0012)
   1486 74 06              3940 	mov	a,#0x06
   1488 F0                 3941 	movx	@dptr,a
                           3942 ;	LCD.c:521: map[1][3].schar = 4;
   1489 90s00r5B           3943 	mov	dptr,#(_map + 0x0013)
   148C 74 04              3944 	mov	a,#0x04
   148E F0                 3945 	movx	@dptr,a
                           3946 ;	LCD.c:522: map[1][4].schar = 5;
   148F 90s00r5C           3947 	mov	dptr,#(_map + 0x0014)
   1492 74 05              3948 	mov	a,#0x05
   1494 F0                 3949 	movx	@dptr,a
                           3950 ;	LCD.c:523: map[1][5].schar = 4;
   1495 90s00r5D           3951 	mov	dptr,#(_map + 0x0015)
   1498 74 04              3952 	mov	a,#0x04
   149A F0                 3953 	movx	@dptr,a
                           3954 ;	LCD.c:524: map[1][6].schar = 4;
   149B 90s00r5E           3955 	mov	dptr,#(_map + 0x0016)
   149E 74 04              3956 	mov	a,#0x04
   14A0 F0                 3957 	movx	@dptr,a
                           3958 ;	LCD.c:525: map[1][7].schar = 4;
   14A1 90s00r5F           3959 	mov	dptr,#(_map + 0x0017)
   14A4 74 04              3960 	mov	a,#0x04
   14A6 F0                 3961 	movx	@dptr,a
                           3962 ;	LCD.c:526: map[1][8].schar = 3;
   14A7 90s00r60           3963 	mov	dptr,#(_map + 0x0018)
   14AA 74 03              3964 	mov	a,#0x03
   14AC F0                 3965 	movx	@dptr,a
                           3966 ;	LCD.c:527: map[1][9].schar = 6;
   14AD 90s00r61           3967 	mov	dptr,#(_map + 0x0019)
   14B0 74 06              3968 	mov	a,#0x06
   14B2 F0                 3969 	movx	@dptr,a
                           3970 ;	LCD.c:528: map[1][10].schar = 4;
   14B3 90s00r62           3971 	mov	dptr,#(_map + 0x001a)
   14B6 74 04              3972 	mov	a,#0x04
   14B8 F0                 3973 	movx	@dptr,a
                           3974 ;	LCD.c:529: map[1][11].schar = 6;
   14B9 90s00r63           3975 	mov	dptr,#(_map + 0x001b)
   14BC 74 06              3976 	mov	a,#0x06
   14BE F0                 3977 	movx	@dptr,a
                           3978 ;	LCD.c:530: map[1][12].schar = 5;
   14BF 90s00r64           3979 	mov	dptr,#(_map + 0x001c)
   14C2 74 05              3980 	mov	a,#0x05
   14C4 F0                 3981 	movx	@dptr,a
                           3982 ;	LCD.c:531: map[1][13].schar = 3;
   14C5 90s00r65           3983 	mov	dptr,#(_map + 0x001d)
   14C8 74 03              3984 	mov	a,#0x03
   14CA F0                 3985 	movx	@dptr,a
                           3986 ;	LCD.c:532: map[1][14].schar = 4;
   14CB 90s00r66           3987 	mov	dptr,#(_map + 0x001e)
   14CE 74 04              3988 	mov	a,#0x04
   14D0 F0                 3989 	movx	@dptr,a
                           3990 ;	LCD.c:533: map[1][15].schar = 7;
   14D1 90s00r67           3991 	mov	dptr,#(_map + 0x001f)
   14D4 74 07              3992 	mov	a,#0x07
   14D6 F0                 3993 	movx	@dptr,a
                           3994 ;	LCD.c:535: map[2][0].schar = 6;
   14D7 90s00r68           3995 	mov	dptr,#(_map + 0x0020)
   14DA 74 06              3996 	mov	a,#0x06
   14DC F0                 3997 	movx	@dptr,a
                           3998 ;	LCD.c:536: map[2][1].schar = 4;
   14DD 90s00r69           3999 	mov	dptr,#(_map + 0x0021)
   14E0 74 04              4000 	mov	a,#0x04
   14E2 F0                 4001 	movx	@dptr,a
                           4002 ;	LCD.c:537: map[2][2].schar = 5;
   14E3 90s00r6A           4003 	mov	dptr,#(_map + 0x0022)
   14E6 74 05              4004 	mov	a,#0x05
   14E8 F0                 4005 	movx	@dptr,a
                           4006 ;	LCD.c:538: map[2][3].schar = 6;
   14E9 90s00r6B           4007 	mov	dptr,#(_map + 0x0023)
   14EC 74 06              4008 	mov	a,#0x06
   14EE F0                 4009 	movx	@dptr,a
                           4010 ;	LCD.c:539: map[2][4].schar = 4;
   14EF 90s00r6C           4011 	mov	dptr,#(_map + 0x0024)
   14F2 74 04              4012 	mov	a,#0x04
   14F4 F0                 4013 	movx	@dptr,a
                           4014 ;	LCD.c:540: map[2][5].schar = 5;
   14F5 90s00r6D           4015 	mov	dptr,#(_map + 0x0025)
   14F8 74 05              4016 	mov	a,#0x05
   14FA F0                 4017 	movx	@dptr,a
                           4018 ;	LCD.c:541: map[2][6].schar = 5;
   14FB 90s00r6E           4019 	mov	dptr,#(_map + 0x0026)
   14FE 74 05              4020 	mov	a,#0x05
   1500 F0                 4021 	movx	@dptr,a
                           4022 ;	LCD.c:542: map[2][7].schar = 7;
   1501 90s00r6F           4023 	mov	dptr,#(_map + 0x0027)
   1504 74 07              4024 	mov	a,#0x07
   1506 F0                 4025 	movx	@dptr,a
                           4026 ;	LCD.c:543: map[2][8].schar = 6;
   1507 90s00r70           4027 	mov	dptr,#(_map + 0x0028)
   150A 74 06              4028 	mov	a,#0x06
   150C F0                 4029 	movx	@dptr,a
                           4030 ;	LCD.c:544: map[2][9].schar = 4;
   150D 90s00r71           4031 	mov	dptr,#(_map + 0x0029)
   1510 74 04              4032 	mov	a,#0x04
   1512 F0                 4033 	movx	@dptr,a
                           4034 ;	LCD.c:545: map[2][10].schar = 6;
   1513 90s00r72           4035 	mov	dptr,#(_map + 0x002a)
   1516 74 06              4036 	mov	a,#0x06
   1518 F0                 4037 	movx	@dptr,a
                           4038 ;	LCD.c:546: map[2][11].schar = 4;
   1519 90s00r73           4039 	mov	dptr,#(_map + 0x002b)
   151C 74 04              4040 	mov	a,#0x04
   151E F0                 4041 	movx	@dptr,a
                           4042 ;	LCD.c:547: map[2][12].schar = 3;
   151F 90s00r74           4043 	mov	dptr,#(_map + 0x002c)
   1522 74 03              4044 	mov	a,#0x03
   1524 F0                 4045 	movx	@dptr,a
                           4046 ;	LCD.c:548: map[2][13].schar = 5;
   1525 90s00r75           4047 	mov	dptr,#(_map + 0x002d)
   1528 74 05              4048 	mov	a,#0x05
   152A F0                 4049 	movx	@dptr,a
                           4050 ;	LCD.c:549: map[2][14].schar = 3;
   152B 90s00r76           4051 	mov	dptr,#(_map + 0x002e)
   152E 74 03              4052 	mov	a,#0x03
   1530 F0                 4053 	movx	@dptr,a
                           4054 ;	LCD.c:550: map[2][15].schar = 8;
   1531 90s00r77           4055 	mov	dptr,#(_map + 0x002f)
   1534 74 08              4056 	mov	a,#0x08
   1536 F0                 4057 	movx	@dptr,a
                           4058 ;	LCD.c:552: map[3][0].schar = 7;
   1537 90s00r78           4059 	mov	dptr,#(_map + 0x0030)
   153A 74 07              4060 	mov	a,#0x07
   153C F0                 4061 	movx	@dptr,a
                           4062 ;	LCD.c:553: map[3][1].schar = 6;
   153D 90s00r79           4063 	mov	dptr,#(_map + 0x0031)
   1540 74 06              4064 	mov	a,#0x06
   1542 F0                 4065 	movx	@dptr,a
                           4066 ;	LCD.c:554: map[3][2].schar = 7;
   1543 90s00r7A           4067 	mov	dptr,#(_map + 0x0032)
   1546 74 07              4068 	mov	a,#0x07
   1548 F0                 4069 	movx	@dptr,a
                           4070 ;	LCD.c:555: map[3][3].schar = 3;
   1549 90s00r7B           4071 	mov	dptr,#(_map + 0x0033)
   154C 74 03              4072 	mov	a,#0x03
   154E F0                 4073 	movx	@dptr,a
                           4074 ;	LCD.c:556: map[3][4].schar = 5;
   154F 90s00r7C           4075 	mov	dptr,#(_map + 0x0034)
   1552 74 05              4076 	mov	a,#0x05
   1554 F0                 4077 	movx	@dptr,a
                           4078 ;	LCD.c:557: map[3][5].schar = 8;
   1555 90s00r7D           4079 	mov	dptr,#(_map + 0x0035)
   1558 74 08              4080 	mov	a,#0x08
   155A F0                 4081 	movx	@dptr,a
                           4082 ;	LCD.c:558: map[3][6].schar = 7;
   155B 90s00r7E           4083 	mov	dptr,#(_map + 0x0036)
   155E 74 07              4084 	mov	a,#0x07
   1560 F0                 4085 	movx	@dptr,a
                           4086 ;	LCD.c:559: map[3][7].schar = 7;
   1561 90s00r7F           4087 	mov	dptr,#(_map + 0x0037)
   1564 74 07              4088 	mov	a,#0x07
   1566 F0                 4089 	movx	@dptr,a
                           4090 ;	LCD.c:560: map[3][8].schar = 8;
   1567 90s00r80           4091 	mov	dptr,#(_map + 0x0038)
   156A 74 08              4092 	mov	a,#0x08
   156C F0                 4093 	movx	@dptr,a
                           4094 ;	LCD.c:561: map[3][9].schar = 6;
   156D 90s00r81           4095 	mov	dptr,#(_map + 0x0039)
   1570 74 06              4096 	mov	a,#0x06
   1572 F0                 4097 	movx	@dptr,a
                           4098 ;	LCD.c:562: map[3][10].schar = 7;
   1573 90s00r82           4099 	mov	dptr,#(_map + 0x003a)
   1576 74 07              4100 	mov	a,#0x07
   1578 F0                 4101 	movx	@dptr,a
                           4102 ;	LCD.c:563: map[3][11].schar = 8;
   1579 90s00r83           4103 	mov	dptr,#(_map + 0x003b)
   157C 74 08              4104 	mov	a,#0x08
   157E F0                 4105 	movx	@dptr,a
                           4106 ;	LCD.c:564: map[3][12].schar = 6;
   157F 90s00r84           4107 	mov	dptr,#(_map + 0x003c)
   1582 74 06              4108 	mov	a,#0x06
   1584 F0                 4109 	movx	@dptr,a
                           4110 ;	LCD.c:565: map[3][13].schar = 7;
   1585 90s00r85           4111 	mov	dptr,#(_map + 0x003d)
   1588 74 07              4112 	mov	a,#0x07
   158A F0                 4113 	movx	@dptr,a
                           4114 ;	LCD.c:566: map[3][14].schar = 5;
   158B 90s00r86           4115 	mov	dptr,#(_map + 0x003e)
   158E 74 05              4116 	mov	a,#0x05
   1590 F0                 4117 	movx	@dptr,a
                           4118 ;	LCD.c:567: map[3][15].schar = 8;
   1591 90s00r87           4119 	mov	dptr,#(_map + 0x003f)
   1594 74 08              4120 	mov	a,#0x08
   1596 F0                 4121 	movx	@dptr,a
                           4122 ;	LCD.c:569: printMap();
   1597 02s00rB5           4123 	ljmp	_printMap
                           4124 ;------------------------------------------------------------
                           4125 ;Allocation info for local variables in function 'configMap'
                           4126 ;------------------------------------------------------------
                           4127 ;pcol                      Allocated with name '_configMap_PARM_2'
                           4128 ;pline                     Allocated with name '_configMap_pline_1_1'
                           4129 ;control                   Allocated with name '_configMap_control_1_1'
                           4130 ;------------------------------------------------------------
                           4131 ;	LCD.c:573: unsigned char configMap(unsigned char pline, unsigned char pcol){
                           4132 ;	-----------------------------------------
                           4133 ;	 function configMap
                           4134 ;	-----------------------------------------
   159A                    4135 _configMap:
   159A E5 82              4136 	mov	a,dpl
   159C 90s01rD4           4137 	mov	dptr,#_configMap_pline_1_1
   159F F0                 4138 	movx	@dptr,a
                           4139 ;	LCD.c:575: unsigned char control = serialControl(SCmap, map);
   15A0 90s00r00           4140 	mov	dptr,#_serialControl_PARM_2
   15A3 74r48              4141 	mov	a,#_map
   15A5 F0                 4142 	movx	@dptr,a
   15A6 A3                 4143 	inc	dptr
   15A7 74s00              4144 	mov	a,#(_map >> 8)
   15A9 F0                 4145 	movx	@dptr,a
   15AA A3                 4146 	inc	dptr
   15AB E4                 4147 	clr	a
   15AC F0                 4148 	movx	@dptr,a
   15AD 90s00r08           4149 	mov	dptr,#_SCmap
   15B0 75 F0 00           4150 	mov	b,#0x00
   15B3 12s00r00           4151 	lcall	_serialControl
   15B6 AA 82              4152 	mov	r2,dpl
                           4153 ;	LCD.c:576: delay(100,0);
   15B8 90s00r00           4154 	mov	dptr,#_delay_PARM_2
   15BB E4                 4155 	clr	a
   15BC F0                 4156 	movx	@dptr,a
   15BD 90 00 64           4157 	mov	dptr,#0x0064
   15C0 C0 02              4158 	push	ar2
   15C2 12s00r00           4159 	lcall	_delay
                           4160 ;	LCD.c:577: setCursorAt(pline, pcol);
   15C5 90s01rD4           4161 	mov	dptr,#_configMap_pline_1_1
   15C8 E0                 4162 	movx	a,@dptr
   15C9 FB                 4163 	mov	r3,a
   15CA 90s01rD3           4164 	mov	dptr,#_configMap_PARM_2
   15CD E0                 4165 	movx	a,@dptr
   15CE FC                 4166 	mov	r4,a
   15CF 90s00r8F           4167 	mov	dptr,#_setCursorAt_PARM_2
   15D2 F0                 4168 	movx	@dptr,a
   15D3 8B 82              4169 	mov	dpl,r3
   15D5 C0 03              4170 	push	ar3
   15D7 C0 04              4171 	push	ar4
   15D9 12s00r44           4172 	lcall	_setCursorAt
   15DC D0 04              4173 	pop	ar4
   15DE D0 03              4174 	pop	ar3
                           4175 ;	LCD.c:578: setChar((map[pline-1][pcol-1].schar) - 1);
   15E0 1B                 4176 	dec	r3
   15E1 EB                 4177 	mov	a,r3
   15E2 C4                 4178 	swap	a
   15E3 54 F0              4179 	anl	a,#0xf0
   15E5 24r48              4180 	add	a,#_map
   15E7 FB                 4181 	mov	r3,a
   15E8 E4                 4182 	clr	a
   15E9 34s00              4183 	addc	a,#(_map >> 8)
   15EB FD                 4184 	mov	r5,a
   15EC EC                 4185 	mov	a,r4
   15ED 14                 4186 	dec	a
   15EE 2B                 4187 	add	a,r3
   15EF F5 82              4188 	mov	dpl,a
   15F1 E4                 4189 	clr	a
   15F2 3D                 4190 	addc	a,r5
   15F3 F5 83              4191 	mov	dph,a
   15F5 E0                 4192 	movx	a,@dptr
   15F6 FB                 4193 	mov	r3,a
   15F7 1B                 4194 	dec	r3
   15F8 8B 82              4195 	mov	dpl,r3
   15FA 12s00r9C           4196 	lcall	_setChar
                           4197 ;	LCD.c:579: delay(100,0);
   15FD 90s00r00           4198 	mov	dptr,#_delay_PARM_2
   1600 E4                 4199 	clr	a
   1601 F0                 4200 	movx	@dptr,a
   1602 90 00 64           4201 	mov	dptr,#0x0064
   1605 12s00r00           4202 	lcall	_delay
   1608 D0 02              4203 	pop	ar2
                           4204 ;	LCD.c:581: return control;
   160A 8A 82              4205 	mov	dpl,r2
   160C 22                 4206 	ret
                           4207 ;------------------------------------------------------------
                           4208 ;Allocation info for local variables in function 'setCursorHomeAtLine'
                           4209 ;------------------------------------------------------------
                           4210 ;line                      Allocated with name '_setCursorHomeAtLine_line_1_1'
                           4211 ;------------------------------------------------------------
                           4212 ;	LCD.c:586: void setCursorHomeAtLine(unsigned char line){
                           4213 ;	-----------------------------------------
                           4214 ;	 function setCursorHomeAtLine
                           4215 ;	-----------------------------------------
   160D                    4216 _setCursorHomeAtLine:
   160D E5 82              4217 	mov	a,dpl
   160F 90s01rD5           4218 	mov	dptr,#_setCursorHomeAtLine_line_1_1
   1612 F0                 4219 	movx	@dptr,a
                           4220 ;	LCD.c:587: if(line == 1)
   1613 90s01rD5           4221 	mov	dptr,#_setCursorHomeAtLine_line_1_1
   1616 E0                 4222 	movx	a,@dptr
   1617 FA                 4223 	mov	r2,a
   1618 BA 01 08           4224 	cjne	r2,#0x01,00110$
                           4225 ;	LCD.c:588: winstLCD = cursorHomeL1;
   161B 90 FF C2           4226 	mov	dptr,#_winstLCD
   161E 74 80              4227 	mov	a,#0x80
   1620 F0                 4228 	movx	@dptr,a
   1621 80 1F              4229 	sjmp	00111$
   1623                    4230 00110$:
                           4231 ;	LCD.c:589: else if(line == 2)
   1623 BA 02 08           4232 	cjne	r2,#0x02,00107$
                           4233 ;	LCD.c:590: winstLCD = cursorHomeL2;
   1626 90 FF C2           4234 	mov	dptr,#_winstLCD
   1629 74 C0              4235 	mov	a,#0xC0
   162B F0                 4236 	movx	@dptr,a
   162C 80 14              4237 	sjmp	00111$
   162E                    4238 00107$:
                           4239 ;	LCD.c:591: else if(line == 3)
   162E BA 03 08           4240 	cjne	r2,#0x03,00104$
                           4241 ;	LCD.c:592: winstLCD = cursorHomeL3;
   1631 90 FF C2           4242 	mov	dptr,#_winstLCD
   1634 74 90              4243 	mov	a,#0x90
   1636 F0                 4244 	movx	@dptr,a
   1637 80 09              4245 	sjmp	00111$
   1639                    4246 00104$:
                           4247 ;	LCD.c:593: else if(line == 4)
   1639 BA 04 06           4248 	cjne	r2,#0x04,00111$
                           4249 ;	LCD.c:594: winstLCD = cursorHomeL4;
   163C 90 FF C2           4250 	mov	dptr,#_winstLCD
   163F 74 D0              4251 	mov	a,#0xD0
   1641 F0                 4252 	movx	@dptr,a
   1642                    4253 00111$:
                           4254 ;	LCD.c:596: delay(10,0);
   1642 90s00r00           4255 	mov	dptr,#_delay_PARM_2
   1645 E4                 4256 	clr	a
   1646 F0                 4257 	movx	@dptr,a
   1647 90 00 0A           4258 	mov	dptr,#0x000A
   164A 02s00r00           4259 	ljmp	_delay
                           4260 ;------------------------------------------------------------
                           4261 ;Allocation info for local variables in function 'setPlayerCursor'
                           4262 ;------------------------------------------------------------
                           4263 ;pcol                      Allocated with name '_setPlayerCursor_PARM_2'
                           4264 ;sline                     Allocated with name '_setPlayerCursor_PARM_3'
                           4265 ;scol                      Allocated with name '_setPlayerCursor_PARM_4'
                           4266 ;pline                     Allocated with name '_setPlayerCursor_pline_1_1'
                           4267 ;n                         Allocated with name '_setPlayerCursor_n_1_1'
                           4268 ;------------------------------------------------------------
                           4269 ;	LCD.c:601: void setPlayerCursor(unsigned char pline, unsigned char pcol, unsigned char sline, unsigned char scol){
                           4270 ;	-----------------------------------------
                           4271 ;	 function setPlayerCursor
                           4272 ;	-----------------------------------------
   164D                    4273 _setPlayerCursor:
   164D E5 82              4274 	mov	a,dpl
   164F 90s01rD9           4275 	mov	dptr,#_setPlayerCursor_pline_1_1
   1652 F0                 4276 	movx	@dptr,a
                           4277 ;	LCD.c:605: for(n = 0; n < 8 ;n++)
   1653 90s01rD9           4278 	mov	dptr,#_setPlayerCursor_pline_1_1
   1656 E0                 4279 	movx	a,@dptr
   1657 FA                 4280 	mov	r2,a
   1658 1A                 4281 	dec	r2
   1659 EA                 4282 	mov	a,r2
   165A C4                 4283 	swap	a
   165B 54 F0              4284 	anl	a,#0xf0
   165D 24r48              4285 	add	a,#_map
   165F FA                 4286 	mov	r2,a
   1660 E4                 4287 	clr	a
   1661 34s00              4288 	addc	a,#(_map >> 8)
   1663 FB                 4289 	mov	r3,a
   1664 90s01rD6           4290 	mov	dptr,#_setPlayerCursor_PARM_2
   1667 E0                 4291 	movx	a,@dptr
   1668 14                 4292 	dec	a
   1669 2A                 4293 	add	a,r2
   166A FA                 4294 	mov	r2,a
   166B E4                 4295 	clr	a
   166C 3B                 4296 	addc	a,r3
   166D FB                 4297 	mov	r3,a
   166E 7C 00              4298 	mov	r4,#0x00
   1670                    4299 00101$:
   1670 BC 08 00           4300 	cjne	r4,#0x08,00117$
   1673                    4301 00117$:
   1673 50 2D              4302 	jnc	00104$
                           4303 ;	LCD.c:606: point.adds[n]= SCmap[map[pline-1][pcol-1].schar-1].adds[n];
   1675 EC                 4304 	mov	a,r4
   1676 24r00              4305 	add	a,#_point
   1678 FD                 4306 	mov	r5,a
   1679 E4                 4307 	clr	a
   167A 34s00              4308 	addc	a,#(_point >> 8)
   167C FE                 4309 	mov	r6,a
   167D 8A 82              4310 	mov	dpl,r2
   167F 8B 83              4311 	mov	dph,r3
   1681 E0                 4312 	movx	a,@dptr
   1682 FF                 4313 	mov	r7,a
   1683 1F                 4314 	dec	r7
   1684 EF                 4315 	mov	a,r7
   1685 C4                 4316 	swap	a
   1686 03                 4317 	rr	a
   1687 54 F8              4318 	anl	a,#0xf8
   1689 24r08              4319 	add	a,#_SCmap
   168B FF                 4320 	mov	r7,a
   168C E4                 4321 	clr	a
   168D 34s00              4322 	addc	a,#(_SCmap >> 8)
   168F F8                 4323 	mov	r0,a
   1690 EC                 4324 	mov	a,r4
   1691 2F                 4325 	add	a,r7
   1692 F5 82              4326 	mov	dpl,a
   1694 E4                 4327 	clr	a
   1695 38                 4328 	addc	a,r0
   1696 F5 83              4329 	mov	dph,a
   1698 E0                 4330 	movx	a,@dptr
   1699 FF                 4331 	mov	r7,a
   169A 8D 82              4332 	mov	dpl,r5
   169C 8E 83              4333 	mov	dph,r6
   169E F0                 4334 	movx	@dptr,a
                           4335 ;	LCD.c:605: for(n = 0; n < 8 ;n++)
   169F 0C                 4336 	inc	r4
   16A0 80 CE              4337 	sjmp	00101$
   16A2                    4338 00104$:
                           4339 ;	LCD.c:608: point.adds[sline-1] += pow(2,5-scol);
   16A2 90s01rD7           4340 	mov	dptr,#_setPlayerCursor_PARM_3
   16A5 E0                 4341 	movx	a,@dptr
   16A6 14                 4342 	dec	a
   16A7 24r00              4343 	add	a,#_point
   16A9 FA                 4344 	mov	r2,a
   16AA E4                 4345 	clr	a
   16AB 34s00              4346 	addc	a,#(_point >> 8)
   16AD FB                 4347 	mov	r3,a
   16AE 8A 04              4348 	mov	ar4,r2
   16B0 8B 05              4349 	mov	ar5,r3
   16B2 90s01rD8           4350 	mov	dptr,#_setPlayerCursor_PARM_4
   16B5 E0                 4351 	movx	a,@dptr
   16B6 FE                 4352 	mov	r6,a
   16B7 90s00r00           4353 	mov	dptr,#_pow_PARM_2
   16BA 74 05              4354 	mov	a,#0x05
   16BC C3                 4355 	clr	c
   16BD 9E                 4356 	subb	a,r6
   16BE F0                 4357 	movx	@dptr,a
   16BF 75 82 02           4358 	mov	dpl,#0x02
   16C2 C0 02              4359 	push	ar2
   16C4 C0 03              4360 	push	ar3
   16C6 C0 04              4361 	push	ar4
   16C8 C0 05              4362 	push	ar5
   16CA 12s00r00           4363 	lcall	_pow
   16CD AE 82              4364 	mov	r6,dpl
   16CF D0 05              4365 	pop	ar5
   16D1 D0 04              4366 	pop	ar4
   16D3 D0 03              4367 	pop	ar3
   16D5 D0 02              4368 	pop	ar2
   16D7 8C 82              4369 	mov	dpl,r4
   16D9 8D 83              4370 	mov	dph,r5
   16DB E0                 4371 	movx	a,@dptr
   16DC 2E                 4372 	add	a,r6
   16DD 8A 82              4373 	mov	dpl,r2
   16DF 8B 83              4374 	mov	dph,r3
   16E1 F0                 4375 	movx	@dptr,a
                           4376 ;	LCD.c:610: winstLCD = 0x40;    				 // Atribuindo primeiro endereo da CGRAM
   16E2 90 FF C2           4377 	mov	dptr,#_winstLCD
   16E5 74 40              4378 	mov	a,#0x40
   16E7 F0                 4379 	movx	@dptr,a
                           4380 ;	LCD.c:611: delay(10,0);
   16E8 90s00r00           4381 	mov	dptr,#_delay_PARM_2
   16EB E4                 4382 	clr	a
   16EC F0                 4383 	movx	@dptr,a
   16ED 90 00 0A           4384 	mov	dptr,#0x000A
   16F0 12s00r00           4385 	lcall	_delay
                           4386 ;	LCD.c:614: for(n = 0; n < 8 ;n++){
   16F3 7A 00              4387 	mov	r2,#0x00
   16F5                    4388 00105$:
   16F5 BA 08 00           4389 	cjne	r2,#0x08,00119$
   16F8                    4390 00119$:
   16F8 50 21              4391 	jnc	00109$
                           4392 ;	LCD.c:615: wdataLCD = point.adds[n];                // Atribuindo escrita
   16FA EA                 4393 	mov	a,r2
   16FB 24r00              4394 	add	a,#_point
   16FD F5 82              4395 	mov	dpl,a
   16FF E4                 4396 	clr	a
   1700 34s00              4397 	addc	a,#(_point >> 8)
   1702 F5 83              4398 	mov	dph,a
   1704 E0                 4399 	movx	a,@dptr
   1705 90 FF D2           4400 	mov	dptr,#_wdataLCD
   1708 F0                 4401 	movx	@dptr,a
                           4402 ;	LCD.c:616: delay(10,0);
   1709 90s00r00           4403 	mov	dptr,#_delay_PARM_2
   170C E4                 4404 	clr	a
   170D F0                 4405 	movx	@dptr,a
   170E 90 00 0A           4406 	mov	dptr,#0x000A
   1711 C0 02              4407 	push	ar2
   1713 12s00r00           4408 	lcall	_delay
   1716 D0 02              4409 	pop	ar2
                           4410 ;	LCD.c:614: for(n = 0; n < 8 ;n++){
   1718 0A                 4411 	inc	r2
   1719 80 DA              4412 	sjmp	00105$
   171B                    4413 00109$:
   171B 22                 4414 	ret
                           4415 ;------------------------------------------------------------
                           4416 ;Allocation info for local variables in function 'clearLCD'
                           4417 ;------------------------------------------------------------
                           4418 ;------------------------------------------------------------
                           4419 ;	LCD.c:620: void clearLCD(){
                           4420 ;	-----------------------------------------
                           4421 ;	 function clearLCD
                           4422 ;	-----------------------------------------
   171C                    4423 _clearLCD:
                           4424 ;	LCD.c:621: winstLCD = clearDisp;						// Atribuindo instrucao
   171C 90 FF C2           4425 	mov	dptr,#_winstLCD
   171F 74 01              4426 	mov	a,#0x01
   1721 F0                 4427 	movx	@dptr,a
                           4428 ;	LCD.c:622: delay(10,0);								// Delay 10 microsegundos
   1722 90s00r00           4429 	mov	dptr,#_delay_PARM_2
   1725 E4                 4430 	clr	a
   1726 F0                 4431 	movx	@dptr,a
   1727 90 00 0A           4432 	mov	dptr,#0x000A
   172A 12s00r00           4433 	lcall	_delay
                           4434 ;	LCD.c:623: winstLCD = configFunc;						// Atribuindo instrucao
   172D 90 FF C2           4435 	mov	dptr,#_winstLCD
   1730 74 3F              4436 	mov	a,#0x3F
   1732 F0                 4437 	movx	@dptr,a
                           4438 ;	LCD.c:624: delay(10,0);
   1733 90s00r00           4439 	mov	dptr,#_delay_PARM_2
   1736 E4                 4440 	clr	a
   1737 F0                 4441 	movx	@dptr,a
   1738 90 00 0A           4442 	mov	dptr,#0x000A
   173B 12s00r00           4443 	lcall	_delay
                           4444 ;	LCD.c:625: winstLCD = entryModeShift;					// Atribuindo instrucao
   173E 90 FF C2           4445 	mov	dptr,#_winstLCD
   1741 74 06              4446 	mov	a,#0x06
   1743 F0                 4447 	movx	@dptr,a
                           4448 ;	LCD.c:626: delay(10,0);
   1744 90s00r00           4449 	mov	dptr,#_delay_PARM_2
   1747 E4                 4450 	clr	a
   1748 F0                 4451 	movx	@dptr,a
   1749 90 00 0A           4452 	mov	dptr,#0x000A
   174C 12s00r00           4453 	lcall	_delay
                           4454 ;	LCD.c:627: winstLCD = onoffControl;					// Atribuindo instrucao
   174F 90 FF C2           4455 	mov	dptr,#_winstLCD
   1752 74 0C              4456 	mov	a,#0x0C
   1754 F0                 4457 	movx	@dptr,a
                           4458 ;	LCD.c:628: delay(10,0);
   1755 90s00r00           4459 	mov	dptr,#_delay_PARM_2
   1758 E4                 4460 	clr	a
   1759 F0                 4461 	movx	@dptr,a
   175A 90 00 0A           4462 	mov	dptr,#0x000A
   175D 02s00r00           4463 	ljmp	_delay
                           4464 ;------------------------------------------------------------
                           4465 ;Allocation info for local variables in function 'LCD_putTextAt'
                           4466 ;------------------------------------------------------------
                           4467 ;line                      Allocated with name '_LCD_putTextAt_PARM_2'
                           4468 ;alignment                 Allocated with name '_LCD_putTextAt_PARM_3'
                           4469 ;text                      Allocated with name '_LCD_putTextAt_text_1_1'
                           4470 ;n                         Allocated with name '_LCD_putTextAt_n_1_1'
                           4471 ;col                       Allocated with name '_LCD_putTextAt_col_1_1'
                           4472 ;size                      Allocated with name '_LCD_putTextAt_size_1_1'
                           4473 ;txt                       Allocated with name '_LCD_putTextAt_txt_1_1'
                           4474 ;------------------------------------------------------------
                           4475 ;	LCD.c:631: void LCD_putTextAt(char* text, unsigned char line, unsigned char alignment){
                           4476 ;	-----------------------------------------
                           4477 ;	 function LCD_putTextAt
                           4478 ;	-----------------------------------------
   1760                    4479 _LCD_putTextAt:
   1760 AA F0              4480 	mov	r2,b
   1762 AB 83              4481 	mov	r3,dph
   1764 E5 82              4482 	mov	a,dpl
   1766 90s01rDC           4483 	mov	dptr,#_LCD_putTextAt_text_1_1
   1769 F0                 4484 	movx	@dptr,a
   176A A3                 4485 	inc	dptr
   176B EB                 4486 	mov	a,r3
   176C F0                 4487 	movx	@dptr,a
   176D A3                 4488 	inc	dptr
   176E EA                 4489 	mov	a,r2
   176F F0                 4490 	movx	@dptr,a
                           4491 ;	LCD.c:633: unsigned char n, col = 0, size;
   1770 90s01rDF           4492 	mov	dptr,#_LCD_putTextAt_col_1_1
                           4493 ;	LCD.c:634: char txt[17] = {0};
   1773 E4                 4494 	clr	a
   1774 F0                 4495 	movx	@dptr,a
   1775 90s01rE0           4496 	mov	dptr,#_LCD_putTextAt_txt_1_1
   1778 F0                 4497 	movx	@dptr,a
   1779 90s01rE1           4498 	mov	dptr,#(_LCD_putTextAt_txt_1_1 + 0x0001)
   177C F0                 4499 	movx	@dptr,a
   177D 90s01rE2           4500 	mov	dptr,#(_LCD_putTextAt_txt_1_1 + 0x0002)
   1780 F0                 4501 	movx	@dptr,a
   1781 90s01rE3           4502 	mov	dptr,#(_LCD_putTextAt_txt_1_1 + 0x0003)
   1784 E4                 4503 	clr	a
   1785 F0                 4504 	movx	@dptr,a
   1786 90s01rE4           4505 	mov	dptr,#(_LCD_putTextAt_txt_1_1 + 0x0004)
   1789 F0                 4506 	movx	@dptr,a
   178A 90s01rE5           4507 	mov	dptr,#(_LCD_putTextAt_txt_1_1 + 0x0005)
   178D F0                 4508 	movx	@dptr,a
   178E 90s01rE6           4509 	mov	dptr,#(_LCD_putTextAt_txt_1_1 + 0x0006)
   1791 F0                 4510 	movx	@dptr,a
   1792 90s01rE7           4511 	mov	dptr,#(_LCD_putTextAt_txt_1_1 + 0x0007)
   1795 E4                 4512 	clr	a
   1796 F0                 4513 	movx	@dptr,a
   1797 90s01rE8           4514 	mov	dptr,#(_LCD_putTextAt_txt_1_1 + 0x0008)
   179A F0                 4515 	movx	@dptr,a
   179B 90s01rE9           4516 	mov	dptr,#(_LCD_putTextAt_txt_1_1 + 0x0009)
   179E F0                 4517 	movx	@dptr,a
   179F 90s01rEA           4518 	mov	dptr,#(_LCD_putTextAt_txt_1_1 + 0x000a)
   17A2 F0                 4519 	movx	@dptr,a
   17A3 90s01rEB           4520 	mov	dptr,#(_LCD_putTextAt_txt_1_1 + 0x000b)
   17A6 E4                 4521 	clr	a
   17A7 F0                 4522 	movx	@dptr,a
   17A8 90s01rEC           4523 	mov	dptr,#(_LCD_putTextAt_txt_1_1 + 0x000c)
   17AB F0                 4524 	movx	@dptr,a
   17AC 90s01rED           4525 	mov	dptr,#(_LCD_putTextAt_txt_1_1 + 0x000d)
   17AF F0                 4526 	movx	@dptr,a
   17B0 90s01rEE           4527 	mov	dptr,#(_LCD_putTextAt_txt_1_1 + 0x000e)
   17B3 F0                 4528 	movx	@dptr,a
   17B4 90s01rEF           4529 	mov	dptr,#(_LCD_putTextAt_txt_1_1 + 0x000f)
   17B7 E4                 4530 	clr	a
   17B8 F0                 4531 	movx	@dptr,a
   17B9 90s01rF0           4532 	mov	dptr,#(_LCD_putTextAt_txt_1_1 + 0x0010)
   17BC F0                 4533 	movx	@dptr,a
                           4534 ;	LCD.c:636: for(n = 0;text[n] != '\0';n++)
   17BD 90s01rDC           4535 	mov	dptr,#_LCD_putTextAt_text_1_1
   17C0 E0                 4536 	movx	a,@dptr
   17C1 FA                 4537 	mov	r2,a
   17C2 A3                 4538 	inc	dptr
   17C3 E0                 4539 	movx	a,@dptr
   17C4 FB                 4540 	mov	r3,a
   17C5 A3                 4541 	inc	dptr
   17C6 E0                 4542 	movx	a,@dptr
   17C7 FC                 4543 	mov	r4,a
   17C8 7D 00              4544 	mov	r5,#0x00
   17CA                    4545 00109$:
   17CA ED                 4546 	mov	a,r5
   17CB 2A                 4547 	add	a,r2
   17CC FE                 4548 	mov	r6,a
   17CD E4                 4549 	clr	a
   17CE 3B                 4550 	addc	a,r3
   17CF FF                 4551 	mov	r7,a
   17D0 8C 00              4552 	mov	ar0,r4
   17D2 8E 82              4553 	mov	dpl,r6
   17D4 8F 83              4554 	mov	dph,r7
   17D6 88 F0              4555 	mov	b,r0
   17D8 12s00r00           4556 	lcall	__gptrget
   17DB FE                 4557 	mov	r6,a
   17DC 60 0F              4558 	jz	00112$
                           4559 ;	LCD.c:637: txt[n] = text[n];
   17DE ED                 4560 	mov	a,r5
   17DF 24rE0              4561 	add	a,#_LCD_putTextAt_txt_1_1
   17E1 F5 82              4562 	mov	dpl,a
   17E3 E4                 4563 	clr	a
   17E4 34s01              4564 	addc	a,#(_LCD_putTextAt_txt_1_1 >> 8)
   17E6 F5 83              4565 	mov	dph,a
   17E8 EE                 4566 	mov	a,r6
   17E9 F0                 4567 	movx	@dptr,a
                           4568 ;	LCD.c:636: for(n = 0;text[n] != '\0';n++)
   17EA 0D                 4569 	inc	r5
   17EB 80 DD              4570 	sjmp	00109$
   17ED                    4571 00112$:
                           4572 ;	LCD.c:641: if (alignment == LEFT)
   17ED 90s01rDB           4573 	mov	dptr,#_LCD_putTextAt_PARM_3
   17F0 E0                 4574 	movx	a,@dptr
   17F1 FA                 4575 	mov	r2,a
   17F2 BA 01 08           4576 	cjne	r2,#0x01,00107$
                           4577 ;	LCD.c:642: col = 1;
   17F5 90s01rDF           4578 	mov	dptr,#_LCD_putTextAt_col_1_1
   17F8 74 01              4579 	mov	a,#0x01
   17FA F0                 4580 	movx	@dptr,a
   17FB 80 3A              4581 	sjmp	00108$
   17FD                    4582 00107$:
                           4583 ;	LCD.c:643: else if(alignment == CENTER)
   17FD BA 02 2C           4584 	cjne	r2,#0x02,00104$
                           4585 ;	LCD.c:644: col = (16-size)/2 + 1;
   1800 8D 03              4586 	mov	ar3,r5
   1802 7C 00              4587 	mov	r4,#0x00
   1804 74 10              4588 	mov	a,#0x10
   1806 C3                 4589 	clr	c
   1807 9B                 4590 	subb	a,r3
   1808 FB                 4591 	mov	r3,a
   1809 E4                 4592 	clr	a
   180A 9C                 4593 	subb	a,r4
   180B FC                 4594 	mov	r4,a
   180C 90s00r00           4595 	mov	dptr,#__divsint_PARM_2
   180F 74 02              4596 	mov	a,#0x02
   1811 F0                 4597 	movx	@dptr,a
   1812 E4                 4598 	clr	a
   1813 A3                 4599 	inc	dptr
   1814 F0                 4600 	movx	@dptr,a
   1815 8B 82              4601 	mov	dpl,r3
   1817 8C 83              4602 	mov	dph,r4
   1819 C0 05              4603 	push	ar5
   181B 12s00r00           4604 	lcall	__divsint
   181E AB 82              4605 	mov	r3,dpl
   1820 AC 83              4606 	mov	r4,dph
   1822 D0 05              4607 	pop	ar5
   1824 90s01rDF           4608 	mov	dptr,#_LCD_putTextAt_col_1_1
   1827 EB                 4609 	mov	a,r3
   1828 04                 4610 	inc	a
   1829 F0                 4611 	movx	@dptr,a
   182A 80 0B              4612 	sjmp	00108$
   182C                    4613 00104$:
                           4614 ;	LCD.c:645: else if(alignment == RIGHT)
   182C BA 03 08           4615 	cjne	r2,#0x03,00108$
                           4616 ;	LCD.c:646: col = (16-size);
   182F 90s01rDF           4617 	mov	dptr,#_LCD_putTextAt_col_1_1
   1832 74 10              4618 	mov	a,#0x10
   1834 C3                 4619 	clr	c
   1835 9D                 4620 	subb	a,r5
   1836 F0                 4621 	movx	@dptr,a
   1837                    4622 00108$:
                           4623 ;	LCD.c:648: setCursorAt(line, col);
   1837 90s01rDA           4624 	mov	dptr,#_LCD_putTextAt_PARM_2
   183A E0                 4625 	movx	a,@dptr
   183B FA                 4626 	mov	r2,a
   183C 90s01rDF           4627 	mov	dptr,#_LCD_putTextAt_col_1_1
   183F E0                 4628 	movx	a,@dptr
   1840 90s00r8F           4629 	mov	dptr,#_setCursorAt_PARM_2
   1843 F0                 4630 	movx	@dptr,a
   1844 8A 82              4631 	mov	dpl,r2
   1846 C0 05              4632 	push	ar5
   1848 12s00r44           4633 	lcall	_setCursorAt
   184B D0 05              4634 	pop	ar5
                           4635 ;	LCD.c:650: for(n = 0; n<size; n++)
   184D 8D 02              4636 	mov	ar2,r5
   184F 7B 00              4637 	mov	r3,#0x00
   1851                    4638 00113$:
   1851 C3                 4639 	clr	c
   1852 EB                 4640 	mov	a,r3
   1853 9A                 4641 	subb	a,r2
   1854 50 1B              4642 	jnc	00117$
                           4643 ;	LCD.c:651: setChar(txt[n]);
   1856 EB                 4644 	mov	a,r3
   1857 24rE0              4645 	add	a,#_LCD_putTextAt_txt_1_1
   1859 F5 82              4646 	mov	dpl,a
   185B E4                 4647 	clr	a
   185C 34s01              4648 	addc	a,#(_LCD_putTextAt_txt_1_1 >> 8)
   185E F5 83              4649 	mov	dph,a
   1860 E0                 4650 	movx	a,@dptr
   1861 F5 82              4651 	mov	dpl,a
   1863 C0 02              4652 	push	ar2
   1865 C0 03              4653 	push	ar3
   1867 12s00r9C           4654 	lcall	_setChar
   186A D0 03              4655 	pop	ar3
   186C D0 02              4656 	pop	ar2
                           4657 ;	LCD.c:650: for(n = 0; n<size; n++)
   186E 0B                 4658 	inc	r3
   186F 80 E0              4659 	sjmp	00113$
   1871                    4660 00117$:
   1871 22                 4661 	ret
                           4662 ;------------------------------------------------------------
                           4663 ;Allocation info for local variables in function 'LCD_putText'
                           4664 ;------------------------------------------------------------
                           4665 ;sloc0                     Allocated with name '_LCD_putText_sloc0_1_0'
                           4666 ;sloc1                     Allocated with name '_LCD_putText_sloc1_1_0'
                           4667 ;sloc2                     Allocated with name '_LCD_putText_sloc2_1_0'
                           4668 ;sloc3                     Allocated with name '_LCD_putText_sloc3_1_0'
                           4669 ;line                      Allocated with name '_LCD_putText_PARM_2'
                           4670 ;time                      Allocated with name '_LCD_putText_PARM_3'
                           4671 ;text                      Allocated with name '_LCD_putText_text_1_1'
                           4672 ;i                         Allocated with name '_LCD_putText_i_1_1'
                           4673 ;j                         Allocated with name '_LCD_putText_j_1_1'
                           4674 ;k                         Allocated with name '_LCD_putText_k_1_1'
                           4675 ;size                      Allocated with name '_LCD_putText_size_1_1'
                           4676 ;control                   Allocated with name '_LCD_putText_control_1_1'
                           4677 ;chr                       Allocated with name '_LCD_putText_chr_1_1'
                           4678 ;txt                       Allocated with name '_LCD_putText_txt_1_1'
                           4679 ;------------------------------------------------------------
                           4680 ;	LCD.c:655: unsigned char LCD_putText(char* text, unsigned char line, unsigned int time){
                           4681 ;	-----------------------------------------
                           4682 ;	 function LCD_putText
                           4683 ;	-----------------------------------------
   1872                    4684 _LCD_putText:
   1872 AA F0              4685 	mov	r2,b
   1874 AB 83              4686 	mov	r3,dph
   1876 E5 82              4687 	mov	a,dpl
   1878 90s01rF4           4688 	mov	dptr,#_LCD_putText_text_1_1
   187B F0                 4689 	movx	@dptr,a
   187C A3                 4690 	inc	dptr
   187D EB                 4691 	mov	a,r3
   187E F0                 4692 	movx	@dptr,a
   187F A3                 4693 	inc	dptr
   1880 EA                 4694 	mov	a,r2
   1881 F0                 4695 	movx	@dptr,a
                           4696 ;	LCD.c:657: unsigned char i = 0, j = 0, k =0,size, control = 1;
   1882 90s01rF7           4697 	mov	dptr,#_LCD_putText_control_1_1
   1885 74 01              4698 	mov	a,#0x01
   1887 F0                 4699 	movx	@dptr,a
                           4700 ;	LCD.c:659: char txt[50] = {0};
   1888 90s01rF8           4701 	mov	dptr,#_LCD_putText_txt_1_1
   188B E4                 4702 	clr	a
   188C F0                 4703 	movx	@dptr,a
   188D 90s01rF9           4704 	mov	dptr,#(_LCD_putText_txt_1_1 + 0x0001)
   1890 F0                 4705 	movx	@dptr,a
   1891 90s01rFA           4706 	mov	dptr,#(_LCD_putText_txt_1_1 + 0x0002)
   1894 F0                 4707 	movx	@dptr,a
   1895 90s01rFB           4708 	mov	dptr,#(_LCD_putText_txt_1_1 + 0x0003)
   1898 F0                 4709 	movx	@dptr,a
   1899 90s01rFC           4710 	mov	dptr,#(_LCD_putText_txt_1_1 + 0x0004)
   189C E4                 4711 	clr	a
   189D F0                 4712 	movx	@dptr,a
   189E 90s01rFD           4713 	mov	dptr,#(_LCD_putText_txt_1_1 + 0x0005)
   18A1 F0                 4714 	movx	@dptr,a
   18A2 90s01rFE           4715 	mov	dptr,#(_LCD_putText_txt_1_1 + 0x0006)
   18A5 F0                 4716 	movx	@dptr,a
   18A6 90s01rFF           4717 	mov	dptr,#(_LCD_putText_txt_1_1 + 0x0007)
   18A9 F0                 4718 	movx	@dptr,a
   18AA 90s02r00           4719 	mov	dptr,#(_LCD_putText_txt_1_1 + 0x0008)
   18AD E4                 4720 	clr	a
   18AE F0                 4721 	movx	@dptr,a
   18AF 90s02r01           4722 	mov	dptr,#(_LCD_putText_txt_1_1 + 0x0009)
   18B2 F0                 4723 	movx	@dptr,a
   18B3 90s02r02           4724 	mov	dptr,#(_LCD_putText_txt_1_1 + 0x000a)
   18B6 F0                 4725 	movx	@dptr,a
   18B7 90s02r03           4726 	mov	dptr,#(_LCD_putText_txt_1_1 + 0x000b)
   18BA F0                 4727 	movx	@dptr,a
   18BB 90s02r04           4728 	mov	dptr,#(_LCD_putText_txt_1_1 + 0x000c)
   18BE E4                 4729 	clr	a
   18BF F0                 4730 	movx	@dptr,a
   18C0 90s02r05           4731 	mov	dptr,#(_LCD_putText_txt_1_1 + 0x000d)
   18C3 F0                 4732 	movx	@dptr,a
   18C4 90s02r06           4733 	mov	dptr,#(_LCD_putText_txt_1_1 + 0x000e)
   18C7 F0                 4734 	movx	@dptr,a
   18C8 90s02r07           4735 	mov	dptr,#(_LCD_putText_txt_1_1 + 0x000f)
   18CB F0                 4736 	movx	@dptr,a
   18CC 90s02r08           4737 	mov	dptr,#(_LCD_putText_txt_1_1 + 0x0010)
   18CF E4                 4738 	clr	a
   18D0 F0                 4739 	movx	@dptr,a
   18D1 90s02r09           4740 	mov	dptr,#(_LCD_putText_txt_1_1 + 0x0011)
   18D4 F0                 4741 	movx	@dptr,a
   18D5 90s02r0A           4742 	mov	dptr,#(_LCD_putText_txt_1_1 + 0x0012)
   18D8 F0                 4743 	movx	@dptr,a
   18D9 90s02r0B           4744 	mov	dptr,#(_LCD_putText_txt_1_1 + 0x0013)
   18DC F0                 4745 	movx	@dptr,a
   18DD 90s02r0C           4746 	mov	dptr,#(_LCD_putText_txt_1_1 + 0x0014)
   18E0 E4                 4747 	clr	a
   18E1 F0                 4748 	movx	@dptr,a
   18E2 90s02r0D           4749 	mov	dptr,#(_LCD_putText_txt_1_1 + 0x0015)
   18E5 F0                 4750 	movx	@dptr,a
   18E6 90s02r0E           4751 	mov	dptr,#(_LCD_putText_txt_1_1 + 0x0016)
   18E9 F0                 4752 	movx	@dptr,a
   18EA 90s02r0F           4753 	mov	dptr,#(_LCD_putText_txt_1_1 + 0x0017)
   18ED F0                 4754 	movx	@dptr,a
   18EE 90s02r10           4755 	mov	dptr,#(_LCD_putText_txt_1_1 + 0x0018)
   18F1 E4                 4756 	clr	a
   18F2 F0                 4757 	movx	@dptr,a
   18F3 90s02r11           4758 	mov	dptr,#(_LCD_putText_txt_1_1 + 0x0019)
   18F6 F0                 4759 	movx	@dptr,a
   18F7 90s02r12           4760 	mov	dptr,#(_LCD_putText_txt_1_1 + 0x001a)
   18FA F0                 4761 	movx	@dptr,a
   18FB 90s02r13           4762 	mov	dptr,#(_LCD_putText_txt_1_1 + 0x001b)
   18FE F0                 4763 	movx	@dptr,a
   18FF 90s02r14           4764 	mov	dptr,#(_LCD_putText_txt_1_1 + 0x001c)
   1902 E4                 4765 	clr	a
   1903 F0                 4766 	movx	@dptr,a
   1904 90s02r15           4767 	mov	dptr,#(_LCD_putText_txt_1_1 + 0x001d)
   1907 F0                 4768 	movx	@dptr,a
   1908 90s02r16           4769 	mov	dptr,#(_LCD_putText_txt_1_1 + 0x001e)
   190B F0                 4770 	movx	@dptr,a
   190C 90s02r17           4771 	mov	dptr,#(_LCD_putText_txt_1_1 + 0x001f)
   190F F0                 4772 	movx	@dptr,a
   1910 90s02r18           4773 	mov	dptr,#(_LCD_putText_txt_1_1 + 0x0020)
   1913 E4                 4774 	clr	a
   1914 F0                 4775 	movx	@dptr,a
   1915 90s02r19           4776 	mov	dptr,#(_LCD_putText_txt_1_1 + 0x0021)
   1918 F0                 4777 	movx	@dptr,a
   1919 90s02r1A           4778 	mov	dptr,#(_LCD_putText_txt_1_1 + 0x0022)
   191C F0                 4779 	movx	@dptr,a
   191D 90s02r1B           4780 	mov	dptr,#(_LCD_putText_txt_1_1 + 0x0023)
   1920 F0                 4781 	movx	@dptr,a
   1921 90s02r1C           4782 	mov	dptr,#(_LCD_putText_txt_1_1 + 0x0024)
   1924 E4                 4783 	clr	a
   1925 F0                 4784 	movx	@dptr,a
   1926 90s02r1D           4785 	mov	dptr,#(_LCD_putText_txt_1_1 + 0x0025)
   1929 F0                 4786 	movx	@dptr,a
   192A 90s02r1E           4787 	mov	dptr,#(_LCD_putText_txt_1_1 + 0x0026)
   192D F0                 4788 	movx	@dptr,a
   192E 90s02r1F           4789 	mov	dptr,#(_LCD_putText_txt_1_1 + 0x0027)
   1931 F0                 4790 	movx	@dptr,a
   1932 90s02r20           4791 	mov	dptr,#(_LCD_putText_txt_1_1 + 0x0028)
   1935 E4                 4792 	clr	a
   1936 F0                 4793 	movx	@dptr,a
   1937 90s02r21           4794 	mov	dptr,#(_LCD_putText_txt_1_1 + 0x0029)
   193A F0                 4795 	movx	@dptr,a
   193B 90s02r22           4796 	mov	dptr,#(_LCD_putText_txt_1_1 + 0x002a)
   193E F0                 4797 	movx	@dptr,a
   193F 90s02r23           4798 	mov	dptr,#(_LCD_putText_txt_1_1 + 0x002b)
   1942 F0                 4799 	movx	@dptr,a
   1943 90s02r24           4800 	mov	dptr,#(_LCD_putText_txt_1_1 + 0x002c)
   1946 E4                 4801 	clr	a
   1947 F0                 4802 	movx	@dptr,a
   1948 90s02r25           4803 	mov	dptr,#(_LCD_putText_txt_1_1 + 0x002d)
   194B F0                 4804 	movx	@dptr,a
   194C 90s02r26           4805 	mov	dptr,#(_LCD_putText_txt_1_1 + 0x002e)
   194F F0                 4806 	movx	@dptr,a
   1950 90s02r27           4807 	mov	dptr,#(_LCD_putText_txt_1_1 + 0x002f)
   1953 F0                 4808 	movx	@dptr,a
   1954 90s02r28           4809 	mov	dptr,#(_LCD_putText_txt_1_1 + 0x0030)
   1957 E4                 4810 	clr	a
   1958 F0                 4811 	movx	@dptr,a
   1959 90s02r29           4812 	mov	dptr,#(_LCD_putText_txt_1_1 + 0x0031)
   195C F0                 4813 	movx	@dptr,a
                           4814 ;	LCD.c:661: for(i = 0;text[i] != '\0';i++)
   195D 90s01rF4           4815 	mov	dptr,#_LCD_putText_text_1_1
   1960 E0                 4816 	movx	a,@dptr
   1961 FA                 4817 	mov	r2,a
   1962 A3                 4818 	inc	dptr
   1963 E0                 4819 	movx	a,@dptr
   1964 FB                 4820 	mov	r3,a
   1965 A3                 4821 	inc	dptr
   1966 E0                 4822 	movx	a,@dptr
   1967 FC                 4823 	mov	r4,a
   1968 7D 00              4824 	mov	r5,#0x00
   196A                    4825 00108$:
   196A ED                 4826 	mov	a,r5
   196B 2A                 4827 	add	a,r2
   196C FE                 4828 	mov	r6,a
   196D E4                 4829 	clr	a
   196E 3B                 4830 	addc	a,r3
   196F FF                 4831 	mov	r7,a
   1970 8C 00              4832 	mov	ar0,r4
   1972 8E 82              4833 	mov	dpl,r6
   1974 8F 83              4834 	mov	dph,r7
   1976 88 F0              4835 	mov	b,r0
   1978 12s00r00           4836 	lcall	__gptrget
   197B FE                 4837 	mov	r6,a
   197C 60 0F              4838 	jz	00111$
                           4839 ;	LCD.c:662: txt[i] = text[i];
   197E ED                 4840 	mov	a,r5
   197F 24rF8              4841 	add	a,#_LCD_putText_txt_1_1
   1981 F5 82              4842 	mov	dpl,a
   1983 E4                 4843 	clr	a
   1984 34s01              4844 	addc	a,#(_LCD_putText_txt_1_1 >> 8)
   1986 F5 83              4845 	mov	dph,a
   1988 EE                 4846 	mov	a,r6
   1989 F0                 4847 	movx	@dptr,a
                           4848 ;	LCD.c:661: for(i = 0;text[i] != '\0';i++)
   198A 0D                 4849 	inc	r5
   198B 80 DD              4850 	sjmp	00108$
   198D                    4851 00111$:
                           4852 ;	LCD.c:664: txt[i] = text[i];
   198D ED                 4853 	mov	a,r5
   198E 24rF8              4854 	add	a,#_LCD_putText_txt_1_1
   1990 F5 82              4855 	mov	dpl,a
   1992 E4                 4856 	clr	a
   1993 34s01              4857 	addc	a,#(_LCD_putText_txt_1_1 >> 8)
   1995 F5 83              4858 	mov	dph,a
   1997 EE                 4859 	mov	a,r6
   1998 F0                 4860 	movx	@dptr,a
                           4861 ;	LCD.c:667: for(i=0;i < size && control ==1 ;i++){
   1999 90s01rF1           4862 	mov	dptr,#_LCD_putText_PARM_2
   199C E0                 4863 	movx	a,@dptr
   199D F5*03              4864 	mov	_LCD_putText_sloc3_1_0,a
   199F 90s01rF2           4865 	mov	dptr,#_LCD_putText_PARM_3
   19A2 E0                 4866 	movx	a,@dptr
   19A3 FB                 4867 	mov	r3,a
   19A4 A3                 4868 	inc	dptr
   19A5 E0                 4869 	movx	a,@dptr
   19A6 FC                 4870 	mov	r4,a
   19A7 ED                 4871 	mov	a,r5
   19A8 FE                 4872 	mov	r6,a
   19A9 14                 4873 	dec	a
   19AA FF                 4874 	mov	r7,a
   19AB 78 00              4875 	mov	r0,#0x00
   19AD                    4876 00104$:
   19AD C3                 4877 	clr	c
   19AE E8                 4878 	mov	a,r0
   19AF 9D                 4879 	subb	a,r5
   19B0 40 03              4880 	jc	00141$
   19B2 02s1ArCB           4881 	ljmp	00107$
   19B5                    4882 00141$:
   19B5 90s01rF7           4883 	mov	dptr,#_LCD_putText_control_1_1
   19B8 E0                 4884 	movx	a,@dptr
   19B9 F9                 4885 	mov	r1,a
   19BA E4                 4886 	clr	a
   19BB B9 01 01           4887 	cjne	r1,#0x01,00142$
   19BE 04                 4888 	inc	a
   19BF                    4889 00142$:
   19BF F9                 4890 	mov	r1,a
   19C0 70 03              4891 	jnz	00144$
   19C2 02s1ArCB           4892 	ljmp	00107$
   19C5                    4893 00144$:
                           4894 ;	LCD.c:669: setCursorHomeAtLine(line);
   19C5 85*03 82           4895 	mov	dpl,_LCD_putText_sloc3_1_0
   19C8 C0 03              4896 	push	ar3
   19CA C0 04              4897 	push	ar4
   19CC C0 05              4898 	push	ar5
   19CE C0 06              4899 	push	ar6
   19D0 C0 07              4900 	push	ar7
   19D2 C0 00              4901 	push	ar0
   19D4 C0 01              4902 	push	ar1
   19D6 12s16r0D           4903 	lcall	_setCursorHomeAtLine
   19D9 D0 01              4904 	pop	ar1
   19DB D0 00              4905 	pop	ar0
   19DD D0 07              4906 	pop	ar7
   19DF D0 06              4907 	pop	ar6
   19E1 D0 05              4908 	pop	ar5
   19E3 D0 04              4909 	pop	ar4
   19E5 D0 03              4910 	pop	ar3
                           4911 ;	LCD.c:671: for(j = 0; j<16 && control ==1;j++)
   19E7 75*00 00           4912 	mov	_LCD_putText_sloc0_1_0,#0x00
   19EA                    4913 00113$:
   19EA 74 F0              4914 	mov	a,#0x100 - 0x10
   19EC 25*00              4915 	add	a,_LCD_putText_sloc0_1_0
   19EE 40 39              4916 	jc	00116$
   19F0 E9                 4917 	mov	a,r1
   19F1 60 36              4918 	jz	00116$
                           4919 ;	LCD.c:672: setChar(txt[j]);				// Atribuindo escrita
   19F3 C0 07              4920 	push	ar7
   19F5 E5*00              4921 	mov	a,_LCD_putText_sloc0_1_0
   19F7 24rF8              4922 	add	a,#_LCD_putText_txt_1_1
   19F9 F5 82              4923 	mov	dpl,a
   19FB E4                 4924 	clr	a
   19FC 34s01              4925 	addc	a,#(_LCD_putText_txt_1_1 >> 8)
   19FE F5 83              4926 	mov	dph,a
   1A00 E0                 4927 	movx	a,@dptr
   1A01 FF                 4928 	mov	r7,a
   1A02 F5 82              4929 	mov	dpl,a
   1A04 C0 03              4930 	push	ar3
   1A06 C0 04              4931 	push	ar4
   1A08 C0 05              4932 	push	ar5
   1A0A C0 06              4933 	push	ar6
   1A0C C0 07              4934 	push	ar7
   1A0E C0 00              4935 	push	ar0
   1A10 C0 01              4936 	push	ar1
   1A12 12s00r9C           4937 	lcall	_setChar
   1A15 D0 01              4938 	pop	ar1
   1A17 D0 00              4939 	pop	ar0
   1A19 D0 07              4940 	pop	ar7
   1A1B D0 06              4941 	pop	ar6
   1A1D D0 05              4942 	pop	ar5
   1A1F D0 04              4943 	pop	ar4
   1A21 D0 03              4944 	pop	ar3
                           4945 ;	LCD.c:671: for(j = 0; j<16 && control ==1;j++)
   1A23 05*00              4946 	inc	_LCD_putText_sloc0_1_0
   1A25 D0 07              4947 	pop	ar7
   1A27 80 C1              4948 	sjmp	00113$
   1A29                    4949 00116$:
                           4950 ;	LCD.c:674: delay(time,1);
   1A29 90s00r00           4951 	mov	dptr,#_delay_PARM_2
   1A2C 74 01              4952 	mov	a,#0x01
   1A2E F0                 4953 	movx	@dptr,a
   1A2F 8B 82              4954 	mov	dpl,r3
   1A31 8C 83              4955 	mov	dph,r4
   1A33 C0 03              4956 	push	ar3
   1A35 C0 04              4957 	push	ar4
   1A37 C0 05              4958 	push	ar5
   1A39 C0 06              4959 	push	ar6
   1A3B C0 07              4960 	push	ar7
   1A3D C0 00              4961 	push	ar0
   1A3F 12s00r00           4962 	lcall	_delay
   1A42 D0 00              4963 	pop	ar0
   1A44 D0 07              4964 	pop	ar7
   1A46 D0 06              4965 	pop	ar6
   1A48 D0 05              4966 	pop	ar5
   1A4A D0 04              4967 	pop	ar4
   1A4C D0 03              4968 	pop	ar3
                           4969 ;	LCD.c:678: chr = txt[0];
   1A4E 90s01rF8           4970 	mov	dptr,#_LCD_putText_txt_1_1
   1A51 E0                 4971 	movx	a,@dptr
   1A52 F5*02              4972 	mov	_LCD_putText_sloc2_1_0,a
                           4973 ;	LCD.c:680: for(k = 1; k< size && control ==1;k++)
   1A54 C0 07              4974 	push	ar7
   1A56 90s01rF7           4975 	mov	dptr,#_LCD_putText_control_1_1
   1A59 E0                 4976 	movx	a,@dptr
   1A5A FF                 4977 	mov	r7,a
   1A5B E4                 4978 	clr	a
   1A5C BF 01 01           4979 	cjne	r7,#0x01,00147$
   1A5F 04                 4980 	inc	a
   1A60                    4981 00147$:
   1A60 F5*00              4982 	mov	_LCD_putText_sloc0_1_0,a
   1A62 75*01 01           4983 	mov	_LCD_putText_sloc1_1_0,#0x01
                           4984 ;	LCD.c:691: return control;
   1A65 D0 07              4985 	pop	ar7
                           4986 ;	LCD.c:680: for(k = 1; k< size && control ==1;k++)
   1A67                    4987 00118$:
   1A67 C3                 4988 	clr	c
   1A68 E5*01              4989 	mov	a,_LCD_putText_sloc1_1_0
   1A6A 9E                 4990 	subb	a,r6
   1A6B 50 28              4991 	jnc	00121$
   1A6D E5*00              4992 	mov	a,_LCD_putText_sloc0_1_0
   1A6F 60 24              4993 	jz	00121$
                           4994 ;	LCD.c:681: txt[k-1] = txt[k];
   1A71 C0 07              4995 	push	ar7
   1A73 E5*01              4996 	mov	a,_LCD_putText_sloc1_1_0
   1A75 14                 4997 	dec	a
   1A76 24rF8              4998 	add	a,#_LCD_putText_txt_1_1
   1A78 FF                 4999 	mov	r7,a
   1A79 E4                 5000 	clr	a
   1A7A 34s01              5001 	addc	a,#(_LCD_putText_txt_1_1 >> 8)
   1A7C F9                 5002 	mov	r1,a
   1A7D E5*01              5003 	mov	a,_LCD_putText_sloc1_1_0
   1A7F 24rF8              5004 	add	a,#_LCD_putText_txt_1_1
   1A81 F5 82              5005 	mov	dpl,a
   1A83 E4                 5006 	clr	a
   1A84 34s01              5007 	addc	a,#(_LCD_putText_txt_1_1 >> 8)
   1A86 F5 83              5008 	mov	dph,a
   1A88 E0                 5009 	movx	a,@dptr
   1A89 FA                 5010 	mov	r2,a
   1A8A 8F 82              5011 	mov	dpl,r7
   1A8C 89 83              5012 	mov	dph,r1
   1A8E F0                 5013 	movx	@dptr,a
                           5014 ;	LCD.c:680: for(k = 1; k< size && control ==1;k++)
   1A8F 05*01              5015 	inc	_LCD_putText_sloc1_1_0
   1A91 D0 07              5016 	pop	ar7
   1A93 80 D2              5017 	sjmp	00118$
   1A95                    5018 00121$:
                           5019 ;	LCD.c:683: txt[size-1] = chr;
   1A95 EF                 5020 	mov	a,r7
   1A96 24rF8              5021 	add	a,#_LCD_putText_txt_1_1
   1A98 F5 82              5022 	mov	dpl,a
   1A9A E4                 5023 	clr	a
   1A9B 34s01              5024 	addc	a,#(_LCD_putText_txt_1_1 >> 8)
   1A9D F5 83              5025 	mov	dph,a
   1A9F E5*02              5026 	mov	a,_LCD_putText_sloc2_1_0
   1AA1 F0                 5027 	movx	@dptr,a
                           5028 ;	LCD.c:685: control = serialBegin();
   1AA2 C0 03              5029 	push	ar3
   1AA4 C0 04              5030 	push	ar4
   1AA6 C0 05              5031 	push	ar5
   1AA8 C0 06              5032 	push	ar6
   1AAA C0 07              5033 	push	ar7
   1AAC C0 00              5034 	push	ar0
   1AAE 12s00r00           5035 	lcall	_serialBegin
   1AB1 AA 82              5036 	mov	r2,dpl
   1AB3 D0 00              5037 	pop	ar0
   1AB5 D0 07              5038 	pop	ar7
   1AB7 D0 06              5039 	pop	ar6
   1AB9 D0 05              5040 	pop	ar5
   1ABB D0 04              5041 	pop	ar4
   1ABD D0 03              5042 	pop	ar3
   1ABF 90s01rF7           5043 	mov	dptr,#_LCD_putText_control_1_1
   1AC2 EA                 5044 	mov	a,r2
   1AC3 F0                 5045 	movx	@dptr,a
                           5046 ;	LCD.c:687: if(control == 0)
   1AC4 EA                 5047 	mov	a,r2
   1AC5 60 04              5048 	jz	00107$
                           5049 ;	LCD.c:667: for(i=0;i < size && control ==1 ;i++){
   1AC7 08                 5050 	inc	r0
   1AC8 02s19rAD           5051 	ljmp	00104$
   1ACB                    5052 00107$:
                           5053 ;	LCD.c:691: return control;
   1ACB 90s01rF7           5054 	mov	dptr,#_LCD_putText_control_1_1
   1ACE E0                 5055 	movx	a,@dptr
   1ACF F5 82              5056 	mov	dpl,a
   1AD1 22                 5057 	ret
                           5058 ;------------------------------------------------------------
                           5059 ;Allocation info for local variables in function 'LCD_putCharAt'
                           5060 ;------------------------------------------------------------
                           5061 ;line                      Allocated with name '_LCD_putCharAt_PARM_2'
                           5062 ;col                       Allocated with name '_LCD_putCharAt_PARM_3'
                           5063 ;chr                       Allocated with name '_LCD_putCharAt_chr_1_1'
                           5064 ;------------------------------------------------------------
                           5065 ;	LCD.c:694: void LCD_putCharAt(char chr, unsigned char line, unsigned char col){
                           5066 ;	-----------------------------------------
                           5067 ;	 function LCD_putCharAt
                           5068 ;	-----------------------------------------
   1AD2                    5069 _LCD_putCharAt:
   1AD2 E5 82              5070 	mov	a,dpl
   1AD4 90s02r2C           5071 	mov	dptr,#_LCD_putCharAt_chr_1_1
   1AD7 F0                 5072 	movx	@dptr,a
                           5073 ;	LCD.c:695: setCursorAt(line, col);
   1AD8 90s02r2A           5074 	mov	dptr,#_LCD_putCharAt_PARM_2
   1ADB E0                 5075 	movx	a,@dptr
   1ADC FA                 5076 	mov	r2,a
   1ADD 90s02r2B           5077 	mov	dptr,#_LCD_putCharAt_PARM_3
   1AE0 E0                 5078 	movx	a,@dptr
   1AE1 90s00r8F           5079 	mov	dptr,#_setCursorAt_PARM_2
   1AE4 F0                 5080 	movx	@dptr,a
   1AE5 8A 82              5081 	mov	dpl,r2
   1AE7 12s00r44           5082 	lcall	_setCursorAt
                           5083 ;	LCD.c:696: setChar(chr);
   1AEA 90s02r2C           5084 	mov	dptr,#_LCD_putCharAt_chr_1_1
   1AED E0                 5085 	movx	a,@dptr
   1AEE F5 82              5086 	mov	dpl,a
   1AF0 02s00r9C           5087 	ljmp	_setChar
                           5088 ;------------------------------------------------------------
                           5089 ;Allocation info for local variables in function 'LCD_putSCharAt'
                           5090 ;------------------------------------------------------------
                           5091 ;scol                      Allocated with name '_LCD_putSCharAt_PARM_2'
                           5092 ;line                      Allocated with name '_LCD_putSCharAt_PARM_3'
                           5093 ;col                       Allocated with name '_LCD_putSCharAt_PARM_4'
                           5094 ;sline                     Allocated with name '_LCD_putSCharAt_sline_1_1'
                           5095 ;------------------------------------------------------------
                           5096 ;	LCD.c:699: void LCD_putSCharAt(unsigned char sline, unsigned char scol, unsigned char line, unsigned char col){
                           5097 ;	-----------------------------------------
                           5098 ;	 function LCD_putSCharAt
                           5099 ;	-----------------------------------------
   1AF3                    5100 _LCD_putSCharAt:
   1AF3 E5 82              5101 	mov	a,dpl
   1AF5 90s02r30           5102 	mov	dptr,#_LCD_putSCharAt_sline_1_1
   1AF8 F0                 5103 	movx	@dptr,a
                           5104 ;	LCD.c:700: setPlayerCursor(line,col,sline,scol);
   1AF9 90s02r2E           5105 	mov	dptr,#_LCD_putSCharAt_PARM_3
   1AFC E0                 5106 	movx	a,@dptr
   1AFD FA                 5107 	mov	r2,a
   1AFE 90s02r2F           5108 	mov	dptr,#_LCD_putSCharAt_PARM_4
   1B01 E0                 5109 	movx	a,@dptr
   1B02 FB                 5110 	mov	r3,a
   1B03 90s02r30           5111 	mov	dptr,#_LCD_putSCharAt_sline_1_1
   1B06 E0                 5112 	movx	a,@dptr
   1B07 FC                 5113 	mov	r4,a
   1B08 90s02r2D           5114 	mov	dptr,#_LCD_putSCharAt_PARM_2
   1B0B E0                 5115 	movx	a,@dptr
   1B0C FD                 5116 	mov	r5,a
   1B0D 90s01rD6           5117 	mov	dptr,#_setPlayerCursor_PARM_2
   1B10 EB                 5118 	mov	a,r3
   1B11 F0                 5119 	movx	@dptr,a
   1B12 90s01rD7           5120 	mov	dptr,#_setPlayerCursor_PARM_3
   1B15 EC                 5121 	mov	a,r4
   1B16 F0                 5122 	movx	@dptr,a
   1B17 90s01rD8           5123 	mov	dptr,#_setPlayerCursor_PARM_4
   1B1A ED                 5124 	mov	a,r5
   1B1B F0                 5125 	movx	@dptr,a
   1B1C 8A 82              5126 	mov	dpl,r2
   1B1E C0 02              5127 	push	ar2
   1B20 C0 03              5128 	push	ar3
   1B22 12s16r4D           5129 	lcall	_setPlayerCursor
   1B25 D0 03              5130 	pop	ar3
   1B27 D0 02              5131 	pop	ar2
                           5132 ;	LCD.c:701: setCursorAt(line, col);
   1B29 90s00r8F           5133 	mov	dptr,#_setCursorAt_PARM_2
   1B2C EB                 5134 	mov	a,r3
   1B2D F0                 5135 	movx	@dptr,a
   1B2E 8A 82              5136 	mov	dpl,r2
   1B30 12s00r44           5137 	lcall	_setCursorAt
                           5138 ;	LCD.c:702: setChar(0);
   1B33 75 82 00           5139 	mov	dpl,#0x00
   1B36 02s00r9C           5140 	ljmp	_setChar
                           5141 	.area CSEG    (CODE)
                           5142 	.area CONST   (CODE)
                           5143 	.area XINIT   (CODE)
   0000                    5144 __xinit__rxMsg:
   0000 00                 5145 	.db #0x00
                           5146 	.area CABS    (ABS,CODE)
