                              1 ;--------------------------------------------------------
                              2 ; File Created by SDCC : free open source ANSI-C Compiler
                              3 ; Version 2.8.2 #5199 (Jul 29 2008) (MINGW32)
                              4 ; This file was generated Tue Aug 20 11:45:55 2019
                              5 ;--------------------------------------------------------
                              6 	.module LCD
                              7 	.optsdcc -mmcs51 --model-large
                              8 	
                              9 ;--------------------------------------------------------
                             10 ; Public variables in this module
                             11 ;--------------------------------------------------------
                             12 	.globl _setPlayerCursor
                             13 	.globl _setChar
                             14 	.globl _setCursorAt
                             15 	.globl _CY
                             16 	.globl _AC
                             17 	.globl _F0
                             18 	.globl _RS1
                             19 	.globl _RS0
                             20 	.globl _OV
                             21 	.globl _F1
                             22 	.globl _P
                             23 	.globl _PS
                             24 	.globl _PT1
                             25 	.globl _PX1
                             26 	.globl _PT0
                             27 	.globl _PX0
                             28 	.globl _RD
                             29 	.globl _WR
                             30 	.globl _T1
                             31 	.globl _T0
                             32 	.globl _INT1
                             33 	.globl _INT0
                             34 	.globl _TXD
                             35 	.globl _RXD
                             36 	.globl _P3_7
                             37 	.globl _P3_6
                             38 	.globl _P3_5
                             39 	.globl _P3_4
                             40 	.globl _P3_3
                             41 	.globl _P3_2
                             42 	.globl _P3_1
                             43 	.globl _P3_0
                             44 	.globl _EA
                             45 	.globl _ES
                             46 	.globl _ET1
                             47 	.globl _EX1
                             48 	.globl _ET0
                             49 	.globl _EX0
                             50 	.globl _P2_7
                             51 	.globl _P2_6
                             52 	.globl _P2_5
                             53 	.globl _P2_4
                             54 	.globl _P2_3
                             55 	.globl _P2_2
                             56 	.globl _P2_1
                             57 	.globl _P2_0
                             58 	.globl _SM0
                             59 	.globl _SM1
                             60 	.globl _SM2
                             61 	.globl _REN
                             62 	.globl _TB8
                             63 	.globl _RB8
                             64 	.globl _TI
                             65 	.globl _RI
                             66 	.globl _P1_7
                             67 	.globl _P1_6
                             68 	.globl _P1_5
                             69 	.globl _P1_4
                             70 	.globl _P1_3
                             71 	.globl _P1_2
                             72 	.globl _P1_1
                             73 	.globl _P1_0
                             74 	.globl _TF1
                             75 	.globl _TR1
                             76 	.globl _TF0
                             77 	.globl _TR0
                             78 	.globl _IE1
                             79 	.globl _IT1
                             80 	.globl _IE0
                             81 	.globl _IT0
                             82 	.globl _P0_7
                             83 	.globl _P0_6
                             84 	.globl _P0_5
                             85 	.globl _P0_4
                             86 	.globl _P0_3
                             87 	.globl _P0_2
                             88 	.globl _P0_1
                             89 	.globl _P0_0
                             90 	.globl _B
                             91 	.globl _ACC
                             92 	.globl _PSW
                             93 	.globl _IP
                             94 	.globl _P3
                             95 	.globl _IE
                             96 	.globl _P2
                             97 	.globl _SBUF
                             98 	.globl _SCON
                             99 	.globl _P1
                            100 	.globl _TH1
                            101 	.globl _TH0
                            102 	.globl _TL1
                            103 	.globl _TL0
                            104 	.globl _TMOD
                            105 	.globl _TCON
                            106 	.globl _PCON
                            107 	.globl _DPH
                            108 	.globl _DPL
                            109 	.globl _SP
                            110 	.globl _P0
                            111 	.globl _beep2_noteTime
                            112 	.globl _beep2_melody
                            113 	.globl _beep1_noteTime
                            114 	.globl _beep1_melody
                            115 	.globl _adobe_noteTime
                            116 	.globl _adobe_melody
                            117 	.globl _underworld_noteTime
                            118 	.globl _underworld_melody
                            119 	.globl _mainMario_noteTime
                            120 	.globl _mainMario_melody
                            121 	.globl _LCD_putSCharAt_PARM_4
                            122 	.globl _LCD_putSCharAt_PARM_3
                            123 	.globl _LCD_putSCharAt_PARM_2
                            124 	.globl _LCD_putCharAt_PARM_3
                            125 	.globl _LCD_putCharAt_PARM_2
                            126 	.globl _LCD_putText_PARM_3
                            127 	.globl _LCD_putText_PARM_2
                            128 	.globl _LCD_putTextAt_PARM_3
                            129 	.globl _LCD_putTextAt_PARM_2
                            130 	.globl _setPlayerCursor_PARM_4
                            131 	.globl _setPlayerCursor_PARM_3
                            132 	.globl _setPlayerCursor_PARM_2
                            133 	.globl _configMap_PARM_2
                            134 	.globl _printMapAt_PARM_2
                            135 	.globl _setCursorAt_PARM_2
                            136 	.globl _dacWrite
                            137 	.globl _Timer0
                            138 	.globl _map
                            139 	.globl _SCmap
                            140 	.globl _LCDconfig
                            141 	.globl _printMapAt
                            142 	.globl _printMap
                            143 	.globl _setMap1CGram
                            144 	.globl _setMap2CGram
                            145 	.globl _setMap3CGram
                            146 	.globl _setMap4CGram
                            147 	.globl _setMap5CGram
                            148 	.globl _configMap
                            149 	.globl _setCursorHomeAtLine
                            150 	.globl _clearLCD
                            151 	.globl _LCD_putTextAt
                            152 	.globl _LCD_putText
                            153 	.globl _LCD_putCharAt
                            154 	.globl _LCD_putSCharAt
                            155 ;--------------------------------------------------------
                            156 ; special function registers
                            157 ;--------------------------------------------------------
                            158 	.area RSEG    (DATA)
                    0080    159 _P0	=	0x0080
                    0081    160 _SP	=	0x0081
                    0082    161 _DPL	=	0x0082
                    0083    162 _DPH	=	0x0083
                    0087    163 _PCON	=	0x0087
                    0088    164 _TCON	=	0x0088
                    0089    165 _TMOD	=	0x0089
                    008A    166 _TL0	=	0x008a
                    008B    167 _TL1	=	0x008b
                    008C    168 _TH0	=	0x008c
                    008D    169 _TH1	=	0x008d
                    0090    170 _P1	=	0x0090
                    0098    171 _SCON	=	0x0098
                    0099    172 _SBUF	=	0x0099
                    00A0    173 _P2	=	0x00a0
                    00A8    174 _IE	=	0x00a8
                    00B0    175 _P3	=	0x00b0
                    00B8    176 _IP	=	0x00b8
                    00D0    177 _PSW	=	0x00d0
                    00E0    178 _ACC	=	0x00e0
                    00F0    179 _B	=	0x00f0
                            180 ;--------------------------------------------------------
                            181 ; special function bits
                            182 ;--------------------------------------------------------
                            183 	.area RSEG    (DATA)
                    0080    184 _P0_0	=	0x0080
                    0081    185 _P0_1	=	0x0081
                    0082    186 _P0_2	=	0x0082
                    0083    187 _P0_3	=	0x0083
                    0084    188 _P0_4	=	0x0084
                    0085    189 _P0_5	=	0x0085
                    0086    190 _P0_6	=	0x0086
                    0087    191 _P0_7	=	0x0087
                    0088    192 _IT0	=	0x0088
                    0089    193 _IE0	=	0x0089
                    008A    194 _IT1	=	0x008a
                    008B    195 _IE1	=	0x008b
                    008C    196 _TR0	=	0x008c
                    008D    197 _TF0	=	0x008d
                    008E    198 _TR1	=	0x008e
                    008F    199 _TF1	=	0x008f
                    0090    200 _P1_0	=	0x0090
                    0091    201 _P1_1	=	0x0091
                    0092    202 _P1_2	=	0x0092
                    0093    203 _P1_3	=	0x0093
                    0094    204 _P1_4	=	0x0094
                    0095    205 _P1_5	=	0x0095
                    0096    206 _P1_6	=	0x0096
                    0097    207 _P1_7	=	0x0097
                    0098    208 _RI	=	0x0098
                    0099    209 _TI	=	0x0099
                    009A    210 _RB8	=	0x009a
                    009B    211 _TB8	=	0x009b
                    009C    212 _REN	=	0x009c
                    009D    213 _SM2	=	0x009d
                    009E    214 _SM1	=	0x009e
                    009F    215 _SM0	=	0x009f
                    00A0    216 _P2_0	=	0x00a0
                    00A1    217 _P2_1	=	0x00a1
                    00A2    218 _P2_2	=	0x00a2
                    00A3    219 _P2_3	=	0x00a3
                    00A4    220 _P2_4	=	0x00a4
                    00A5    221 _P2_5	=	0x00a5
                    00A6    222 _P2_6	=	0x00a6
                    00A7    223 _P2_7	=	0x00a7
                    00A8    224 _EX0	=	0x00a8
                    00A9    225 _ET0	=	0x00a9
                    00AA    226 _EX1	=	0x00aa
                    00AB    227 _ET1	=	0x00ab
                    00AC    228 _ES	=	0x00ac
                    00AF    229 _EA	=	0x00af
                    00B0    230 _P3_0	=	0x00b0
                    00B1    231 _P3_1	=	0x00b1
                    00B2    232 _P3_2	=	0x00b2
                    00B3    233 _P3_3	=	0x00b3
                    00B4    234 _P3_4	=	0x00b4
                    00B5    235 _P3_5	=	0x00b5
                    00B6    236 _P3_6	=	0x00b6
                    00B7    237 _P3_7	=	0x00b7
                    00B0    238 _RXD	=	0x00b0
                    00B1    239 _TXD	=	0x00b1
                    00B2    240 _INT0	=	0x00b2
                    00B3    241 _INT1	=	0x00b3
                    00B4    242 _T0	=	0x00b4
                    00B5    243 _T1	=	0x00b5
                    00B6    244 _WR	=	0x00b6
                    00B7    245 _RD	=	0x00b7
                    00B8    246 _PX0	=	0x00b8
                    00B9    247 _PT0	=	0x00b9
                    00BA    248 _PX1	=	0x00ba
                    00BB    249 _PT1	=	0x00bb
                    00BC    250 _PS	=	0x00bc
                    00D0    251 _P	=	0x00d0
                    00D1    252 _F1	=	0x00d1
                    00D2    253 _OV	=	0x00d2
                    00D3    254 _RS0	=	0x00d3
                    00D4    255 _RS1	=	0x00d4
                    00D5    256 _F0	=	0x00d5
                    00D6    257 _AC	=	0x00d6
                    00D7    258 _CY	=	0x00d7
                            259 ;--------------------------------------------------------
                            260 ; overlayable register banks
                            261 ;--------------------------------------------------------
                            262 	.area REG_BANK_0	(REL,OVR,DATA)
   0000                     263 	.ds 8
                            264 ;--------------------------------------------------------
                            265 ; internal ram data
                            266 ;--------------------------------------------------------
                            267 	.area DSEG    (DATA)
   0008                     268 _LCD_putText_sloc0_1_0:
   0008                     269 	.ds 1
   0009                     270 _LCD_putText_sloc1_1_0:
   0009                     271 	.ds 1
                            272 ;--------------------------------------------------------
                            273 ; overlayable items in internal ram 
                            274 ;--------------------------------------------------------
                            275 	.area OSEG    (OVR,DATA)
                            276 ;--------------------------------------------------------
                            277 ; indirectly addressable internal ram data
                            278 ;--------------------------------------------------------
                            279 	.area ISEG    (DATA)
                            280 ;--------------------------------------------------------
                            281 ; absolute internal ram data
                            282 ;--------------------------------------------------------
                            283 	.area IABS    (ABS,DATA)
                            284 	.area IABS    (ABS,DATA)
                            285 ;--------------------------------------------------------
                            286 ; bit data
                            287 ;--------------------------------------------------------
                            288 	.area BSEG    (BIT)
                            289 ;--------------------------------------------------------
                            290 ; paged external ram data
                            291 ;--------------------------------------------------------
                            292 	.area PSEG    (PAG,XDATA)
                            293 ;--------------------------------------------------------
                            294 ; external ram data
                            295 ;--------------------------------------------------------
                            296 	.area XSEG    (XDATA)
                    FFC2    297 _winstLCD	=	0xffc2
                    FFD2    298 _wdataLCD	=	0xffd2
                    FFE2    299 _rinstLCD	=	0xffe2
                    FFF2    300 _rdataLCD	=	0xfff2
   0098                     301 _point:
   0098                     302 	.ds 8
   00A0                     303 _SCmap::
   00A0                     304 	.ds 64
   00E0                     305 _map::
   00E0                     306 	.ds 64
   0120                     307 _Timer0::
   0120                     308 	.ds 7
                    FFE4    309 _dacWrite	=	0xffe4
   0127                     310 _setCursorAt_PARM_2:
   0127                     311 	.ds 1
   0128                     312 _setCursorAt_line_1_1:
   0128                     313 	.ds 1
   0129                     314 _setChar_chr_1_1:
   0129                     315 	.ds 1
   012A                     316 _printMapAt_PARM_2:
   012A                     317 	.ds 1
   012B                     318 _printMapAt_row_1_1:
   012B                     319 	.ds 1
   012C                     320 _printMap_col_1_1:
   012C                     321 	.ds 1
   012D                     322 _setMap1CGram_c0_1_1:
   012D                     323 	.ds 8
   0135                     324 _setMap1CGram_c1_1_1:
   0135                     325 	.ds 8
   013D                     326 _setMap1CGram_c2_1_1:
   013D                     327 	.ds 8
   0145                     328 _setMap1CGram_c3_1_1:
   0145                     329 	.ds 8
   014D                     330 _setMap1CGram_c4_1_1:
   014D                     331 	.ds 8
   0155                     332 _setMap1CGram_c5_1_1:
   0155                     333 	.ds 8
   015D                     334 _setMap1CGram_c6_1_1:
   015D                     335 	.ds 8
   0165                     336 _setMap1CGram_c7_1_1:
   0165                     337 	.ds 8
   016D                     338 _setMap2CGram_c0_1_1:
   016D                     339 	.ds 8
   0175                     340 _setMap2CGram_c1_1_1:
   0175                     341 	.ds 8
   017D                     342 _setMap2CGram_c2_1_1:
   017D                     343 	.ds 8
   0185                     344 _setMap2CGram_c3_1_1:
   0185                     345 	.ds 8
   018D                     346 _setMap2CGram_c4_1_1:
   018D                     347 	.ds 8
   0195                     348 _setMap2CGram_c5_1_1:
   0195                     349 	.ds 8
   019D                     350 _setMap2CGram_c6_1_1:
   019D                     351 	.ds 8
   01A5                     352 _setMap2CGram_c7_1_1:
   01A5                     353 	.ds 8
   01AD                     354 _setMap3CGram_c0_1_1:
   01AD                     355 	.ds 8
   01B5                     356 _setMap3CGram_c1_1_1:
   01B5                     357 	.ds 8
   01BD                     358 _setMap3CGram_c2_1_1:
   01BD                     359 	.ds 8
   01C5                     360 _setMap3CGram_c3_1_1:
   01C5                     361 	.ds 8
   01CD                     362 _setMap3CGram_c4_1_1:
   01CD                     363 	.ds 8
   01D5                     364 _setMap3CGram_c5_1_1:
   01D5                     365 	.ds 8
   01DD                     366 _setMap3CGram_c6_1_1:
   01DD                     367 	.ds 8
   01E5                     368 _setMap3CGram_c7_1_1:
   01E5                     369 	.ds 8
   01ED                     370 _setMap4CGram_c0_1_1:
   01ED                     371 	.ds 8
   01F5                     372 _setMap4CGram_c1_1_1:
   01F5                     373 	.ds 8
   01FD                     374 _setMap4CGram_c2_1_1:
   01FD                     375 	.ds 8
   0205                     376 _setMap4CGram_c3_1_1:
   0205                     377 	.ds 8
   020D                     378 _setMap4CGram_c4_1_1:
   020D                     379 	.ds 8
   0215                     380 _setMap4CGram_c5_1_1:
   0215                     381 	.ds 8
   021D                     382 _setMap4CGram_c6_1_1:
   021D                     383 	.ds 8
   0225                     384 _setMap4CGram_c7_1_1:
   0225                     385 	.ds 8
   022D                     386 _setMap5CGram_c0_1_1:
   022D                     387 	.ds 8
   0235                     388 _setMap5CGram_c1_1_1:
   0235                     389 	.ds 8
   023D                     390 _setMap5CGram_c2_1_1:
   023D                     391 	.ds 8
   0245                     392 _setMap5CGram_c3_1_1:
   0245                     393 	.ds 8
   024D                     394 _setMap5CGram_c4_1_1:
   024D                     395 	.ds 8
   0255                     396 _setMap5CGram_c5_1_1:
   0255                     397 	.ds 8
   025D                     398 _setMap5CGram_c6_1_1:
   025D                     399 	.ds 8
   0265                     400 _setMap5CGram_c7_1_1:
   0265                     401 	.ds 8
   026D                     402 _configMap_PARM_2:
   026D                     403 	.ds 1
   026E                     404 _configMap_pline_1_1:
   026E                     405 	.ds 1
   026F                     406 _setCursorHomeAtLine_line_1_1:
   026F                     407 	.ds 1
   0270                     408 _setPlayerCursor_PARM_2:
   0270                     409 	.ds 1
   0271                     410 _setPlayerCursor_PARM_3:
   0271                     411 	.ds 1
   0272                     412 _setPlayerCursor_PARM_4:
   0272                     413 	.ds 1
   0273                     414 _setPlayerCursor_pline_1_1:
   0273                     415 	.ds 1
   0274                     416 _LCD_putTextAt_PARM_2:
   0274                     417 	.ds 1
   0275                     418 _LCD_putTextAt_PARM_3:
   0275                     419 	.ds 1
   0276                     420 _LCD_putTextAt_text_1_1:
   0276                     421 	.ds 3
   0279                     422 _LCD_putTextAt_col_1_1:
   0279                     423 	.ds 1
   027A                     424 _LCD_putTextAt_txt_1_1:
   027A                     425 	.ds 17
   028B                     426 _LCD_putText_PARM_2:
   028B                     427 	.ds 1
   028C                     428 _LCD_putText_PARM_3:
   028C                     429 	.ds 2
   028E                     430 _LCD_putText_text_1_1:
   028E                     431 	.ds 3
   0291                     432 _LCD_putText_control_1_1:
   0291                     433 	.ds 1
   0292                     434 _LCD_putText_txt_1_1:
   0292                     435 	.ds 50
   02C4                     436 _LCD_putCharAt_PARM_2:
   02C4                     437 	.ds 1
   02C5                     438 _LCD_putCharAt_PARM_3:
   02C5                     439 	.ds 1
   02C6                     440 _LCD_putCharAt_chr_1_1:
   02C6                     441 	.ds 1
   02C7                     442 _LCD_putSCharAt_PARM_2:
   02C7                     443 	.ds 1
   02C8                     444 _LCD_putSCharAt_PARM_3:
   02C8                     445 	.ds 1
   02C9                     446 _LCD_putSCharAt_PARM_4:
   02C9                     447 	.ds 1
   02CA                     448 _LCD_putSCharAt_sline_1_1:
   02CA                     449 	.ds 1
                            450 ;--------------------------------------------------------
                            451 ; absolute external ram data
                            452 ;--------------------------------------------------------
                            453 	.area XABS    (ABS,XDATA)
                            454 ;--------------------------------------------------------
                            455 ; external initialized ram data
                            456 ;--------------------------------------------------------
                            457 	.area XISEG   (XDATA)
   0568                     458 _mainMario_melody::
   0568                     459 	.ds 156
   0604                     460 _mainMario_noteTime::
   0604                     461 	.ds 78
   0652                     462 _underworld_melody::
   0652                     463 	.ds 112
   06C2                     464 _underworld_noteTime::
   06C2                     465 	.ds 56
   06FA                     466 _adobe_melody::
   06FA                     467 	.ds 32
   071A                     468 _adobe_noteTime::
   071A                     469 	.ds 16
   072A                     470 _beep1_melody::
   072A                     471 	.ds 4
   072E                     472 _beep1_noteTime::
   072E                     473 	.ds 2
   0730                     474 _beep2_melody::
   0730                     475 	.ds 4
   0734                     476 _beep2_noteTime::
   0734                     477 	.ds 2
   0736                     478 _rxMsg:
   0736                     479 	.ds 1
                            480 	.area HOME    (CODE)
                            481 	.area GSINIT0 (CODE)
                            482 	.area GSINIT1 (CODE)
                            483 	.area GSINIT2 (CODE)
                            484 	.area GSINIT3 (CODE)
                            485 	.area GSINIT4 (CODE)
                            486 	.area GSINIT5 (CODE)
                            487 	.area GSINIT  (CODE)
                            488 	.area GSFINAL (CODE)
                            489 	.area CSEG    (CODE)
                            490 ;--------------------------------------------------------
                            491 ; global & static initialisations
                            492 ;--------------------------------------------------------
                            493 	.area HOME    (CODE)
                            494 	.area GSINIT  (CODE)
                            495 	.area GSFINAL (CODE)
                            496 	.area GSINIT  (CODE)
                            497 ;--------------------------------------------------------
                            498 ; Home
                            499 ;--------------------------------------------------------
                            500 	.area HOME    (CODE)
                            501 	.area HOME    (CODE)
                            502 ;--------------------------------------------------------
                            503 ; code
                            504 ;--------------------------------------------------------
                            505 	.area CSEG    (CODE)
                            506 ;------------------------------------------------------------
                            507 ;Allocation info for local variables in function 'LCDconfig'
                            508 ;------------------------------------------------------------
                            509 ;------------------------------------------------------------
                            510 ;	LCD.c:8: void LCDconfig(){	
                            511 ;	-----------------------------------------
                            512 ;	 function LCDconfig
                            513 ;	-----------------------------------------
   06E2                     514 _LCDconfig:
                    0002    515 	ar2 = 0x02
                    0003    516 	ar3 = 0x03
                    0004    517 	ar4 = 0x04
                    0005    518 	ar5 = 0x05
                    0006    519 	ar6 = 0x06
                    0007    520 	ar7 = 0x07
                    0000    521 	ar0 = 0x00
                    0001    522 	ar1 = 0x01
                            523 ;	LCD.c:9: winstLCD = clearDisp;						// Atribuindo instrucao
   06E2 90 FF C2            524 	mov	dptr,#_winstLCD
   06E5 74 01               525 	mov	a,#0x01
   06E7 F0                  526 	movx	@dptr,a
                            527 ;	LCD.c:10: delay(10,0);								// Delay 10 microsegundos
   06E8 90 02 D2            528 	mov	dptr,#_delay_PARM_2
   06EB E4                  529 	clr	a
   06EC F0                  530 	movx	@dptr,a
   06ED 90 00 0A            531 	mov	dptr,#0x000A
   06F0 12 22 33            532 	lcall	_delay
                            533 ;	LCD.c:11: winstLCD = configFunc;						// Atribuindo instrucao
   06F3 90 FF C2            534 	mov	dptr,#_winstLCD
   06F6 74 3F               535 	mov	a,#0x3F
   06F8 F0                  536 	movx	@dptr,a
                            537 ;	LCD.c:12: delay(10,0);
   06F9 90 02 D2            538 	mov	dptr,#_delay_PARM_2
   06FC E4                  539 	clr	a
   06FD F0                  540 	movx	@dptr,a
   06FE 90 00 0A            541 	mov	dptr,#0x000A
   0701 12 22 33            542 	lcall	_delay
                            543 ;	LCD.c:13: winstLCD = entryModeShift;					// Atribuindo instrucao
   0704 90 FF C2            544 	mov	dptr,#_winstLCD
   0707 74 06               545 	mov	a,#0x06
   0709 F0                  546 	movx	@dptr,a
                            547 ;	LCD.c:14: delay(10,0);
   070A 90 02 D2            548 	mov	dptr,#_delay_PARM_2
   070D E4                  549 	clr	a
   070E F0                  550 	movx	@dptr,a
   070F 90 00 0A            551 	mov	dptr,#0x000A
   0712 12 22 33            552 	lcall	_delay
                            553 ;	LCD.c:15: winstLCD = onoffControl;					// Atribuindo instrucao
   0715 90 FF C2            554 	mov	dptr,#_winstLCD
   0718 74 0C               555 	mov	a,#0x0C
   071A F0                  556 	movx	@dptr,a
                            557 ;	LCD.c:16: delay(10,0);
   071B 90 02 D2            558 	mov	dptr,#_delay_PARM_2
   071E E4                  559 	clr	a
   071F F0                  560 	movx	@dptr,a
   0720 90 00 0A            561 	mov	dptr,#0x000A
   0723 02 22 33            562 	ljmp	_delay
                            563 ;------------------------------------------------------------
                            564 ;Allocation info for local variables in function 'setCursorAt'
                            565 ;------------------------------------------------------------
                            566 ;col                       Allocated with name '_setCursorAt_PARM_2'
                            567 ;line                      Allocated with name '_setCursorAt_line_1_1'
                            568 ;------------------------------------------------------------
                            569 ;	LCD.c:19: void setCursorAt(unsigned char line, unsigned char col){
                            570 ;	-----------------------------------------
                            571 ;	 function setCursorAt
                            572 ;	-----------------------------------------
   0726                     573 _setCursorAt:
   0726 E5 82               574 	mov	a,dpl
   0728 90 01 28            575 	mov	dptr,#_setCursorAt_line_1_1
   072B F0                  576 	movx	@dptr,a
                            577 ;	LCD.c:20: if(line == 1)
   072C 90 01 28            578 	mov	dptr,#_setCursorAt_line_1_1
   072F E0                  579 	movx	a,@dptr
   0730 FA                  580 	mov	r2,a
   0731 BA 01 0E            581 	cjne	r2,#0x01,00110$
                            582 ;	LCD.c:21: winstLCD = cursorHomeL1 + (col-1);
   0734 90 01 27            583 	mov	dptr,#_setCursorAt_PARM_2
   0737 E0                  584 	movx	a,@dptr
   0738 FB                  585 	mov	r3,a
   0739 90 FF C2            586 	mov	dptr,#_winstLCD
   073C 74 7F               587 	mov	a,#0x7F
   073E 2B                  588 	add	a,r3
   073F F0                  589 	movx	@dptr,a
   0740 80 31               590 	sjmp	00111$
   0742                     591 00110$:
                            592 ;	LCD.c:22: else if(line == 2)
   0742 BA 02 0E            593 	cjne	r2,#0x02,00107$
                            594 ;	LCD.c:23: winstLCD = cursorHomeL2 + (col-1);
   0745 90 01 27            595 	mov	dptr,#_setCursorAt_PARM_2
   0748 E0                  596 	movx	a,@dptr
   0749 FB                  597 	mov	r3,a
   074A 90 FF C2            598 	mov	dptr,#_winstLCD
   074D 74 BF               599 	mov	a,#0xBF
   074F 2B                  600 	add	a,r3
   0750 F0                  601 	movx	@dptr,a
   0751 80 20               602 	sjmp	00111$
   0753                     603 00107$:
                            604 ;	LCD.c:24: else if(line == 3)
   0753 BA 03 0E            605 	cjne	r2,#0x03,00104$
                            606 ;	LCD.c:25: winstLCD = cursorHomeL3 + (col-1);
   0756 90 01 27            607 	mov	dptr,#_setCursorAt_PARM_2
   0759 E0                  608 	movx	a,@dptr
   075A FB                  609 	mov	r3,a
   075B 90 FF C2            610 	mov	dptr,#_winstLCD
   075E 74 8F               611 	mov	a,#0x8F
   0760 2B                  612 	add	a,r3
   0761 F0                  613 	movx	@dptr,a
   0762 80 0F               614 	sjmp	00111$
   0764                     615 00104$:
                            616 ;	LCD.c:26: else if(line == 4)
   0764 BA 04 0C            617 	cjne	r2,#0x04,00111$
                            618 ;	LCD.c:27: winstLCD = cursorHomeL4 + (col-1);
   0767 90 01 27            619 	mov	dptr,#_setCursorAt_PARM_2
   076A E0                  620 	movx	a,@dptr
   076B FA                  621 	mov	r2,a
   076C 90 FF C2            622 	mov	dptr,#_winstLCD
   076F 74 CF               623 	mov	a,#0xCF
   0771 2A                  624 	add	a,r2
   0772 F0                  625 	movx	@dptr,a
   0773                     626 00111$:
                            627 ;	LCD.c:29: delay(10,0);
   0773 90 02 D2            628 	mov	dptr,#_delay_PARM_2
   0776 E4                  629 	clr	a
   0777 F0                  630 	movx	@dptr,a
   0778 90 00 0A            631 	mov	dptr,#0x000A
   077B 02 22 33            632 	ljmp	_delay
                            633 ;------------------------------------------------------------
                            634 ;Allocation info for local variables in function 'setChar'
                            635 ;------------------------------------------------------------
                            636 ;chr                       Allocated with name '_setChar_chr_1_1'
                            637 ;------------------------------------------------------------
                            638 ;	LCD.c:32: void setChar(char chr){
                            639 ;	-----------------------------------------
                            640 ;	 function setChar
                            641 ;	-----------------------------------------
   077E                     642 _setChar:
   077E E5 82               643 	mov	a,dpl
   0780 90 01 29            644 	mov	dptr,#_setChar_chr_1_1
   0783 F0                  645 	movx	@dptr,a
                            646 ;	LCD.c:33: wdataLCD = chr;
   0784 90 01 29            647 	mov	dptr,#_setChar_chr_1_1
   0787 E0                  648 	movx	a,@dptr
   0788 90 FF D2            649 	mov	dptr,#_wdataLCD
   078B F0                  650 	movx	@dptr,a
                            651 ;	LCD.c:34: delay(10,0);
   078C 90 02 D2            652 	mov	dptr,#_delay_PARM_2
   078F E4                  653 	clr	a
   0790 F0                  654 	movx	@dptr,a
   0791 90 00 0A            655 	mov	dptr,#0x000A
   0794 02 22 33            656 	ljmp	_delay
                            657 ;------------------------------------------------------------
                            658 ;Allocation info for local variables in function 'printMapAt'
                            659 ;------------------------------------------------------------
                            660 ;col                       Allocated with name '_printMapAt_PARM_2'
                            661 ;row                       Allocated with name '_printMapAt_row_1_1'
                            662 ;------------------------------------------------------------
                            663 ;	LCD.c:37: void printMapAt(unsigned char row, unsigned char col){
                            664 ;	-----------------------------------------
                            665 ;	 function printMapAt
                            666 ;	-----------------------------------------
   0797                     667 _printMapAt:
   0797 E5 82               668 	mov	a,dpl
   0799 90 01 2B            669 	mov	dptr,#_printMapAt_row_1_1
   079C F0                  670 	movx	@dptr,a
                            671 ;	LCD.c:38: setCursorAt(row, col);
   079D 90 01 2B            672 	mov	dptr,#_printMapAt_row_1_1
   07A0 E0                  673 	movx	a,@dptr
   07A1 FA                  674 	mov	r2,a
   07A2 90 01 2A            675 	mov	dptr,#_printMapAt_PARM_2
   07A5 E0                  676 	movx	a,@dptr
   07A6 FB                  677 	mov	r3,a
   07A7 90 01 27            678 	mov	dptr,#_setCursorAt_PARM_2
   07AA F0                  679 	movx	@dptr,a
   07AB 8A 82               680 	mov	dpl,r2
   07AD C0 02               681 	push	ar2
   07AF C0 03               682 	push	ar3
   07B1 12 07 26            683 	lcall	_setCursorAt
   07B4 D0 03               684 	pop	ar3
   07B6 D0 02               685 	pop	ar2
                            686 ;	LCD.c:39: setChar((map[row-1][col-1].schar) - 1);
   07B8 1A                  687 	dec	r2
   07B9 EA                  688 	mov	a,r2
   07BA C4                  689 	swap	a
   07BB 54 F0               690 	anl	a,#0xf0
   07BD 24 E0               691 	add	a,#_map
   07BF FA                  692 	mov	r2,a
   07C0 E4                  693 	clr	a
   07C1 34 00               694 	addc	a,#(_map >> 8)
   07C3 FC                  695 	mov	r4,a
   07C4 EB                  696 	mov	a,r3
   07C5 14                  697 	dec	a
   07C6 2A                  698 	add	a,r2
   07C7 F5 82               699 	mov	dpl,a
   07C9 E4                  700 	clr	a
   07CA 3C                  701 	addc	a,r4
   07CB F5 83               702 	mov	dph,a
   07CD E0                  703 	movx	a,@dptr
   07CE FA                  704 	mov	r2,a
   07CF 1A                  705 	dec	r2
   07D0 8A 82               706 	mov	dpl,r2
   07D2 02 07 7E            707 	ljmp	_setChar
                            708 ;------------------------------------------------------------
                            709 ;Allocation info for local variables in function 'printMap'
                            710 ;------------------------------------------------------------
                            711 ;row                       Allocated with name '_printMap_row_1_1'
                            712 ;col                       Allocated with name '_printMap_col_1_1'
                            713 ;------------------------------------------------------------
                            714 ;	LCD.c:42: void printMap(){
                            715 ;	-----------------------------------------
                            716 ;	 function printMap
                            717 ;	-----------------------------------------
   07D5                     718 _printMap:
                            719 ;	LCD.c:45: for(row = 0; row < 4; row++){
   07D5 7A 00               720 	mov	r2,#0x00
   07D7                     721 00105$:
   07D7 BA 04 00            722 	cjne	r2,#0x04,00116$
   07DA                     723 00116$:
   07DA 50 61               724 	jnc	00109$
                            725 ;	LCD.c:46: for(col = 0 ;col<16;col++){
   07DC 90 01 2C            726 	mov	dptr,#_printMap_col_1_1
   07DF E4                  727 	clr	a
   07E0 F0                  728 	movx	@dptr,a
   07E1 EA                  729 	mov	a,r2
   07E2 04                  730 	inc	a
   07E3 FB                  731 	mov	r3,a
   07E4 EA                  732 	mov	a,r2
   07E5 C4                  733 	swap	a
   07E6 54 F0               734 	anl	a,#0xf0
   07E8 FC                  735 	mov	r4,a
   07E9                     736 00101$:
   07E9 90 01 2C            737 	mov	dptr,#_printMap_col_1_1
   07EC E0                  738 	movx	a,@dptr
   07ED FD                  739 	mov	r5,a
   07EE BD 10 00            740 	cjne	r5,#0x10,00118$
   07F1                     741 00118$:
   07F1 50 47               742 	jnc	00107$
                            743 ;	LCD.c:47: setCursorAt(row+1, col+1);
   07F3 ED                  744 	mov	a,r5
   07F4 04                  745 	inc	a
   07F5 FE                  746 	mov	r6,a
   07F6 90 01 27            747 	mov	dptr,#_setCursorAt_PARM_2
   07F9 F0                  748 	movx	@dptr,a
   07FA 8B 82               749 	mov	dpl,r3
   07FC C0 02               750 	push	ar2
   07FE C0 03               751 	push	ar3
   0800 C0 04               752 	push	ar4
   0802 C0 05               753 	push	ar5
   0804 C0 06               754 	push	ar6
   0806 12 07 26            755 	lcall	_setCursorAt
   0809 D0 06               756 	pop	ar6
   080B D0 05               757 	pop	ar5
   080D D0 04               758 	pop	ar4
                            759 ;	LCD.c:48: setChar((map[row][col].schar) - 1);
   080F EC                  760 	mov	a,r4
   0810 24 E0               761 	add	a,#_map
   0812 FF                  762 	mov	r7,a
   0813 E4                  763 	clr	a
   0814 34 00               764 	addc	a,#(_map >> 8)
   0816 F8                  765 	mov	r0,a
   0817 ED                  766 	mov	a,r5
   0818 2F                  767 	add	a,r7
   0819 F5 82               768 	mov	dpl,a
   081B E4                  769 	clr	a
   081C 38                  770 	addc	a,r0
   081D F5 83               771 	mov	dph,a
   081F E0                  772 	movx	a,@dptr
   0820 FD                  773 	mov	r5,a
   0821 1D                  774 	dec	r5
   0822 8D 82               775 	mov	dpl,r5
   0824 C0 04               776 	push	ar4
   0826 C0 06               777 	push	ar6
   0828 12 07 7E            778 	lcall	_setChar
   082B D0 06               779 	pop	ar6
   082D D0 04               780 	pop	ar4
   082F D0 03               781 	pop	ar3
   0831 D0 02               782 	pop	ar2
                            783 ;	LCD.c:46: for(col = 0 ;col<16;col++){
   0833 90 01 2C            784 	mov	dptr,#_printMap_col_1_1
   0836 EE                  785 	mov	a,r6
   0837 F0                  786 	movx	@dptr,a
   0838 80 AF               787 	sjmp	00101$
   083A                     788 00107$:
                            789 ;	LCD.c:45: for(row = 0; row < 4; row++){
   083A 0A                  790 	inc	r2
   083B 80 9A               791 	sjmp	00105$
   083D                     792 00109$:
   083D 22                  793 	ret
                            794 ;------------------------------------------------------------
                            795 ;Allocation info for local variables in function 'setMap1CGram'
                            796 ;------------------------------------------------------------
                            797 ;n                         Allocated with name '_setMap1CGram_n_1_1'
                            798 ;m                         Allocated with name '_setMap1CGram_m_1_1'
                            799 ;c0                        Allocated with name '_setMap1CGram_c0_1_1'
                            800 ;c1                        Allocated with name '_setMap1CGram_c1_1_1'
                            801 ;c2                        Allocated with name '_setMap1CGram_c2_1_1'
                            802 ;c3                        Allocated with name '_setMap1CGram_c3_1_1'
                            803 ;c4                        Allocated with name '_setMap1CGram_c4_1_1'
                            804 ;c5                        Allocated with name '_setMap1CGram_c5_1_1'
                            805 ;c6                        Allocated with name '_setMap1CGram_c6_1_1'
                            806 ;c7                        Allocated with name '_setMap1CGram_c7_1_1'
                            807 ;------------------------------------------------------------
                            808 ;	LCD.c:53: void setMap1CGram(){
                            809 ;	-----------------------------------------
                            810 ;	 function setMap1CGram
                            811 ;	-----------------------------------------
   083E                     812 _setMap1CGram:
                            813 ;	LCD.c:56: unsigned char c0[] =  {0,0,0,0,0,0,0,0};
   083E 90 01 2D            814 	mov	dptr,#_setMap1CGram_c0_1_1
   0841 E4                  815 	clr	a
   0842 F0                  816 	movx	@dptr,a
   0843 90 01 2E            817 	mov	dptr,#(_setMap1CGram_c0_1_1 + 0x0001)
   0846 F0                  818 	movx	@dptr,a
   0847 90 01 2F            819 	mov	dptr,#(_setMap1CGram_c0_1_1 + 0x0002)
   084A F0                  820 	movx	@dptr,a
   084B 90 01 30            821 	mov	dptr,#(_setMap1CGram_c0_1_1 + 0x0003)
   084E F0                  822 	movx	@dptr,a
   084F 90 01 31            823 	mov	dptr,#(_setMap1CGram_c0_1_1 + 0x0004)
   0852 E4                  824 	clr	a
   0853 F0                  825 	movx	@dptr,a
   0854 90 01 32            826 	mov	dptr,#(_setMap1CGram_c0_1_1 + 0x0005)
   0857 F0                  827 	movx	@dptr,a
   0858 90 01 33            828 	mov	dptr,#(_setMap1CGram_c0_1_1 + 0x0006)
   085B F0                  829 	movx	@dptr,a
   085C 90 01 34            830 	mov	dptr,#(_setMap1CGram_c0_1_1 + 0x0007)
   085F F0                  831 	movx	@dptr,a
                            832 ;	LCD.c:57: unsigned char c1[] =  {0x1F,0x10,0x1F,0x10,0x13,0x12,0x12,0x12};
   0860 90 01 35            833 	mov	dptr,#_setMap1CGram_c1_1_1
   0863 74 1F               834 	mov	a,#0x1F
   0865 F0                  835 	movx	@dptr,a
   0866 90 01 36            836 	mov	dptr,#(_setMap1CGram_c1_1_1 + 0x0001)
   0869 74 10               837 	mov	a,#0x10
   086B F0                  838 	movx	@dptr,a
   086C 90 01 37            839 	mov	dptr,#(_setMap1CGram_c1_1_1 + 0x0002)
   086F 74 1F               840 	mov	a,#0x1F
   0871 F0                  841 	movx	@dptr,a
   0872 90 01 38            842 	mov	dptr,#(_setMap1CGram_c1_1_1 + 0x0003)
   0875 74 10               843 	mov	a,#0x10
   0877 F0                  844 	movx	@dptr,a
   0878 90 01 39            845 	mov	dptr,#(_setMap1CGram_c1_1_1 + 0x0004)
   087B 74 13               846 	mov	a,#0x13
   087D F0                  847 	movx	@dptr,a
   087E 90 01 3A            848 	mov	dptr,#(_setMap1CGram_c1_1_1 + 0x0005)
   0881 74 12               849 	mov	a,#0x12
   0883 F0                  850 	movx	@dptr,a
   0884 90 01 3B            851 	mov	dptr,#(_setMap1CGram_c1_1_1 + 0x0006)
   0887 74 12               852 	mov	a,#0x12
   0889 F0                  853 	movx	@dptr,a
   088A 90 01 3C            854 	mov	dptr,#(_setMap1CGram_c1_1_1 + 0x0007)
   088D 74 12               855 	mov	a,#0x12
   088F F0                  856 	movx	@dptr,a
                            857 ;	LCD.c:58: unsigned char c2[] =  {0x1F,0x00,0x0E,0x04,0x1E,0x04,0x04,0x04};
   0890 90 01 3D            858 	mov	dptr,#_setMap1CGram_c2_1_1
   0893 74 1F               859 	mov	a,#0x1F
   0895 F0                  860 	movx	@dptr,a
   0896 90 01 3E            861 	mov	dptr,#(_setMap1CGram_c2_1_1 + 0x0001)
   0899 E4                  862 	clr	a
   089A F0                  863 	movx	@dptr,a
   089B 90 01 3F            864 	mov	dptr,#(_setMap1CGram_c2_1_1 + 0x0002)
   089E 74 0E               865 	mov	a,#0x0E
   08A0 F0                  866 	movx	@dptr,a
   08A1 90 01 40            867 	mov	dptr,#(_setMap1CGram_c2_1_1 + 0x0003)
   08A4 74 04               868 	mov	a,#0x04
   08A6 F0                  869 	movx	@dptr,a
   08A7 90 01 41            870 	mov	dptr,#(_setMap1CGram_c2_1_1 + 0x0004)
   08AA 74 1E               871 	mov	a,#0x1E
   08AC F0                  872 	movx	@dptr,a
   08AD 90 01 42            873 	mov	dptr,#(_setMap1CGram_c2_1_1 + 0x0005)
   08B0 74 04               874 	mov	a,#0x04
   08B2 F0                  875 	movx	@dptr,a
   08B3 90 01 43            876 	mov	dptr,#(_setMap1CGram_c2_1_1 + 0x0006)
   08B6 74 04               877 	mov	a,#0x04
   08B8 F0                  878 	movx	@dptr,a
   08B9 90 01 44            879 	mov	dptr,#(_setMap1CGram_c2_1_1 + 0x0007)
   08BC 74 04               880 	mov	a,#0x04
   08BE F0                  881 	movx	@dptr,a
                            882 ;	LCD.c:59: unsigned char c3[] =  {0x1F,0x01,0x0D,0x09,0x18,0x09,0x19,0x09};
   08BF 90 01 45            883 	mov	dptr,#_setMap1CGram_c3_1_1
   08C2 74 1F               884 	mov	a,#0x1F
   08C4 F0                  885 	movx	@dptr,a
   08C5 90 01 46            886 	mov	dptr,#(_setMap1CGram_c3_1_1 + 0x0001)
   08C8 74 01               887 	mov	a,#0x01
   08CA F0                  888 	movx	@dptr,a
   08CB 90 01 47            889 	mov	dptr,#(_setMap1CGram_c3_1_1 + 0x0002)
   08CE 74 0D               890 	mov	a,#0x0D
   08D0 F0                  891 	movx	@dptr,a
   08D1 90 01 48            892 	mov	dptr,#(_setMap1CGram_c3_1_1 + 0x0003)
   08D4 74 09               893 	mov	a,#0x09
   08D6 F0                  894 	movx	@dptr,a
   08D7 90 01 49            895 	mov	dptr,#(_setMap1CGram_c3_1_1 + 0x0004)
   08DA 74 18               896 	mov	a,#0x18
   08DC F0                  897 	movx	@dptr,a
   08DD 90 01 4A            898 	mov	dptr,#(_setMap1CGram_c3_1_1 + 0x0005)
   08E0 74 09               899 	mov	a,#0x09
   08E2 F0                  900 	movx	@dptr,a
   08E3 90 01 4B            901 	mov	dptr,#(_setMap1CGram_c3_1_1 + 0x0006)
   08E6 74 19               902 	mov	a,#0x19
   08E8 F0                  903 	movx	@dptr,a
   08E9 90 01 4C            904 	mov	dptr,#(_setMap1CGram_c3_1_1 + 0x0007)
   08EC 74 09               905 	mov	a,#0x09
   08EE F0                  906 	movx	@dptr,a
                            907 ;	LCD.c:60: unsigned char c4[] =  {0x17,0x10,0x15,0x1C,0x04,0x0C,0x05,0x05};
   08EF 90 01 4D            908 	mov	dptr,#_setMap1CGram_c4_1_1
   08F2 74 17               909 	mov	a,#0x17
   08F4 F0                  910 	movx	@dptr,a
   08F5 90 01 4E            911 	mov	dptr,#(_setMap1CGram_c4_1_1 + 0x0001)
   08F8 74 10               912 	mov	a,#0x10
   08FA F0                  913 	movx	@dptr,a
   08FB 90 01 4F            914 	mov	dptr,#(_setMap1CGram_c4_1_1 + 0x0002)
   08FE 74 15               915 	mov	a,#0x15
   0900 F0                  916 	movx	@dptr,a
   0901 90 01 50            917 	mov	dptr,#(_setMap1CGram_c4_1_1 + 0x0003)
   0904 74 1C               918 	mov	a,#0x1C
   0906 F0                  919 	movx	@dptr,a
   0907 90 01 51            920 	mov	dptr,#(_setMap1CGram_c4_1_1 + 0x0004)
   090A 74 04               921 	mov	a,#0x04
   090C F0                  922 	movx	@dptr,a
   090D 90 01 52            923 	mov	dptr,#(_setMap1CGram_c4_1_1 + 0x0005)
   0910 74 0C               924 	mov	a,#0x0C
   0912 F0                  925 	movx	@dptr,a
   0913 90 01 53            926 	mov	dptr,#(_setMap1CGram_c4_1_1 + 0x0006)
   0916 74 05               927 	mov	a,#0x05
   0918 F0                  928 	movx	@dptr,a
   0919 90 01 54            929 	mov	dptr,#(_setMap1CGram_c4_1_1 + 0x0007)
   091C 74 05               930 	mov	a,#0x05
   091E F0                  931 	movx	@dptr,a
                            932 ;	LCD.c:61: unsigned char c5[] =  {0x12,0x10,0x12,0x02,0x12,0x12,0x12,0x12};
   091F 90 01 55            933 	mov	dptr,#_setMap1CGram_c5_1_1
   0922 74 12               934 	mov	a,#0x12
   0924 F0                  935 	movx	@dptr,a
   0925 90 01 56            936 	mov	dptr,#(_setMap1CGram_c5_1_1 + 0x0001)
   0928 74 10               937 	mov	a,#0x10
   092A F0                  938 	movx	@dptr,a
   092B 90 01 57            939 	mov	dptr,#(_setMap1CGram_c5_1_1 + 0x0002)
   092E 74 12               940 	mov	a,#0x12
   0930 F0                  941 	movx	@dptr,a
   0931 90 01 58            942 	mov	dptr,#(_setMap1CGram_c5_1_1 + 0x0003)
   0934 74 02               943 	mov	a,#0x02
   0936 F0                  944 	movx	@dptr,a
   0937 90 01 59            945 	mov	dptr,#(_setMap1CGram_c5_1_1 + 0x0004)
   093A 74 12               946 	mov	a,#0x12
   093C F0                  947 	movx	@dptr,a
   093D 90 01 5A            948 	mov	dptr,#(_setMap1CGram_c5_1_1 + 0x0005)
   0940 74 12               949 	mov	a,#0x12
   0942 F0                  950 	movx	@dptr,a
   0943 90 01 5B            951 	mov	dptr,#(_setMap1CGram_c5_1_1 + 0x0006)
   0946 74 12               952 	mov	a,#0x12
   0948 F0                  953 	movx	@dptr,a
   0949 90 01 5C            954 	mov	dptr,#(_setMap1CGram_c5_1_1 + 0x0007)
   094C 74 12               955 	mov	a,#0x12
   094E F0                  956 	movx	@dptr,a
                            957 ;	LCD.c:62: unsigned char c6[] =  {0x16,0x16,0x13,0x16,0x14,0x17,0x10,0x1F};
   094F 90 01 5D            958 	mov	dptr,#_setMap1CGram_c6_1_1
   0952 74 16               959 	mov	a,#0x16
   0954 F0                  960 	movx	@dptr,a
   0955 90 01 5E            961 	mov	dptr,#(_setMap1CGram_c6_1_1 + 0x0001)
   0958 74 16               962 	mov	a,#0x16
   095A F0                  963 	movx	@dptr,a
   095B 90 01 5F            964 	mov	dptr,#(_setMap1CGram_c6_1_1 + 0x0002)
   095E 74 13               965 	mov	a,#0x13
   0960 F0                  966 	movx	@dptr,a
   0961 90 01 60            967 	mov	dptr,#(_setMap1CGram_c6_1_1 + 0x0003)
   0964 74 16               968 	mov	a,#0x16
   0966 F0                  969 	movx	@dptr,a
   0967 90 01 61            970 	mov	dptr,#(_setMap1CGram_c6_1_1 + 0x0004)
   096A 74 14               971 	mov	a,#0x14
   096C F0                  972 	movx	@dptr,a
   096D 90 01 62            973 	mov	dptr,#(_setMap1CGram_c6_1_1 + 0x0005)
   0970 74 17               974 	mov	a,#0x17
   0972 F0                  975 	movx	@dptr,a
   0973 90 01 63            976 	mov	dptr,#(_setMap1CGram_c6_1_1 + 0x0006)
   0976 74 10               977 	mov	a,#0x10
   0978 F0                  978 	movx	@dptr,a
   0979 90 01 64            979 	mov	dptr,#(_setMap1CGram_c6_1_1 + 0x0007)
   097C 74 1F               980 	mov	a,#0x1F
   097E F0                  981 	movx	@dptr,a
                            982 ;	LCD.c:63: unsigned char c7[] =  {0x15,0x15,0x11,0x04,0x15,0x15,0x14,0x1F};
   097F 90 01 65            983 	mov	dptr,#_setMap1CGram_c7_1_1
   0982 74 15               984 	mov	a,#0x15
   0984 F0                  985 	movx	@dptr,a
   0985 90 01 66            986 	mov	dptr,#(_setMap1CGram_c7_1_1 + 0x0001)
   0988 74 15               987 	mov	a,#0x15
   098A F0                  988 	movx	@dptr,a
   098B 90 01 67            989 	mov	dptr,#(_setMap1CGram_c7_1_1 + 0x0002)
   098E 74 11               990 	mov	a,#0x11
   0990 F0                  991 	movx	@dptr,a
   0991 90 01 68            992 	mov	dptr,#(_setMap1CGram_c7_1_1 + 0x0003)
   0994 74 04               993 	mov	a,#0x04
   0996 F0                  994 	movx	@dptr,a
   0997 90 01 69            995 	mov	dptr,#(_setMap1CGram_c7_1_1 + 0x0004)
   099A 74 15               996 	mov	a,#0x15
   099C F0                  997 	movx	@dptr,a
   099D 90 01 6A            998 	mov	dptr,#(_setMap1CGram_c7_1_1 + 0x0005)
   09A0 74 15               999 	mov	a,#0x15
   09A2 F0                 1000 	movx	@dptr,a
   09A3 90 01 6B           1001 	mov	dptr,#(_setMap1CGram_c7_1_1 + 0x0006)
   09A6 74 14              1002 	mov	a,#0x14
   09A8 F0                 1003 	movx	@dptr,a
   09A9 90 01 6C           1004 	mov	dptr,#(_setMap1CGram_c7_1_1 + 0x0007)
   09AC 74 1F              1005 	mov	a,#0x1F
   09AE F0                 1006 	movx	@dptr,a
                           1007 ;	LCD.c:65: for(n = 0; n < 8 ;n++){
   09AF 7A 00              1008 	mov	r2,#0x00
   09B1                    1009 00101$:
   09B1 BA 08 00           1010 	cjne	r2,#0x08,00124$
   09B4                    1011 00124$:
   09B4 40 03              1012 	jc	00125$
   09B6 02 0A 7E           1013 	ljmp	00104$
   09B9                    1014 00125$:
                           1015 ;	LCD.c:66: SCmap[0].adds[n] = c0[n];
   09B9 EA                 1016 	mov	a,r2
   09BA 24 A0              1017 	add	a,#_SCmap
   09BC FB                 1018 	mov	r3,a
   09BD E4                 1019 	clr	a
   09BE 34 00              1020 	addc	a,#(_SCmap >> 8)
   09C0 FC                 1021 	mov	r4,a
   09C1 EA                 1022 	mov	a,r2
   09C2 24 2D              1023 	add	a,#_setMap1CGram_c0_1_1
   09C4 F5 82              1024 	mov	dpl,a
   09C6 E4                 1025 	clr	a
   09C7 34 01              1026 	addc	a,#(_setMap1CGram_c0_1_1 >> 8)
   09C9 F5 83              1027 	mov	dph,a
   09CB E0                 1028 	movx	a,@dptr
   09CC 8B 82              1029 	mov	dpl,r3
   09CE 8C 83              1030 	mov	dph,r4
   09D0 F0                 1031 	movx	@dptr,a
                           1032 ;	LCD.c:67: SCmap[1].adds[n] = c1[n];
   09D1 EA                 1033 	mov	a,r2
   09D2 24 A8              1034 	add	a,#(_SCmap + 0x0008)
   09D4 FB                 1035 	mov	r3,a
   09D5 E4                 1036 	clr	a
   09D6 34 00              1037 	addc	a,#((_SCmap + 0x0008) >> 8)
   09D8 FC                 1038 	mov	r4,a
   09D9 EA                 1039 	mov	a,r2
   09DA 24 35              1040 	add	a,#_setMap1CGram_c1_1_1
   09DC F5 82              1041 	mov	dpl,a
   09DE E4                 1042 	clr	a
   09DF 34 01              1043 	addc	a,#(_setMap1CGram_c1_1_1 >> 8)
   09E1 F5 83              1044 	mov	dph,a
   09E3 E0                 1045 	movx	a,@dptr
   09E4 8B 82              1046 	mov	dpl,r3
   09E6 8C 83              1047 	mov	dph,r4
   09E8 F0                 1048 	movx	@dptr,a
                           1049 ;	LCD.c:68: SCmap[2].adds[n] = c2[n];
   09E9 EA                 1050 	mov	a,r2
   09EA 24 B0              1051 	add	a,#(_SCmap + 0x0010)
   09EC FB                 1052 	mov	r3,a
   09ED E4                 1053 	clr	a
   09EE 34 00              1054 	addc	a,#((_SCmap + 0x0010) >> 8)
   09F0 FC                 1055 	mov	r4,a
   09F1 EA                 1056 	mov	a,r2
   09F2 24 3D              1057 	add	a,#_setMap1CGram_c2_1_1
   09F4 F5 82              1058 	mov	dpl,a
   09F6 E4                 1059 	clr	a
   09F7 34 01              1060 	addc	a,#(_setMap1CGram_c2_1_1 >> 8)
   09F9 F5 83              1061 	mov	dph,a
   09FB E0                 1062 	movx	a,@dptr
   09FC 8B 82              1063 	mov	dpl,r3
   09FE 8C 83              1064 	mov	dph,r4
   0A00 F0                 1065 	movx	@dptr,a
                           1066 ;	LCD.c:69: SCmap[3].adds[n] = c3[n];
   0A01 EA                 1067 	mov	a,r2
   0A02 24 B8              1068 	add	a,#(_SCmap + 0x0018)
   0A04 FB                 1069 	mov	r3,a
   0A05 E4                 1070 	clr	a
   0A06 34 00              1071 	addc	a,#((_SCmap + 0x0018) >> 8)
   0A08 FC                 1072 	mov	r4,a
   0A09 EA                 1073 	mov	a,r2
   0A0A 24 45              1074 	add	a,#_setMap1CGram_c3_1_1
   0A0C F5 82              1075 	mov	dpl,a
   0A0E E4                 1076 	clr	a
   0A0F 34 01              1077 	addc	a,#(_setMap1CGram_c3_1_1 >> 8)
   0A11 F5 83              1078 	mov	dph,a
   0A13 E0                 1079 	movx	a,@dptr
   0A14 8B 82              1080 	mov	dpl,r3
   0A16 8C 83              1081 	mov	dph,r4
   0A18 F0                 1082 	movx	@dptr,a
                           1083 ;	LCD.c:70: SCmap[4].adds[n] = c4[n];
   0A19 EA                 1084 	mov	a,r2
   0A1A 24 C0              1085 	add	a,#(_SCmap + 0x0020)
   0A1C FB                 1086 	mov	r3,a
   0A1D E4                 1087 	clr	a
   0A1E 34 00              1088 	addc	a,#((_SCmap + 0x0020) >> 8)
   0A20 FC                 1089 	mov	r4,a
   0A21 EA                 1090 	mov	a,r2
   0A22 24 4D              1091 	add	a,#_setMap1CGram_c4_1_1
   0A24 F5 82              1092 	mov	dpl,a
   0A26 E4                 1093 	clr	a
   0A27 34 01              1094 	addc	a,#(_setMap1CGram_c4_1_1 >> 8)
   0A29 F5 83              1095 	mov	dph,a
   0A2B E0                 1096 	movx	a,@dptr
   0A2C 8B 82              1097 	mov	dpl,r3
   0A2E 8C 83              1098 	mov	dph,r4
   0A30 F0                 1099 	movx	@dptr,a
                           1100 ;	LCD.c:71: SCmap[5].adds[n] = c5[n];
   0A31 EA                 1101 	mov	a,r2
   0A32 24 C8              1102 	add	a,#(_SCmap + 0x0028)
   0A34 FB                 1103 	mov	r3,a
   0A35 E4                 1104 	clr	a
   0A36 34 00              1105 	addc	a,#((_SCmap + 0x0028) >> 8)
   0A38 FC                 1106 	mov	r4,a
   0A39 EA                 1107 	mov	a,r2
   0A3A 24 55              1108 	add	a,#_setMap1CGram_c5_1_1
   0A3C F5 82              1109 	mov	dpl,a
   0A3E E4                 1110 	clr	a
   0A3F 34 01              1111 	addc	a,#(_setMap1CGram_c5_1_1 >> 8)
   0A41 F5 83              1112 	mov	dph,a
   0A43 E0                 1113 	movx	a,@dptr
   0A44 8B 82              1114 	mov	dpl,r3
   0A46 8C 83              1115 	mov	dph,r4
   0A48 F0                 1116 	movx	@dptr,a
                           1117 ;	LCD.c:72: SCmap[6].adds[n] = c6[n];
   0A49 EA                 1118 	mov	a,r2
   0A4A 24 D0              1119 	add	a,#(_SCmap + 0x0030)
   0A4C FB                 1120 	mov	r3,a
   0A4D E4                 1121 	clr	a
   0A4E 34 00              1122 	addc	a,#((_SCmap + 0x0030) >> 8)
   0A50 FC                 1123 	mov	r4,a
   0A51 EA                 1124 	mov	a,r2
   0A52 24 5D              1125 	add	a,#_setMap1CGram_c6_1_1
   0A54 F5 82              1126 	mov	dpl,a
   0A56 E4                 1127 	clr	a
   0A57 34 01              1128 	addc	a,#(_setMap1CGram_c6_1_1 >> 8)
   0A59 F5 83              1129 	mov	dph,a
   0A5B E0                 1130 	movx	a,@dptr
   0A5C 8B 82              1131 	mov	dpl,r3
   0A5E 8C 83              1132 	mov	dph,r4
   0A60 F0                 1133 	movx	@dptr,a
                           1134 ;	LCD.c:73: SCmap[7].adds[n] = c7[n];
   0A61 EA                 1135 	mov	a,r2
   0A62 24 D8              1136 	add	a,#(_SCmap + 0x0038)
   0A64 FB                 1137 	mov	r3,a
   0A65 E4                 1138 	clr	a
   0A66 34 00              1139 	addc	a,#((_SCmap + 0x0038) >> 8)
   0A68 FC                 1140 	mov	r4,a
   0A69 EA                 1141 	mov	a,r2
   0A6A 24 65              1142 	add	a,#_setMap1CGram_c7_1_1
   0A6C F5 82              1143 	mov	dpl,a
   0A6E E4                 1144 	clr	a
   0A6F 34 01              1145 	addc	a,#(_setMap1CGram_c7_1_1 >> 8)
   0A71 F5 83              1146 	mov	dph,a
   0A73 E0                 1147 	movx	a,@dptr
   0A74 FD                 1148 	mov	r5,a
   0A75 8B 82              1149 	mov	dpl,r3
   0A77 8C 83              1150 	mov	dph,r4
   0A79 F0                 1151 	movx	@dptr,a
                           1152 ;	LCD.c:65: for(n = 0; n < 8 ;n++){
   0A7A 0A                 1153 	inc	r2
   0A7B 02 09 B1           1154 	ljmp	00101$
   0A7E                    1155 00104$:
                           1156 ;	LCD.c:76: winstLCD = setCgramAddress;    				 // Atribuindo primeiro endereo da CGRAM
   0A7E 90 FF C2           1157 	mov	dptr,#_winstLCD
   0A81 74 40              1158 	mov	a,#0x40
   0A83 F0                 1159 	movx	@dptr,a
                           1160 ;	LCD.c:77: delay(10,0);
   0A84 90 02 D2           1161 	mov	dptr,#_delay_PARM_2
   0A87 E4                 1162 	clr	a
   0A88 F0                 1163 	movx	@dptr,a
   0A89 90 00 0A           1164 	mov	dptr,#0x000A
   0A8C 12 22 33           1165 	lcall	_delay
                           1166 ;	LCD.c:79: for(m = 0;m< 8; m++){
   0A8F 7A 00              1167 	mov	r2,#0x00
   0A91                    1168 00109$:
   0A91 BA 08 00           1169 	cjne	r2,#0x08,00126$
   0A94                    1170 00126$:
   0A94 50 3F              1171 	jnc	00112$
                           1172 ;	LCD.c:80: for(n = 0; n < 8 ;n++){
   0A96 EA                 1173 	mov	a,r2
   0A97 C4                 1174 	swap	a
   0A98 03                 1175 	rr	a
   0A99 54 F8              1176 	anl	a,#0xf8
   0A9B FB                 1177 	mov	r3,a
   0A9C 7C 00              1178 	mov	r4,#0x00
   0A9E                    1179 00105$:
   0A9E BC 08 00           1180 	cjne	r4,#0x08,00128$
   0AA1                    1181 00128$:
   0AA1 50 2F              1182 	jnc	00111$
                           1183 ;	LCD.c:81: wdataLCD = SCmap[m].adds[n];                // Atribuindo escrita
   0AA3 EB                 1184 	mov	a,r3
   0AA4 24 A0              1185 	add	a,#_SCmap
   0AA6 FD                 1186 	mov	r5,a
   0AA7 E4                 1187 	clr	a
   0AA8 34 00              1188 	addc	a,#(_SCmap >> 8)
   0AAA FE                 1189 	mov	r6,a
   0AAB EC                 1190 	mov	a,r4
   0AAC 2D                 1191 	add	a,r5
   0AAD F5 82              1192 	mov	dpl,a
   0AAF E4                 1193 	clr	a
   0AB0 3E                 1194 	addc	a,r6
   0AB1 F5 83              1195 	mov	dph,a
   0AB3 E0                 1196 	movx	a,@dptr
   0AB4 90 FF D2           1197 	mov	dptr,#_wdataLCD
   0AB7 F0                 1198 	movx	@dptr,a
                           1199 ;	LCD.c:82: delay(10,0);
   0AB8 90 02 D2           1200 	mov	dptr,#_delay_PARM_2
   0ABB E4                 1201 	clr	a
   0ABC F0                 1202 	movx	@dptr,a
   0ABD 90 00 0A           1203 	mov	dptr,#0x000A
   0AC0 C0 02              1204 	push	ar2
   0AC2 C0 03              1205 	push	ar3
   0AC4 C0 04              1206 	push	ar4
   0AC6 12 22 33           1207 	lcall	_delay
   0AC9 D0 04              1208 	pop	ar4
   0ACB D0 03              1209 	pop	ar3
   0ACD D0 02              1210 	pop	ar2
                           1211 ;	LCD.c:80: for(n = 0; n < 8 ;n++){
   0ACF 0C                 1212 	inc	r4
   0AD0 80 CC              1213 	sjmp	00105$
   0AD2                    1214 00111$:
                           1215 ;	LCD.c:79: for(m = 0;m< 8; m++){
   0AD2 0A                 1216 	inc	r2
   0AD3 80 BC              1217 	sjmp	00109$
   0AD5                    1218 00112$:
                           1219 ;	LCD.c:86: map[0][0].schar = 2;
   0AD5 90 00 E0           1220 	mov	dptr,#_map
   0AD8 74 02              1221 	mov	a,#0x02
   0ADA F0                 1222 	movx	@dptr,a
                           1223 ;	LCD.c:87: map[0][1].schar = 3;
   0ADB 90 00 E1           1224 	mov	dptr,#(_map + 0x0001)
   0ADE 74 03              1225 	mov	a,#0x03
   0AE0 F0                 1226 	movx	@dptr,a
                           1227 ;	LCD.c:88: map[0][2].schar = 3;
   0AE1 90 00 E2           1228 	mov	dptr,#(_map + 0x0002)
   0AE4 74 03              1229 	mov	a,#0x03
   0AE6 F0                 1230 	movx	@dptr,a
                           1231 ;	LCD.c:89: map[0][3].schar = 3;
   0AE7 90 00 E3           1232 	mov	dptr,#(_map + 0x0003)
   0AEA 74 03              1233 	mov	a,#0x03
   0AEC F0                 1234 	movx	@dptr,a
                           1235 ;	LCD.c:90: map[0][4].schar = 4;
   0AED 90 00 E4           1236 	mov	dptr,#(_map + 0x0004)
   0AF0 74 04              1237 	mov	a,#0x04
   0AF2 F0                 1238 	movx	@dptr,a
                           1239 ;	LCD.c:91: map[0][5].schar = 4;
   0AF3 90 00 E5           1240 	mov	dptr,#(_map + 0x0005)
   0AF6 74 04              1241 	mov	a,#0x04
   0AF8 F0                 1242 	movx	@dptr,a
                           1243 ;	LCD.c:92: map[0][6].schar = 5;
   0AF9 90 00 E6           1244 	mov	dptr,#(_map + 0x0006)
   0AFC 74 05              1245 	mov	a,#0x05
   0AFE F0                 1246 	movx	@dptr,a
                           1247 ;	LCD.c:93: map[0][7].schar = 2;
   0AFF 90 00 E7           1248 	mov	dptr,#(_map + 0x0007)
   0B02 74 02              1249 	mov	a,#0x02
   0B04 F0                 1250 	movx	@dptr,a
                           1251 ;	LCD.c:94: map[0][8].schar = 4;
   0B05 90 00 E8           1252 	mov	dptr,#(_map + 0x0008)
   0B08 74 04              1253 	mov	a,#0x04
   0B0A F0                 1254 	movx	@dptr,a
                           1255 ;	LCD.c:95: map[0][9].schar = 5;
   0B0B 90 00 E9           1256 	mov	dptr,#(_map + 0x0009)
   0B0E 74 05              1257 	mov	a,#0x05
   0B10 F0                 1258 	movx	@dptr,a
                           1259 ;	LCD.c:96: map[0][10].schar = 3;
   0B11 90 00 EA           1260 	mov	dptr,#(_map + 0x000a)
   0B14 74 03              1261 	mov	a,#0x03
   0B16 F0                 1262 	movx	@dptr,a
                           1263 ;	LCD.c:97: map[0][11].schar = 3;
   0B17 90 00 EB           1264 	mov	dptr,#(_map + 0x000b)
   0B1A 74 03              1265 	mov	a,#0x03
   0B1C F0                 1266 	movx	@dptr,a
                           1267 ;	LCD.c:98: map[0][12].schar = 3;
   0B1D 90 00 EC           1268 	mov	dptr,#(_map + 0x000c)
   0B20 74 03              1269 	mov	a,#0x03
   0B22 F0                 1270 	movx	@dptr,a
                           1271 ;	LCD.c:99: map[0][13].schar = 3;
   0B23 90 00 ED           1272 	mov	dptr,#(_map + 0x000d)
   0B26 74 03              1273 	mov	a,#0x03
   0B28 F0                 1274 	movx	@dptr,a
                           1275 ;	LCD.c:100: map[0][14].schar = 4;
   0B29 90 00 EE           1276 	mov	dptr,#(_map + 0x000e)
   0B2C 74 04              1277 	mov	a,#0x04
   0B2E F0                 1278 	movx	@dptr,a
                           1279 ;	LCD.c:101: map[0][15].schar = 4;
   0B2F 90 00 EF           1280 	mov	dptr,#(_map + 0x000f)
   0B32 74 04              1281 	mov	a,#0x04
   0B34 F0                 1282 	movx	@dptr,a
                           1283 ;	LCD.c:103: map[1][0].schar = 6;
   0B35 90 00 F0           1284 	mov	dptr,#(_map + 0x0010)
   0B38 74 06              1285 	mov	a,#0x06
   0B3A F0                 1286 	movx	@dptr,a
                           1287 ;	LCD.c:104: map[1][1].schar = 2;
   0B3B 90 00 F1           1288 	mov	dptr,#(_map + 0x0011)
   0B3E 74 02              1289 	mov	a,#0x02
   0B40 F0                 1290 	movx	@dptr,a
                           1291 ;	LCD.c:105: map[1][2].schar = 4;
   0B41 90 00 F2           1292 	mov	dptr,#(_map + 0x0012)
   0B44 74 04              1293 	mov	a,#0x04
   0B46 F0                 1294 	movx	@dptr,a
                           1295 ;	LCD.c:106: map[1][3].schar = 2;
   0B47 90 00 F3           1296 	mov	dptr,#(_map + 0x0013)
   0B4A 74 02              1297 	mov	a,#0x02
   0B4C F0                 1298 	movx	@dptr,a
                           1299 ;	LCD.c:107: map[1][4].schar = 3;
   0B4D 90 00 F4           1300 	mov	dptr,#(_map + 0x0014)
   0B50 74 03              1301 	mov	a,#0x03
   0B52 F0                 1302 	movx	@dptr,a
                           1303 ;	LCD.c:108: map[1][5].schar = 5;
   0B53 90 00 F5           1304 	mov	dptr,#(_map + 0x0015)
   0B56 74 05              1305 	mov	a,#0x05
   0B58 F0                 1306 	movx	@dptr,a
                           1307 ;	LCD.c:109: map[1][6].schar = 6;
   0B59 90 00 F6           1308 	mov	dptr,#(_map + 0x0016)
   0B5C 74 06              1309 	mov	a,#0x06
   0B5E F0                 1310 	movx	@dptr,a
                           1311 ;	LCD.c:110: map[1][7].schar = 2;
   0B5F 90 00 F7           1312 	mov	dptr,#(_map + 0x0017)
   0B62 74 02              1313 	mov	a,#0x02
   0B64 F0                 1314 	movx	@dptr,a
                           1315 ;	LCD.c:111: map[1][8].schar = 3;
   0B65 90 00 F8           1316 	mov	dptr,#(_map + 0x0018)
   0B68 74 03              1317 	mov	a,#0x03
   0B6A F0                 1318 	movx	@dptr,a
                           1319 ;	LCD.c:112: map[1][9].schar = 6;
   0B6B 90 00 F9           1320 	mov	dptr,#(_map + 0x0019)
   0B6E 74 06              1321 	mov	a,#0x06
   0B70 F0                 1322 	movx	@dptr,a
                           1323 ;	LCD.c:113: map[1][10].schar = 4;
   0B71 90 00 FA           1324 	mov	dptr,#(_map + 0x001a)
   0B74 74 04              1325 	mov	a,#0x04
   0B76 F0                 1326 	movx	@dptr,a
                           1327 ;	LCD.c:114: map[1][11].schar = 3;
   0B77 90 00 FB           1328 	mov	dptr,#(_map + 0x001b)
   0B7A 74 03              1329 	mov	a,#0x03
   0B7C F0                 1330 	movx	@dptr,a
                           1331 ;	LCD.c:115: map[1][12].schar = 3;
   0B7D 90 00 FC           1332 	mov	dptr,#(_map + 0x001c)
   0B80 74 03              1333 	mov	a,#0x03
   0B82 F0                 1334 	movx	@dptr,a
                           1335 ;	LCD.c:116: map[1][13].schar = 6;
   0B83 90 00 FD           1336 	mov	dptr,#(_map + 0x001d)
   0B86 74 06              1337 	mov	a,#0x06
   0B88 F0                 1338 	movx	@dptr,a
                           1339 ;	LCD.c:117: map[1][14].schar = 3;
   0B89 90 00 FE           1340 	mov	dptr,#(_map + 0x001e)
   0B8C 74 03              1341 	mov	a,#0x03
   0B8E F0                 1342 	movx	@dptr,a
                           1343 ;	LCD.c:118: map[1][15].schar = 4;
   0B8F 90 00 FF           1344 	mov	dptr,#(_map + 0x001f)
   0B92 74 04              1345 	mov	a,#0x04
   0B94 F0                 1346 	movx	@dptr,a
                           1347 ;	LCD.c:120: map[2][0].schar = 2;
   0B95 90 01 00           1348 	mov	dptr,#(_map + 0x0020)
   0B98 74 02              1349 	mov	a,#0x02
   0B9A F0                 1350 	movx	@dptr,a
                           1351 ;	LCD.c:121: map[2][1].schar = 5;
   0B9B 90 01 01           1352 	mov	dptr,#(_map + 0x0021)
   0B9E 74 05              1353 	mov	a,#0x05
   0BA0 F0                 1354 	movx	@dptr,a
                           1355 ;	LCD.c:122: map[2][2].schar = 7;
   0BA1 90 01 02           1356 	mov	dptr,#(_map + 0x0022)
   0BA4 74 07              1357 	mov	a,#0x07
   0BA6 F0                 1358 	movx	@dptr,a
                           1359 ;	LCD.c:123: map[2][3].schar = 6;
   0BA7 90 01 03           1360 	mov	dptr,#(_map + 0x0023)
   0BAA 74 06              1361 	mov	a,#0x06
   0BAC F0                 1362 	movx	@dptr,a
                           1363 ;	LCD.c:124: map[2][4].schar = 6;
   0BAD 90 01 04           1364 	mov	dptr,#(_map + 0x0024)
   0BB0 74 06              1365 	mov	a,#0x06
   0BB2 F0                 1366 	movx	@dptr,a
                           1367 ;	LCD.c:125: map[2][5].schar = 3;
   0BB3 90 01 05           1368 	mov	dptr,#(_map + 0x0025)
   0BB6 74 03              1369 	mov	a,#0x03
   0BB8 F0                 1370 	movx	@dptr,a
                           1371 ;	LCD.c:126: map[2][6].schar = 5;
   0BB9 90 01 06           1372 	mov	dptr,#(_map + 0x0026)
   0BBC 74 05              1373 	mov	a,#0x05
   0BBE F0                 1374 	movx	@dptr,a
                           1375 ;	LCD.c:127: map[2][7].schar = 3;
   0BBF 90 01 07           1376 	mov	dptr,#(_map + 0x0027)
   0BC2 74 03              1377 	mov	a,#0x03
   0BC4 F0                 1378 	movx	@dptr,a
                           1379 ;	LCD.c:128: map[2][8].schar = 5;
   0BC5 90 01 08           1380 	mov	dptr,#(_map + 0x0028)
   0BC8 74 05              1381 	mov	a,#0x05
   0BCA F0                 1382 	movx	@dptr,a
                           1383 ;	LCD.c:129: map[2][9].schar = 5;
   0BCB 90 01 09           1384 	mov	dptr,#(_map + 0x0029)
   0BCE 74 05              1385 	mov	a,#0x05
   0BD0 F0                 1386 	movx	@dptr,a
                           1387 ;	LCD.c:130: map[2][10].schar = 3;
   0BD1 90 01 0A           1388 	mov	dptr,#(_map + 0x002a)
   0BD4 74 03              1389 	mov	a,#0x03
   0BD6 F0                 1390 	movx	@dptr,a
                           1391 ;	LCD.c:131: map[2][11].schar = 5;
   0BD7 90 01 0B           1392 	mov	dptr,#(_map + 0x002b)
   0BDA 74 05              1393 	mov	a,#0x05
   0BDC F0                 1394 	movx	@dptr,a
                           1395 ;	LCD.c:132: map[2][12].schar = 2;
   0BDD 90 01 0C           1396 	mov	dptr,#(_map + 0x002c)
   0BE0 74 02              1397 	mov	a,#0x02
   0BE2 F0                 1398 	movx	@dptr,a
                           1399 ;	LCD.c:133: map[2][13].schar = 5;
   0BE3 90 01 0D           1400 	mov	dptr,#(_map + 0x002d)
   0BE6 74 05              1401 	mov	a,#0x05
   0BE8 F0                 1402 	movx	@dptr,a
                           1403 ;	LCD.c:134: map[2][14].schar = 3;
   0BE9 90 01 0E           1404 	mov	dptr,#(_map + 0x002e)
   0BEC 74 03              1405 	mov	a,#0x03
   0BEE F0                 1406 	movx	@dptr,a
                           1407 ;	LCD.c:135: map[2][15].schar = 2;
   0BEF 90 01 0F           1408 	mov	dptr,#(_map + 0x002f)
   0BF2 74 02              1409 	mov	a,#0x02
   0BF4 F0                 1410 	movx	@dptr,a
                           1411 ;	LCD.c:137: map[3][0].schar = 7;
   0BF5 90 01 10           1412 	mov	dptr,#(_map + 0x0030)
   0BF8 74 07              1413 	mov	a,#0x07
   0BFA F0                 1414 	movx	@dptr,a
                           1415 ;	LCD.c:138: map[3][1].schar = 8;
   0BFB 90 01 11           1416 	mov	dptr,#(_map + 0x0031)
   0BFE 74 08              1417 	mov	a,#0x08
   0C00 F0                 1418 	movx	@dptr,a
                           1419 ;	LCD.c:139: map[3][2].schar = 8;
   0C01 90 01 12           1420 	mov	dptr,#(_map + 0x0032)
   0C04 74 08              1421 	mov	a,#0x08
   0C06 F0                 1422 	movx	@dptr,a
                           1423 ;	LCD.c:140: map[3][3].schar = 8;
   0C07 90 01 13           1424 	mov	dptr,#(_map + 0x0033)
   0C0A 74 08              1425 	mov	a,#0x08
   0C0C F0                 1426 	movx	@dptr,a
                           1427 ;	LCD.c:141: map[3][4].schar = 8;
   0C0D 90 01 14           1428 	mov	dptr,#(_map + 0x0034)
   0C10 74 08              1429 	mov	a,#0x08
   0C12 F0                 1430 	movx	@dptr,a
                           1431 ;	LCD.c:142: map[3][5].schar = 8;
   0C13 90 01 15           1432 	mov	dptr,#(_map + 0x0035)
   0C16 74 08              1433 	mov	a,#0x08
   0C18 F0                 1434 	movx	@dptr,a
                           1435 ;	LCD.c:143: map[3][6].schar = 8;
   0C19 90 01 16           1436 	mov	dptr,#(_map + 0x0036)
   0C1C 74 08              1437 	mov	a,#0x08
   0C1E F0                 1438 	movx	@dptr,a
                           1439 ;	LCD.c:144: map[3][7].schar = 8;
   0C1F 90 01 17           1440 	mov	dptr,#(_map + 0x0037)
   0C22 74 08              1441 	mov	a,#0x08
   0C24 F0                 1442 	movx	@dptr,a
                           1443 ;	LCD.c:145: map[3][8].schar = 7;
   0C25 90 01 18           1444 	mov	dptr,#(_map + 0x0038)
   0C28 74 07              1445 	mov	a,#0x07
   0C2A F0                 1446 	movx	@dptr,a
                           1447 ;	LCD.c:146: map[3][9].schar = 2;
   0C2B 90 01 19           1448 	mov	dptr,#(_map + 0x0039)
   0C2E 74 02              1449 	mov	a,#0x02
   0C30 F0                 1450 	movx	@dptr,a
                           1451 ;	LCD.c:147: map[3][10].schar = 8;
   0C31 90 01 1A           1452 	mov	dptr,#(_map + 0x003a)
   0C34 74 08              1453 	mov	a,#0x08
   0C36 F0                 1454 	movx	@dptr,a
                           1455 ;	LCD.c:148: map[3][11].schar = 8;
   0C37 90 01 1B           1456 	mov	dptr,#(_map + 0x003b)
   0C3A 74 08              1457 	mov	a,#0x08
   0C3C F0                 1458 	movx	@dptr,a
                           1459 ;	LCD.c:149: map[3][12].schar = 8;
   0C3D 90 01 1C           1460 	mov	dptr,#(_map + 0x003c)
   0C40 74 08              1461 	mov	a,#0x08
   0C42 F0                 1462 	movx	@dptr,a
                           1463 ;	LCD.c:150: map[3][13].schar = 8;
   0C43 90 01 1D           1464 	mov	dptr,#(_map + 0x003d)
   0C46 74 08              1465 	mov	a,#0x08
   0C48 F0                 1466 	movx	@dptr,a
                           1467 ;	LCD.c:151: map[3][14].schar = 7;
   0C49 90 01 1E           1468 	mov	dptr,#(_map + 0x003e)
   0C4C 74 07              1469 	mov	a,#0x07
   0C4E F0                 1470 	movx	@dptr,a
                           1471 ;	LCD.c:152: map[3][15].schar = 7;
   0C4F 90 01 1F           1472 	mov	dptr,#(_map + 0x003f)
   0C52 74 07              1473 	mov	a,#0x07
   0C54 F0                 1474 	movx	@dptr,a
                           1475 ;	LCD.c:154: printMap();
   0C55 02 07 D5           1476 	ljmp	_printMap
                           1477 ;------------------------------------------------------------
                           1478 ;Allocation info for local variables in function 'setMap2CGram'
                           1479 ;------------------------------------------------------------
                           1480 ;n                         Allocated with name '_setMap2CGram_n_1_1'
                           1481 ;m                         Allocated with name '_setMap2CGram_m_1_1'
                           1482 ;c0                        Allocated with name '_setMap2CGram_c0_1_1'
                           1483 ;c1                        Allocated with name '_setMap2CGram_c1_1_1'
                           1484 ;c2                        Allocated with name '_setMap2CGram_c2_1_1'
                           1485 ;c3                        Allocated with name '_setMap2CGram_c3_1_1'
                           1486 ;c4                        Allocated with name '_setMap2CGram_c4_1_1'
                           1487 ;c5                        Allocated with name '_setMap2CGram_c5_1_1'
                           1488 ;c6                        Allocated with name '_setMap2CGram_c6_1_1'
                           1489 ;c7                        Allocated with name '_setMap2CGram_c7_1_1'
                           1490 ;------------------------------------------------------------
                           1491 ;	LCD.c:158: void setMap2CGram(){
                           1492 ;	-----------------------------------------
                           1493 ;	 function setMap2CGram
                           1494 ;	-----------------------------------------
   0C58                    1495 _setMap2CGram:
                           1496 ;	LCD.c:161: unsigned char c0[] =  {0,0,0,0,0,0,0,0};
   0C58 90 01 6D           1497 	mov	dptr,#_setMap2CGram_c0_1_1
   0C5B E4                 1498 	clr	a
   0C5C F0                 1499 	movx	@dptr,a
   0C5D 90 01 6E           1500 	mov	dptr,#(_setMap2CGram_c0_1_1 + 0x0001)
   0C60 F0                 1501 	movx	@dptr,a
   0C61 90 01 6F           1502 	mov	dptr,#(_setMap2CGram_c0_1_1 + 0x0002)
   0C64 F0                 1503 	movx	@dptr,a
   0C65 90 01 70           1504 	mov	dptr,#(_setMap2CGram_c0_1_1 + 0x0003)
   0C68 F0                 1505 	movx	@dptr,a
   0C69 90 01 71           1506 	mov	dptr,#(_setMap2CGram_c0_1_1 + 0x0004)
   0C6C E4                 1507 	clr	a
   0C6D F0                 1508 	movx	@dptr,a
   0C6E 90 01 72           1509 	mov	dptr,#(_setMap2CGram_c0_1_1 + 0x0005)
   0C71 F0                 1510 	movx	@dptr,a
   0C72 90 01 73           1511 	mov	dptr,#(_setMap2CGram_c0_1_1 + 0x0006)
   0C75 F0                 1512 	movx	@dptr,a
   0C76 90 01 74           1513 	mov	dptr,#(_setMap2CGram_c0_1_1 + 0x0007)
   0C79 F0                 1514 	movx	@dptr,a
                           1515 ;	LCD.c:162: unsigned char c1[] =  {0x1B,0x10,0x17,0x10,0x13,0x14,0x02,0x11};
   0C7A 90 01 75           1516 	mov	dptr,#_setMap2CGram_c1_1_1
   0C7D 74 1B              1517 	mov	a,#0x1B
   0C7F F0                 1518 	movx	@dptr,a
   0C80 90 01 76           1519 	mov	dptr,#(_setMap2CGram_c1_1_1 + 0x0001)
   0C83 74 10              1520 	mov	a,#0x10
   0C85 F0                 1521 	movx	@dptr,a
   0C86 90 01 77           1522 	mov	dptr,#(_setMap2CGram_c1_1_1 + 0x0002)
   0C89 74 17              1523 	mov	a,#0x17
   0C8B F0                 1524 	movx	@dptr,a
   0C8C 90 01 78           1525 	mov	dptr,#(_setMap2CGram_c1_1_1 + 0x0003)
   0C8F 74 10              1526 	mov	a,#0x10
   0C91 F0                 1527 	movx	@dptr,a
   0C92 90 01 79           1528 	mov	dptr,#(_setMap2CGram_c1_1_1 + 0x0004)
   0C95 74 13              1529 	mov	a,#0x13
   0C97 F0                 1530 	movx	@dptr,a
   0C98 90 01 7A           1531 	mov	dptr,#(_setMap2CGram_c1_1_1 + 0x0005)
   0C9B 74 14              1532 	mov	a,#0x14
   0C9D F0                 1533 	movx	@dptr,a
   0C9E 90 01 7B           1534 	mov	dptr,#(_setMap2CGram_c1_1_1 + 0x0006)
   0CA1 74 02              1535 	mov	a,#0x02
   0CA3 F0                 1536 	movx	@dptr,a
   0CA4 90 01 7C           1537 	mov	dptr,#(_setMap2CGram_c1_1_1 + 0x0007)
   0CA7 74 11              1538 	mov	a,#0x11
   0CA9 F0                 1539 	movx	@dptr,a
                           1540 ;	LCD.c:163: unsigned char c2[] =  {0x1F,0x00,0x17,0x12,0x02,0x0B,0x08,0x05};
   0CAA 90 01 7D           1541 	mov	dptr,#_setMap2CGram_c2_1_1
   0CAD 74 1F              1542 	mov	a,#0x1F
   0CAF F0                 1543 	movx	@dptr,a
   0CB0 90 01 7E           1544 	mov	dptr,#(_setMap2CGram_c2_1_1 + 0x0001)
   0CB3 E4                 1545 	clr	a
   0CB4 F0                 1546 	movx	@dptr,a
   0CB5 90 01 7F           1547 	mov	dptr,#(_setMap2CGram_c2_1_1 + 0x0002)
   0CB8 74 17              1548 	mov	a,#0x17
   0CBA F0                 1549 	movx	@dptr,a
   0CBB 90 01 80           1550 	mov	dptr,#(_setMap2CGram_c2_1_1 + 0x0003)
   0CBE 74 12              1551 	mov	a,#0x12
   0CC0 F0                 1552 	movx	@dptr,a
   0CC1 90 01 81           1553 	mov	dptr,#(_setMap2CGram_c2_1_1 + 0x0004)
   0CC4 74 02              1554 	mov	a,#0x02
   0CC6 F0                 1555 	movx	@dptr,a
   0CC7 90 01 82           1556 	mov	dptr,#(_setMap2CGram_c2_1_1 + 0x0005)
   0CCA 74 0B              1557 	mov	a,#0x0B
   0CCC F0                 1558 	movx	@dptr,a
   0CCD 90 01 83           1559 	mov	dptr,#(_setMap2CGram_c2_1_1 + 0x0006)
   0CD0 74 08              1560 	mov	a,#0x08
   0CD2 F0                 1561 	movx	@dptr,a
   0CD3 90 01 84           1562 	mov	dptr,#(_setMap2CGram_c2_1_1 + 0x0007)
   0CD6 74 05              1563 	mov	a,#0x05
   0CD8 F0                 1564 	movx	@dptr,a
                           1565 ;	LCD.c:164: unsigned char c3[] =  {0x1F,0x01,0x15,0x05,0x04,0x1D,0x00,0x13};
   0CD9 90 01 85           1566 	mov	dptr,#_setMap2CGram_c3_1_1
   0CDC 74 1F              1567 	mov	a,#0x1F
   0CDE F0                 1568 	movx	@dptr,a
   0CDF 90 01 86           1569 	mov	dptr,#(_setMap2CGram_c3_1_1 + 0x0001)
   0CE2 74 01              1570 	mov	a,#0x01
   0CE4 F0                 1571 	movx	@dptr,a
   0CE5 90 01 87           1572 	mov	dptr,#(_setMap2CGram_c3_1_1 + 0x0002)
   0CE8 74 15              1573 	mov	a,#0x15
   0CEA F0                 1574 	movx	@dptr,a
   0CEB 90 01 88           1575 	mov	dptr,#(_setMap2CGram_c3_1_1 + 0x0003)
   0CEE 74 05              1576 	mov	a,#0x05
   0CF0 F0                 1577 	movx	@dptr,a
   0CF1 90 01 89           1578 	mov	dptr,#(_setMap2CGram_c3_1_1 + 0x0004)
   0CF4 74 04              1579 	mov	a,#0x04
   0CF6 F0                 1580 	movx	@dptr,a
   0CF7 90 01 8A           1581 	mov	dptr,#(_setMap2CGram_c3_1_1 + 0x0005)
   0CFA 74 1D              1582 	mov	a,#0x1D
   0CFC F0                 1583 	movx	@dptr,a
   0CFD 90 01 8B           1584 	mov	dptr,#(_setMap2CGram_c3_1_1 + 0x0006)
   0D00 E4                 1585 	clr	a
   0D01 F0                 1586 	movx	@dptr,a
   0D02 90 01 8C           1587 	mov	dptr,#(_setMap2CGram_c3_1_1 + 0x0007)
   0D05 74 13              1588 	mov	a,#0x13
   0D07 F0                 1589 	movx	@dptr,a
                           1590 ;	LCD.c:165: unsigned char c4[] =  {0x1D,0x15,0x11,0x15,0x15,0x14,0x12,0x19};
   0D08 90 01 8D           1591 	mov	dptr,#_setMap2CGram_c4_1_1
   0D0B 74 1D              1592 	mov	a,#0x1D
   0D0D F0                 1593 	movx	@dptr,a
   0D0E 90 01 8E           1594 	mov	dptr,#(_setMap2CGram_c4_1_1 + 0x0001)
   0D11 74 15              1595 	mov	a,#0x15
   0D13 F0                 1596 	movx	@dptr,a
   0D14 90 01 8F           1597 	mov	dptr,#(_setMap2CGram_c4_1_1 + 0x0002)
   0D17 74 11              1598 	mov	a,#0x11
   0D19 F0                 1599 	movx	@dptr,a
   0D1A 90 01 90           1600 	mov	dptr,#(_setMap2CGram_c4_1_1 + 0x0003)
   0D1D 74 15              1601 	mov	a,#0x15
   0D1F F0                 1602 	movx	@dptr,a
   0D20 90 01 91           1603 	mov	dptr,#(_setMap2CGram_c4_1_1 + 0x0004)
   0D23 74 15              1604 	mov	a,#0x15
   0D25 F0                 1605 	movx	@dptr,a
   0D26 90 01 92           1606 	mov	dptr,#(_setMap2CGram_c4_1_1 + 0x0005)
   0D29 74 14              1607 	mov	a,#0x14
   0D2B F0                 1608 	movx	@dptr,a
   0D2C 90 01 93           1609 	mov	dptr,#(_setMap2CGram_c4_1_1 + 0x0006)
   0D2F 74 12              1610 	mov	a,#0x12
   0D31 F0                 1611 	movx	@dptr,a
   0D32 90 01 94           1612 	mov	dptr,#(_setMap2CGram_c4_1_1 + 0x0007)
   0D35 74 19              1613 	mov	a,#0x19
   0D37 F0                 1614 	movx	@dptr,a
                           1615 ;	LCD.c:166: unsigned char c5[] =  {0x1C,0x1D,0x01,0x03,0x17,0x03,0x1B,0x1A};
   0D38 90 01 95           1616 	mov	dptr,#_setMap2CGram_c5_1_1
   0D3B 74 1C              1617 	mov	a,#0x1C
   0D3D F0                 1618 	movx	@dptr,a
   0D3E 90 01 96           1619 	mov	dptr,#(_setMap2CGram_c5_1_1 + 0x0001)
   0D41 74 1D              1620 	mov	a,#0x1D
   0D43 F0                 1621 	movx	@dptr,a
   0D44 90 01 97           1622 	mov	dptr,#(_setMap2CGram_c5_1_1 + 0x0002)
   0D47 74 01              1623 	mov	a,#0x01
   0D49 F0                 1624 	movx	@dptr,a
   0D4A 90 01 98           1625 	mov	dptr,#(_setMap2CGram_c5_1_1 + 0x0003)
   0D4D 74 03              1626 	mov	a,#0x03
   0D4F F0                 1627 	movx	@dptr,a
   0D50 90 01 99           1628 	mov	dptr,#(_setMap2CGram_c5_1_1 + 0x0004)
   0D53 74 17              1629 	mov	a,#0x17
   0D55 F0                 1630 	movx	@dptr,a
   0D56 90 01 9A           1631 	mov	dptr,#(_setMap2CGram_c5_1_1 + 0x0005)
   0D59 74 03              1632 	mov	a,#0x03
   0D5B F0                 1633 	movx	@dptr,a
   0D5C 90 01 9B           1634 	mov	dptr,#(_setMap2CGram_c5_1_1 + 0x0006)
   0D5F 74 1B              1635 	mov	a,#0x1B
   0D61 F0                 1636 	movx	@dptr,a
   0D62 90 01 9C           1637 	mov	dptr,#(_setMap2CGram_c5_1_1 + 0x0007)
   0D65 74 1A              1638 	mov	a,#0x1A
   0D67 F0                 1639 	movx	@dptr,a
                           1640 ;	LCD.c:167: unsigned char c6[] =  {0x1D,0x11,0x13,0x17,0x14,0x15,0x10,0x1F};
   0D68 90 01 9D           1641 	mov	dptr,#_setMap2CGram_c6_1_1
   0D6B 74 1D              1642 	mov	a,#0x1D
   0D6D F0                 1643 	movx	@dptr,a
   0D6E 90 01 9E           1644 	mov	dptr,#(_setMap2CGram_c6_1_1 + 0x0001)
   0D71 74 11              1645 	mov	a,#0x11
   0D73 F0                 1646 	movx	@dptr,a
   0D74 90 01 9F           1647 	mov	dptr,#(_setMap2CGram_c6_1_1 + 0x0002)
   0D77 74 13              1648 	mov	a,#0x13
   0D79 F0                 1649 	movx	@dptr,a
   0D7A 90 01 A0           1650 	mov	dptr,#(_setMap2CGram_c6_1_1 + 0x0003)
   0D7D 74 17              1651 	mov	a,#0x17
   0D7F F0                 1652 	movx	@dptr,a
   0D80 90 01 A1           1653 	mov	dptr,#(_setMap2CGram_c6_1_1 + 0x0004)
   0D83 74 14              1654 	mov	a,#0x14
   0D85 F0                 1655 	movx	@dptr,a
   0D86 90 01 A2           1656 	mov	dptr,#(_setMap2CGram_c6_1_1 + 0x0005)
   0D89 74 15              1657 	mov	a,#0x15
   0D8B F0                 1658 	movx	@dptr,a
   0D8C 90 01 A3           1659 	mov	dptr,#(_setMap2CGram_c6_1_1 + 0x0006)
   0D8F 74 10              1660 	mov	a,#0x10
   0D91 F0                 1661 	movx	@dptr,a
   0D92 90 01 A4           1662 	mov	dptr,#(_setMap2CGram_c6_1_1 + 0x0007)
   0D95 74 1F              1663 	mov	a,#0x1F
   0D97 F0                 1664 	movx	@dptr,a
                           1665 ;	LCD.c:168: unsigned char c7[] =  {0x06,0x0F,0x0F,0x00,0x03,0x03,0x03,0x1F};
   0D98 90 01 A5           1666 	mov	dptr,#_setMap2CGram_c7_1_1
   0D9B 74 06              1667 	mov	a,#0x06
   0D9D F0                 1668 	movx	@dptr,a
   0D9E 90 01 A6           1669 	mov	dptr,#(_setMap2CGram_c7_1_1 + 0x0001)
   0DA1 74 0F              1670 	mov	a,#0x0F
   0DA3 F0                 1671 	movx	@dptr,a
   0DA4 90 01 A7           1672 	mov	dptr,#(_setMap2CGram_c7_1_1 + 0x0002)
   0DA7 74 0F              1673 	mov	a,#0x0F
   0DA9 F0                 1674 	movx	@dptr,a
   0DAA 90 01 A8           1675 	mov	dptr,#(_setMap2CGram_c7_1_1 + 0x0003)
   0DAD E4                 1676 	clr	a
   0DAE F0                 1677 	movx	@dptr,a
   0DAF 90 01 A9           1678 	mov	dptr,#(_setMap2CGram_c7_1_1 + 0x0004)
   0DB2 74 03              1679 	mov	a,#0x03
   0DB4 F0                 1680 	movx	@dptr,a
   0DB5 90 01 AA           1681 	mov	dptr,#(_setMap2CGram_c7_1_1 + 0x0005)
   0DB8 74 03              1682 	mov	a,#0x03
   0DBA F0                 1683 	movx	@dptr,a
   0DBB 90 01 AB           1684 	mov	dptr,#(_setMap2CGram_c7_1_1 + 0x0006)
   0DBE 74 03              1685 	mov	a,#0x03
   0DC0 F0                 1686 	movx	@dptr,a
   0DC1 90 01 AC           1687 	mov	dptr,#(_setMap2CGram_c7_1_1 + 0x0007)
   0DC4 74 1F              1688 	mov	a,#0x1F
   0DC6 F0                 1689 	movx	@dptr,a
                           1690 ;	LCD.c:170: for(n = 0; n < 8 ;n++){
   0DC7 7A 00              1691 	mov	r2,#0x00
   0DC9                    1692 00101$:
   0DC9 BA 08 00           1693 	cjne	r2,#0x08,00124$
   0DCC                    1694 00124$:
   0DCC 40 03              1695 	jc	00125$
   0DCE 02 0E 96           1696 	ljmp	00104$
   0DD1                    1697 00125$:
                           1698 ;	LCD.c:171: SCmap[0].adds[n] = c0[n];
   0DD1 EA                 1699 	mov	a,r2
   0DD2 24 A0              1700 	add	a,#_SCmap
   0DD4 FB                 1701 	mov	r3,a
   0DD5 E4                 1702 	clr	a
   0DD6 34 00              1703 	addc	a,#(_SCmap >> 8)
   0DD8 FC                 1704 	mov	r4,a
   0DD9 EA                 1705 	mov	a,r2
   0DDA 24 6D              1706 	add	a,#_setMap2CGram_c0_1_1
   0DDC F5 82              1707 	mov	dpl,a
   0DDE E4                 1708 	clr	a
   0DDF 34 01              1709 	addc	a,#(_setMap2CGram_c0_1_1 >> 8)
   0DE1 F5 83              1710 	mov	dph,a
   0DE3 E0                 1711 	movx	a,@dptr
   0DE4 8B 82              1712 	mov	dpl,r3
   0DE6 8C 83              1713 	mov	dph,r4
   0DE8 F0                 1714 	movx	@dptr,a
                           1715 ;	LCD.c:172: SCmap[1].adds[n] = c1[n];
   0DE9 EA                 1716 	mov	a,r2
   0DEA 24 A8              1717 	add	a,#(_SCmap + 0x0008)
   0DEC FB                 1718 	mov	r3,a
   0DED E4                 1719 	clr	a
   0DEE 34 00              1720 	addc	a,#((_SCmap + 0x0008) >> 8)
   0DF0 FC                 1721 	mov	r4,a
   0DF1 EA                 1722 	mov	a,r2
   0DF2 24 75              1723 	add	a,#_setMap2CGram_c1_1_1
   0DF4 F5 82              1724 	mov	dpl,a
   0DF6 E4                 1725 	clr	a
   0DF7 34 01              1726 	addc	a,#(_setMap2CGram_c1_1_1 >> 8)
   0DF9 F5 83              1727 	mov	dph,a
   0DFB E0                 1728 	movx	a,@dptr
   0DFC 8B 82              1729 	mov	dpl,r3
   0DFE 8C 83              1730 	mov	dph,r4
   0E00 F0                 1731 	movx	@dptr,a
                           1732 ;	LCD.c:173: SCmap[2].adds[n] = c2[n];
   0E01 EA                 1733 	mov	a,r2
   0E02 24 B0              1734 	add	a,#(_SCmap + 0x0010)
   0E04 FB                 1735 	mov	r3,a
   0E05 E4                 1736 	clr	a
   0E06 34 00              1737 	addc	a,#((_SCmap + 0x0010) >> 8)
   0E08 FC                 1738 	mov	r4,a
   0E09 EA                 1739 	mov	a,r2
   0E0A 24 7D              1740 	add	a,#_setMap2CGram_c2_1_1
   0E0C F5 82              1741 	mov	dpl,a
   0E0E E4                 1742 	clr	a
   0E0F 34 01              1743 	addc	a,#(_setMap2CGram_c2_1_1 >> 8)
   0E11 F5 83              1744 	mov	dph,a
   0E13 E0                 1745 	movx	a,@dptr
   0E14 8B 82              1746 	mov	dpl,r3
   0E16 8C 83              1747 	mov	dph,r4
   0E18 F0                 1748 	movx	@dptr,a
                           1749 ;	LCD.c:174: SCmap[3].adds[n] = c3[n];
   0E19 EA                 1750 	mov	a,r2
   0E1A 24 B8              1751 	add	a,#(_SCmap + 0x0018)
   0E1C FB                 1752 	mov	r3,a
   0E1D E4                 1753 	clr	a
   0E1E 34 00              1754 	addc	a,#((_SCmap + 0x0018) >> 8)
   0E20 FC                 1755 	mov	r4,a
   0E21 EA                 1756 	mov	a,r2
   0E22 24 85              1757 	add	a,#_setMap2CGram_c3_1_1
   0E24 F5 82              1758 	mov	dpl,a
   0E26 E4                 1759 	clr	a
   0E27 34 01              1760 	addc	a,#(_setMap2CGram_c3_1_1 >> 8)
   0E29 F5 83              1761 	mov	dph,a
   0E2B E0                 1762 	movx	a,@dptr
   0E2C 8B 82              1763 	mov	dpl,r3
   0E2E 8C 83              1764 	mov	dph,r4
   0E30 F0                 1765 	movx	@dptr,a
                           1766 ;	LCD.c:175: SCmap[4].adds[n] = c4[n];
   0E31 EA                 1767 	mov	a,r2
   0E32 24 C0              1768 	add	a,#(_SCmap + 0x0020)
   0E34 FB                 1769 	mov	r3,a
   0E35 E4                 1770 	clr	a
   0E36 34 00              1771 	addc	a,#((_SCmap + 0x0020) >> 8)
   0E38 FC                 1772 	mov	r4,a
   0E39 EA                 1773 	mov	a,r2
   0E3A 24 8D              1774 	add	a,#_setMap2CGram_c4_1_1
   0E3C F5 82              1775 	mov	dpl,a
   0E3E E4                 1776 	clr	a
   0E3F 34 01              1777 	addc	a,#(_setMap2CGram_c4_1_1 >> 8)
   0E41 F5 83              1778 	mov	dph,a
   0E43 E0                 1779 	movx	a,@dptr
   0E44 8B 82              1780 	mov	dpl,r3
   0E46 8C 83              1781 	mov	dph,r4
   0E48 F0                 1782 	movx	@dptr,a
                           1783 ;	LCD.c:176: SCmap[5].adds[n] = c5[n];
   0E49 EA                 1784 	mov	a,r2
   0E4A 24 C8              1785 	add	a,#(_SCmap + 0x0028)
   0E4C FB                 1786 	mov	r3,a
   0E4D E4                 1787 	clr	a
   0E4E 34 00              1788 	addc	a,#((_SCmap + 0x0028) >> 8)
   0E50 FC                 1789 	mov	r4,a
   0E51 EA                 1790 	mov	a,r2
   0E52 24 95              1791 	add	a,#_setMap2CGram_c5_1_1
   0E54 F5 82              1792 	mov	dpl,a
   0E56 E4                 1793 	clr	a
   0E57 34 01              1794 	addc	a,#(_setMap2CGram_c5_1_1 >> 8)
   0E59 F5 83              1795 	mov	dph,a
   0E5B E0                 1796 	movx	a,@dptr
   0E5C 8B 82              1797 	mov	dpl,r3
   0E5E 8C 83              1798 	mov	dph,r4
   0E60 F0                 1799 	movx	@dptr,a
                           1800 ;	LCD.c:177: SCmap[6].adds[n] = c6[n];
   0E61 EA                 1801 	mov	a,r2
   0E62 24 D0              1802 	add	a,#(_SCmap + 0x0030)
   0E64 FB                 1803 	mov	r3,a
   0E65 E4                 1804 	clr	a
   0E66 34 00              1805 	addc	a,#((_SCmap + 0x0030) >> 8)
   0E68 FC                 1806 	mov	r4,a
   0E69 EA                 1807 	mov	a,r2
   0E6A 24 9D              1808 	add	a,#_setMap2CGram_c6_1_1
   0E6C F5 82              1809 	mov	dpl,a
   0E6E E4                 1810 	clr	a
   0E6F 34 01              1811 	addc	a,#(_setMap2CGram_c6_1_1 >> 8)
   0E71 F5 83              1812 	mov	dph,a
   0E73 E0                 1813 	movx	a,@dptr
   0E74 8B 82              1814 	mov	dpl,r3
   0E76 8C 83              1815 	mov	dph,r4
   0E78 F0                 1816 	movx	@dptr,a
                           1817 ;	LCD.c:178: SCmap[7].adds[n] = c7[n];
   0E79 EA                 1818 	mov	a,r2
   0E7A 24 D8              1819 	add	a,#(_SCmap + 0x0038)
   0E7C FB                 1820 	mov	r3,a
   0E7D E4                 1821 	clr	a
   0E7E 34 00              1822 	addc	a,#((_SCmap + 0x0038) >> 8)
   0E80 FC                 1823 	mov	r4,a
   0E81 EA                 1824 	mov	a,r2
   0E82 24 A5              1825 	add	a,#_setMap2CGram_c7_1_1
   0E84 F5 82              1826 	mov	dpl,a
   0E86 E4                 1827 	clr	a
   0E87 34 01              1828 	addc	a,#(_setMap2CGram_c7_1_1 >> 8)
   0E89 F5 83              1829 	mov	dph,a
   0E8B E0                 1830 	movx	a,@dptr
   0E8C FD                 1831 	mov	r5,a
   0E8D 8B 82              1832 	mov	dpl,r3
   0E8F 8C 83              1833 	mov	dph,r4
   0E91 F0                 1834 	movx	@dptr,a
                           1835 ;	LCD.c:170: for(n = 0; n < 8 ;n++){
   0E92 0A                 1836 	inc	r2
   0E93 02 0D C9           1837 	ljmp	00101$
   0E96                    1838 00104$:
                           1839 ;	LCD.c:181: winstLCD = setCgramAddress;    				 // Atribuindo primeiro endereo da CGRAM
   0E96 90 FF C2           1840 	mov	dptr,#_winstLCD
   0E99 74 40              1841 	mov	a,#0x40
   0E9B F0                 1842 	movx	@dptr,a
                           1843 ;	LCD.c:182: delay(10,0);
   0E9C 90 02 D2           1844 	mov	dptr,#_delay_PARM_2
   0E9F E4                 1845 	clr	a
   0EA0 F0                 1846 	movx	@dptr,a
   0EA1 90 00 0A           1847 	mov	dptr,#0x000A
   0EA4 12 22 33           1848 	lcall	_delay
                           1849 ;	LCD.c:184: for(m = 0;m< 8; m++){
   0EA7 7A 00              1850 	mov	r2,#0x00
   0EA9                    1851 00109$:
   0EA9 BA 08 00           1852 	cjne	r2,#0x08,00126$
   0EAC                    1853 00126$:
   0EAC 50 3F              1854 	jnc	00112$
                           1855 ;	LCD.c:185: for(n = 0; n < 8 ;n++){
   0EAE EA                 1856 	mov	a,r2
   0EAF C4                 1857 	swap	a
   0EB0 03                 1858 	rr	a
   0EB1 54 F8              1859 	anl	a,#0xf8
   0EB3 FB                 1860 	mov	r3,a
   0EB4 7C 00              1861 	mov	r4,#0x00
   0EB6                    1862 00105$:
   0EB6 BC 08 00           1863 	cjne	r4,#0x08,00128$
   0EB9                    1864 00128$:
   0EB9 50 2F              1865 	jnc	00111$
                           1866 ;	LCD.c:186: wdataLCD = SCmap[m].adds[n];                // Atribuindo escrita
   0EBB EB                 1867 	mov	a,r3
   0EBC 24 A0              1868 	add	a,#_SCmap
   0EBE FD                 1869 	mov	r5,a
   0EBF E4                 1870 	clr	a
   0EC0 34 00              1871 	addc	a,#(_SCmap >> 8)
   0EC2 FE                 1872 	mov	r6,a
   0EC3 EC                 1873 	mov	a,r4
   0EC4 2D                 1874 	add	a,r5
   0EC5 F5 82              1875 	mov	dpl,a
   0EC7 E4                 1876 	clr	a
   0EC8 3E                 1877 	addc	a,r6
   0EC9 F5 83              1878 	mov	dph,a
   0ECB E0                 1879 	movx	a,@dptr
   0ECC 90 FF D2           1880 	mov	dptr,#_wdataLCD
   0ECF F0                 1881 	movx	@dptr,a
                           1882 ;	LCD.c:187: delay(10,0);
   0ED0 90 02 D2           1883 	mov	dptr,#_delay_PARM_2
   0ED3 E4                 1884 	clr	a
   0ED4 F0                 1885 	movx	@dptr,a
   0ED5 90 00 0A           1886 	mov	dptr,#0x000A
   0ED8 C0 02              1887 	push	ar2
   0EDA C0 03              1888 	push	ar3
   0EDC C0 04              1889 	push	ar4
   0EDE 12 22 33           1890 	lcall	_delay
   0EE1 D0 04              1891 	pop	ar4
   0EE3 D0 03              1892 	pop	ar3
   0EE5 D0 02              1893 	pop	ar2
                           1894 ;	LCD.c:185: for(n = 0; n < 8 ;n++){
   0EE7 0C                 1895 	inc	r4
   0EE8 80 CC              1896 	sjmp	00105$
   0EEA                    1897 00111$:
                           1898 ;	LCD.c:184: for(m = 0;m< 8; m++){
   0EEA 0A                 1899 	inc	r2
   0EEB 80 BC              1900 	sjmp	00109$
   0EED                    1901 00112$:
                           1902 ;	LCD.c:191: map[0][0].schar = 2;
   0EED 90 00 E0           1903 	mov	dptr,#_map
   0EF0 74 02              1904 	mov	a,#0x02
   0EF2 F0                 1905 	movx	@dptr,a
                           1906 ;	LCD.c:192: map[0][1].schar = 3;
   0EF3 90 00 E1           1907 	mov	dptr,#(_map + 0x0001)
   0EF6 74 03              1908 	mov	a,#0x03
   0EF8 F0                 1909 	movx	@dptr,a
                           1910 ;	LCD.c:193: map[0][2].schar = 4;
   0EF9 90 00 E2           1911 	mov	dptr,#(_map + 0x0002)
   0EFC 74 04              1912 	mov	a,#0x04
   0EFE F0                 1913 	movx	@dptr,a
                           1914 ;	LCD.c:194: map[0][3].schar = 3;
   0EFF 90 00 E3           1915 	mov	dptr,#(_map + 0x0003)
   0F02 74 03              1916 	mov	a,#0x03
   0F04 F0                 1917 	movx	@dptr,a
                           1918 ;	LCD.c:195: map[0][4].schar = 3;
   0F05 90 00 E4           1919 	mov	dptr,#(_map + 0x0004)
   0F08 74 03              1920 	mov	a,#0x03
   0F0A F0                 1921 	movx	@dptr,a
                           1922 ;	LCD.c:196: map[0][5].schar = 3;
   0F0B 90 00 E5           1923 	mov	dptr,#(_map + 0x0005)
   0F0E 74 03              1924 	mov	a,#0x03
   0F10 F0                 1925 	movx	@dptr,a
                           1926 ;	LCD.c:197: map[0][6].schar = 5;
   0F11 90 00 E6           1927 	mov	dptr,#(_map + 0x0006)
   0F14 74 05              1928 	mov	a,#0x05
   0F16 F0                 1929 	movx	@dptr,a
                           1930 ;	LCD.c:198: map[0][7].schar = 4;
   0F17 90 00 E7           1931 	mov	dptr,#(_map + 0x0007)
   0F1A 74 04              1932 	mov	a,#0x04
   0F1C F0                 1933 	movx	@dptr,a
                           1934 ;	LCD.c:199: map[0][8].schar = 4;
   0F1D 90 00 E8           1935 	mov	dptr,#(_map + 0x0008)
   0F20 74 04              1936 	mov	a,#0x04
   0F22 F0                 1937 	movx	@dptr,a
                           1938 ;	LCD.c:200: map[0][9].schar = 4;
   0F23 90 00 E9           1939 	mov	dptr,#(_map + 0x0009)
   0F26 74 04              1940 	mov	a,#0x04
   0F28 F0                 1941 	movx	@dptr,a
                           1942 ;	LCD.c:201: map[0][10].schar = 2;
   0F29 90 00 EA           1943 	mov	dptr,#(_map + 0x000a)
   0F2C 74 02              1944 	mov	a,#0x02
   0F2E F0                 1945 	movx	@dptr,a
                           1946 ;	LCD.c:202: map[0][11].schar = 3;
   0F2F 90 00 EB           1947 	mov	dptr,#(_map + 0x000b)
   0F32 74 03              1948 	mov	a,#0x03
   0F34 F0                 1949 	movx	@dptr,a
                           1950 ;	LCD.c:203: map[0][12].schar = 4;
   0F35 90 00 EC           1951 	mov	dptr,#(_map + 0x000c)
   0F38 74 04              1952 	mov	a,#0x04
   0F3A F0                 1953 	movx	@dptr,a
                           1954 ;	LCD.c:204: map[0][13].schar = 3;
   0F3B 90 00 ED           1955 	mov	dptr,#(_map + 0x000d)
   0F3E 74 03              1956 	mov	a,#0x03
   0F40 F0                 1957 	movx	@dptr,a
                           1958 ;	LCD.c:205: map[0][14].schar = 3;
   0F41 90 00 EE           1959 	mov	dptr,#(_map + 0x000e)
   0F44 74 03              1960 	mov	a,#0x03
   0F46 F0                 1961 	movx	@dptr,a
                           1962 ;	LCD.c:206: map[0][15].schar = 4;
   0F47 90 00 EF           1963 	mov	dptr,#(_map + 0x000f)
   0F4A 74 04              1964 	mov	a,#0x04
   0F4C F0                 1965 	movx	@dptr,a
                           1966 ;	LCD.c:208: map[1][0].schar = 5;
   0F4D 90 00 F0           1967 	mov	dptr,#(_map + 0x0010)
   0F50 74 05              1968 	mov	a,#0x05
   0F52 F0                 1969 	movx	@dptr,a
                           1970 ;	LCD.c:209: map[1][1].schar = 6;
   0F53 90 00 F1           1971 	mov	dptr,#(_map + 0x0011)
   0F56 74 06              1972 	mov	a,#0x06
   0F58 F0                 1973 	movx	@dptr,a
                           1974 ;	LCD.c:210: map[1][2].schar = 8;
   0F59 90 00 F2           1975 	mov	dptr,#(_map + 0x0012)
   0F5C 74 08              1976 	mov	a,#0x08
   0F5E F0                 1977 	movx	@dptr,a
                           1978 ;	LCD.c:211: map[1][3].schar = 2;
   0F5F 90 00 F3           1979 	mov	dptr,#(_map + 0x0013)
   0F62 74 02              1980 	mov	a,#0x02
   0F64 F0                 1981 	movx	@dptr,a
                           1982 ;	LCD.c:212: map[1][4].schar = 5;
   0F65 90 00 F4           1983 	mov	dptr,#(_map + 0x0014)
   0F68 74 05              1984 	mov	a,#0x05
   0F6A F0                 1985 	movx	@dptr,a
                           1986 ;	LCD.c:213: map[1][5].schar = 5;
   0F6B 90 00 F5           1987 	mov	dptr,#(_map + 0x0015)
   0F6E 74 05              1988 	mov	a,#0x05
   0F70 F0                 1989 	movx	@dptr,a
                           1990 ;	LCD.c:214: map[1][6].schar = 6;
   0F71 90 00 F6           1991 	mov	dptr,#(_map + 0x0016)
   0F74 74 06              1992 	mov	a,#0x06
   0F76 F0                 1993 	movx	@dptr,a
                           1994 ;	LCD.c:215: map[1][7].schar = 8;
   0F77 90 00 F7           1995 	mov	dptr,#(_map + 0x0017)
   0F7A 74 08              1996 	mov	a,#0x08
   0F7C F0                 1997 	movx	@dptr,a
                           1998 ;	LCD.c:216: map[1][8].schar = 8;
   0F7D 90 00 F8           1999 	mov	dptr,#(_map + 0x0018)
   0F80 74 08              2000 	mov	a,#0x08
   0F82 F0                 2001 	movx	@dptr,a
                           2002 ;	LCD.c:217: map[1][9].schar = 2;
   0F83 90 00 F9           2003 	mov	dptr,#(_map + 0x0019)
   0F86 74 02              2004 	mov	a,#0x02
   0F88 F0                 2005 	movx	@dptr,a
                           2006 ;	LCD.c:218: map[1][10].schar = 6;
   0F89 90 00 FA           2007 	mov	dptr,#(_map + 0x001a)
   0F8C 74 06              2008 	mov	a,#0x06
   0F8E F0                 2009 	movx	@dptr,a
                           2010 ;	LCD.c:219: map[1][11].schar = 5;
   0F8F 90 00 FB           2011 	mov	dptr,#(_map + 0x001b)
   0F92 74 05              2012 	mov	a,#0x05
   0F94 F0                 2013 	movx	@dptr,a
                           2014 ;	LCD.c:220: map[1][12].schar = 3;
   0F95 90 00 FC           2015 	mov	dptr,#(_map + 0x001c)
   0F98 74 03              2016 	mov	a,#0x03
   0F9A F0                 2017 	movx	@dptr,a
                           2018 ;	LCD.c:221: map[1][13].schar = 6;
   0F9B 90 00 FD           2019 	mov	dptr,#(_map + 0x001d)
   0F9E 74 06              2020 	mov	a,#0x06
   0FA0 F0                 2021 	movx	@dptr,a
                           2022 ;	LCD.c:222: map[1][14].schar = 4;
   0FA1 90 00 FE           2023 	mov	dptr,#(_map + 0x001e)
   0FA4 74 04              2024 	mov	a,#0x04
   0FA6 F0                 2025 	movx	@dptr,a
                           2026 ;	LCD.c:223: map[1][15].schar = 5;
   0FA7 90 00 FF           2027 	mov	dptr,#(_map + 0x001f)
   0FAA 74 05              2028 	mov	a,#0x05
   0FAC F0                 2029 	movx	@dptr,a
                           2030 ;	LCD.c:225: map[2][0].schar = 5;
   0FAD 90 01 00           2031 	mov	dptr,#(_map + 0x0020)
   0FB0 74 05              2032 	mov	a,#0x05
   0FB2 F0                 2033 	movx	@dptr,a
                           2034 ;	LCD.c:226: map[2][1].schar = 3;
   0FB3 90 01 01           2035 	mov	dptr,#(_map + 0x0021)
   0FB6 74 03              2036 	mov	a,#0x03
   0FB8 F0                 2037 	movx	@dptr,a
                           2038 ;	LCD.c:227: map[2][2].schar = 4;
   0FB9 90 01 02           2039 	mov	dptr,#(_map + 0x0022)
   0FBC 74 04              2040 	mov	a,#0x04
   0FBE F0                 2041 	movx	@dptr,a
                           2042 ;	LCD.c:228: map[2][3].schar = 8;
   0FBF 90 01 03           2043 	mov	dptr,#(_map + 0x0023)
   0FC2 74 08              2044 	mov	a,#0x08
   0FC4 F0                 2045 	movx	@dptr,a
                           2046 ;	LCD.c:229: map[2][4].schar = 4;
   0FC5 90 01 04           2047 	mov	dptr,#(_map + 0x0024)
   0FC8 74 04              2048 	mov	a,#0x04
   0FCA F0                 2049 	movx	@dptr,a
                           2050 ;	LCD.c:230: map[2][5].schar = 3;
   0FCB 90 01 05           2051 	mov	dptr,#(_map + 0x0025)
   0FCE 74 03              2052 	mov	a,#0x03
   0FD0 F0                 2053 	movx	@dptr,a
                           2054 ;	LCD.c:231: map[2][6].schar = 2;
   0FD1 90 01 06           2055 	mov	dptr,#(_map + 0x0026)
   0FD4 74 02              2056 	mov	a,#0x02
   0FD6 F0                 2057 	movx	@dptr,a
                           2058 ;	LCD.c:232: map[2][7].schar = 3;
   0FD7 90 01 07           2059 	mov	dptr,#(_map + 0x0027)
   0FDA 74 03              2060 	mov	a,#0x03
   0FDC F0                 2061 	movx	@dptr,a
                           2062 ;	LCD.c:233: map[2][8].schar = 6;
   0FDD 90 01 08           2063 	mov	dptr,#(_map + 0x0028)
   0FE0 74 06              2064 	mov	a,#0x06
   0FE2 F0                 2065 	movx	@dptr,a
                           2066 ;	LCD.c:234: map[2][9].schar = 5;
   0FE3 90 01 09           2067 	mov	dptr,#(_map + 0x0029)
   0FE6 74 05              2068 	mov	a,#0x05
   0FE8 F0                 2069 	movx	@dptr,a
                           2070 ;	LCD.c:235: map[2][10].schar = 6;
   0FE9 90 01 0A           2071 	mov	dptr,#(_map + 0x002a)
   0FEC 74 06              2072 	mov	a,#0x06
   0FEE F0                 2073 	movx	@dptr,a
                           2074 ;	LCD.c:236: map[2][11].schar = 3;
   0FEF 90 01 0B           2075 	mov	dptr,#(_map + 0x002b)
   0FF2 74 03              2076 	mov	a,#0x03
   0FF4 F0                 2077 	movx	@dptr,a
                           2078 ;	LCD.c:237: map[2][12].schar = 4;
   0FF5 90 01 0C           2079 	mov	dptr,#(_map + 0x002c)
   0FF8 74 04              2080 	mov	a,#0x04
   0FFA F0                 2081 	movx	@dptr,a
                           2082 ;	LCD.c:238: map[2][13].schar = 2;
   0FFB 90 01 0D           2083 	mov	dptr,#(_map + 0x002d)
   0FFE 74 02              2084 	mov	a,#0x02
   1000 F0                 2085 	movx	@dptr,a
                           2086 ;	LCD.c:239: map[2][14].schar = 6;
   1001 90 01 0E           2087 	mov	dptr,#(_map + 0x002e)
   1004 74 06              2088 	mov	a,#0x06
   1006 F0                 2089 	movx	@dptr,a
                           2090 ;	LCD.c:240: map[2][15].schar = 8;
   1007 90 01 0F           2091 	mov	dptr,#(_map + 0x002f)
   100A 74 08              2092 	mov	a,#0x08
   100C F0                 2093 	movx	@dptr,a
                           2094 ;	LCD.c:242: map[3][0].schar = 7;
   100D 90 01 10           2095 	mov	dptr,#(_map + 0x0030)
   1010 74 07              2096 	mov	a,#0x07
   1012 F0                 2097 	movx	@dptr,a
                           2098 ;	LCD.c:243: map[3][1].schar = 2;
   1013 90 01 11           2099 	mov	dptr,#(_map + 0x0031)
   1016 74 02              2100 	mov	a,#0x02
   1018 F0                 2101 	movx	@dptr,a
                           2102 ;	LCD.c:244: map[3][2].schar = 8;
   1019 90 01 12           2103 	mov	dptr,#(_map + 0x0032)
   101C 74 08              2104 	mov	a,#0x08
   101E F0                 2105 	movx	@dptr,a
                           2106 ;	LCD.c:245: map[3][3].schar = 8;
   101F 90 01 13           2107 	mov	dptr,#(_map + 0x0033)
   1022 74 08              2108 	mov	a,#0x08
   1024 F0                 2109 	movx	@dptr,a
                           2110 ;	LCD.c:246: map[3][4].schar = 4;
   1025 90 01 14           2111 	mov	dptr,#(_map + 0x0034)
   1028 74 04              2112 	mov	a,#0x04
   102A F0                 2113 	movx	@dptr,a
                           2114 ;	LCD.c:247: map[3][5].schar = 6;
   102B 90 01 15           2115 	mov	dptr,#(_map + 0x0035)
   102E 74 06              2116 	mov	a,#0x06
   1030 F0                 2117 	movx	@dptr,a
                           2118 ;	LCD.c:248: map[3][6].schar = 7;
   1031 90 01 16           2119 	mov	dptr,#(_map + 0x0036)
   1034 74 07              2120 	mov	a,#0x07
   1036 F0                 2121 	movx	@dptr,a
                           2122 ;	LCD.c:249: map[3][7].schar = 7;
   1037 90 01 17           2123 	mov	dptr,#(_map + 0x0037)
   103A 74 07              2124 	mov	a,#0x07
   103C F0                 2125 	movx	@dptr,a
                           2126 ;	LCD.c:250: map[3][8].schar = 8;
   103D 90 01 18           2127 	mov	dptr,#(_map + 0x0038)
   1040 74 08              2128 	mov	a,#0x08
   1042 F0                 2129 	movx	@dptr,a
                           2130 ;	LCD.c:251: map[3][9].schar = 7;
   1043 90 01 19           2131 	mov	dptr,#(_map + 0x0039)
   1046 74 07              2132 	mov	a,#0x07
   1048 F0                 2133 	movx	@dptr,a
                           2134 ;	LCD.c:252: map[3][10].schar = 4;
   1049 90 01 1A           2135 	mov	dptr,#(_map + 0x003a)
   104C 74 04              2136 	mov	a,#0x04
   104E F0                 2137 	movx	@dptr,a
                           2138 ;	LCD.c:253: map[3][11].schar = 7;
   104F 90 01 1B           2139 	mov	dptr,#(_map + 0x003b)
   1052 74 07              2140 	mov	a,#0x07
   1054 F0                 2141 	movx	@dptr,a
                           2142 ;	LCD.c:254: map[3][12].schar = 8;
   1055 90 01 1C           2143 	mov	dptr,#(_map + 0x003c)
   1058 74 08              2144 	mov	a,#0x08
   105A F0                 2145 	movx	@dptr,a
                           2146 ;	LCD.c:255: map[3][13].schar = 8;
   105B 90 01 1D           2147 	mov	dptr,#(_map + 0x003d)
   105E 74 08              2148 	mov	a,#0x08
   1060 F0                 2149 	movx	@dptr,a
                           2150 ;	LCD.c:256: map[3][14].schar = 7;
   1061 90 01 1E           2151 	mov	dptr,#(_map + 0x003e)
   1064 74 07              2152 	mov	a,#0x07
   1066 F0                 2153 	movx	@dptr,a
                           2154 ;	LCD.c:257: map[3][15].schar = 4;
   1067 90 01 1F           2155 	mov	dptr,#(_map + 0x003f)
   106A 74 04              2156 	mov	a,#0x04
   106C F0                 2157 	movx	@dptr,a
                           2158 ;	LCD.c:259: printMap();
   106D 02 07 D5           2159 	ljmp	_printMap
                           2160 ;------------------------------------------------------------
                           2161 ;Allocation info for local variables in function 'setMap3CGram'
                           2162 ;------------------------------------------------------------
                           2163 ;n                         Allocated with name '_setMap3CGram_n_1_1'
                           2164 ;m                         Allocated with name '_setMap3CGram_m_1_1'
                           2165 ;c0                        Allocated with name '_setMap3CGram_c0_1_1'
                           2166 ;c1                        Allocated with name '_setMap3CGram_c1_1_1'
                           2167 ;c2                        Allocated with name '_setMap3CGram_c2_1_1'
                           2168 ;c3                        Allocated with name '_setMap3CGram_c3_1_1'
                           2169 ;c4                        Allocated with name '_setMap3CGram_c4_1_1'
                           2170 ;c5                        Allocated with name '_setMap3CGram_c5_1_1'
                           2171 ;c6                        Allocated with name '_setMap3CGram_c6_1_1'
                           2172 ;c7                        Allocated with name '_setMap3CGram_c7_1_1'
                           2173 ;------------------------------------------------------------
                           2174 ;	LCD.c:263: void setMap3CGram(){
                           2175 ;	-----------------------------------------
                           2176 ;	 function setMap3CGram
                           2177 ;	-----------------------------------------
   1070                    2178 _setMap3CGram:
                           2179 ;	LCD.c:266: unsigned char c0[] =  {0,0,0,0,0,0,0,0};
   1070 90 01 AD           2180 	mov	dptr,#_setMap3CGram_c0_1_1
   1073 E4                 2181 	clr	a
   1074 F0                 2182 	movx	@dptr,a
   1075 90 01 AE           2183 	mov	dptr,#(_setMap3CGram_c0_1_1 + 0x0001)
   1078 F0                 2184 	movx	@dptr,a
   1079 90 01 AF           2185 	mov	dptr,#(_setMap3CGram_c0_1_1 + 0x0002)
   107C F0                 2186 	movx	@dptr,a
   107D 90 01 B0           2187 	mov	dptr,#(_setMap3CGram_c0_1_1 + 0x0003)
   1080 F0                 2188 	movx	@dptr,a
   1081 90 01 B1           2189 	mov	dptr,#(_setMap3CGram_c0_1_1 + 0x0004)
   1084 E4                 2190 	clr	a
   1085 F0                 2191 	movx	@dptr,a
   1086 90 01 B2           2192 	mov	dptr,#(_setMap3CGram_c0_1_1 + 0x0005)
   1089 F0                 2193 	movx	@dptr,a
   108A 90 01 B3           2194 	mov	dptr,#(_setMap3CGram_c0_1_1 + 0x0006)
   108D F0                 2195 	movx	@dptr,a
   108E 90 01 B4           2196 	mov	dptr,#(_setMap3CGram_c0_1_1 + 0x0007)
   1091 F0                 2197 	movx	@dptr,a
                           2198 ;	LCD.c:267: unsigned char c1[] =  {0x1B,0x1B,0x18,0x19,0x1A,0x11,0x1A,0x19};
   1092 90 01 B5           2199 	mov	dptr,#_setMap3CGram_c1_1_1
   1095 74 1B              2200 	mov	a,#0x1B
   1097 F0                 2201 	movx	@dptr,a
   1098 90 01 B6           2202 	mov	dptr,#(_setMap3CGram_c1_1_1 + 0x0001)
   109B 74 1B              2203 	mov	a,#0x1B
   109D F0                 2204 	movx	@dptr,a
   109E 90 01 B7           2205 	mov	dptr,#(_setMap3CGram_c1_1_1 + 0x0002)
   10A1 74 18              2206 	mov	a,#0x18
   10A3 F0                 2207 	movx	@dptr,a
   10A4 90 01 B8           2208 	mov	dptr,#(_setMap3CGram_c1_1_1 + 0x0003)
   10A7 74 19              2209 	mov	a,#0x19
   10A9 F0                 2210 	movx	@dptr,a
   10AA 90 01 B9           2211 	mov	dptr,#(_setMap3CGram_c1_1_1 + 0x0004)
   10AD 74 1A              2212 	mov	a,#0x1A
   10AF F0                 2213 	movx	@dptr,a
   10B0 90 01 BA           2214 	mov	dptr,#(_setMap3CGram_c1_1_1 + 0x0005)
   10B3 74 11              2215 	mov	a,#0x11
   10B5 F0                 2216 	movx	@dptr,a
   10B6 90 01 BB           2217 	mov	dptr,#(_setMap3CGram_c1_1_1 + 0x0006)
   10B9 74 1A              2218 	mov	a,#0x1A
   10BB F0                 2219 	movx	@dptr,a
   10BC 90 01 BC           2220 	mov	dptr,#(_setMap3CGram_c1_1_1 + 0x0007)
   10BF 74 19              2221 	mov	a,#0x19
   10C1 F0                 2222 	movx	@dptr,a
                           2223 ;	LCD.c:268: unsigned char c2[] =  {0x1F,0x08,0x0A,0x0A,0x0A,0x0A,0x02,0x1F};
   10C2 90 01 BD           2224 	mov	dptr,#_setMap3CGram_c2_1_1
   10C5 74 1F              2225 	mov	a,#0x1F
   10C7 F0                 2226 	movx	@dptr,a
   10C8 90 01 BE           2227 	mov	dptr,#(_setMap3CGram_c2_1_1 + 0x0001)
   10CB 74 08              2228 	mov	a,#0x08
   10CD F0                 2229 	movx	@dptr,a
   10CE 90 01 BF           2230 	mov	dptr,#(_setMap3CGram_c2_1_1 + 0x0002)
   10D1 74 0A              2231 	mov	a,#0x0A
   10D3 F0                 2232 	movx	@dptr,a
   10D4 90 01 C0           2233 	mov	dptr,#(_setMap3CGram_c2_1_1 + 0x0003)
   10D7 74 0A              2234 	mov	a,#0x0A
   10D9 F0                 2235 	movx	@dptr,a
   10DA 90 01 C1           2236 	mov	dptr,#(_setMap3CGram_c2_1_1 + 0x0004)
   10DD 74 0A              2237 	mov	a,#0x0A
   10DF F0                 2238 	movx	@dptr,a
   10E0 90 01 C2           2239 	mov	dptr,#(_setMap3CGram_c2_1_1 + 0x0005)
   10E3 74 0A              2240 	mov	a,#0x0A
   10E5 F0                 2241 	movx	@dptr,a
   10E6 90 01 C3           2242 	mov	dptr,#(_setMap3CGram_c2_1_1 + 0x0006)
   10E9 74 02              2243 	mov	a,#0x02
   10EB F0                 2244 	movx	@dptr,a
   10EC 90 01 C4           2245 	mov	dptr,#(_setMap3CGram_c2_1_1 + 0x0007)
   10EF 74 1F              2246 	mov	a,#0x1F
   10F1 F0                 2247 	movx	@dptr,a
                           2248 ;	LCD.c:269: unsigned char c3[] =  {0x1B,0x11,0x15,0x05,0x14,0x15,0x11,0x1B};
   10F2 90 01 C5           2249 	mov	dptr,#_setMap3CGram_c3_1_1
   10F5 74 1B              2250 	mov	a,#0x1B
   10F7 F0                 2251 	movx	@dptr,a
   10F8 90 01 C6           2252 	mov	dptr,#(_setMap3CGram_c3_1_1 + 0x0001)
   10FB 74 11              2253 	mov	a,#0x11
   10FD F0                 2254 	movx	@dptr,a
   10FE 90 01 C7           2255 	mov	dptr,#(_setMap3CGram_c3_1_1 + 0x0002)
   1101 74 15              2256 	mov	a,#0x15
   1103 F0                 2257 	movx	@dptr,a
   1104 90 01 C8           2258 	mov	dptr,#(_setMap3CGram_c3_1_1 + 0x0003)
   1107 74 05              2259 	mov	a,#0x05
   1109 F0                 2260 	movx	@dptr,a
   110A 90 01 C9           2261 	mov	dptr,#(_setMap3CGram_c3_1_1 + 0x0004)
   110D 74 14              2262 	mov	a,#0x14
   110F F0                 2263 	movx	@dptr,a
   1110 90 01 CA           2264 	mov	dptr,#(_setMap3CGram_c3_1_1 + 0x0005)
   1113 74 15              2265 	mov	a,#0x15
   1115 F0                 2266 	movx	@dptr,a
   1116 90 01 CB           2267 	mov	dptr,#(_setMap3CGram_c3_1_1 + 0x0006)
   1119 74 11              2268 	mov	a,#0x11
   111B F0                 2269 	movx	@dptr,a
   111C 90 01 CC           2270 	mov	dptr,#(_setMap3CGram_c3_1_1 + 0x0007)
   111F 74 1B              2271 	mov	a,#0x1B
   1121 F0                 2272 	movx	@dptr,a
                           2273 ;	LCD.c:270: unsigned char c4[] =  {0x19,0x13,0x17,0x10,0x03,0x1B,0x19,0x13};
   1122 90 01 CD           2274 	mov	dptr,#_setMap3CGram_c4_1_1
   1125 74 19              2275 	mov	a,#0x19
   1127 F0                 2276 	movx	@dptr,a
   1128 90 01 CE           2277 	mov	dptr,#(_setMap3CGram_c4_1_1 + 0x0001)
   112B 74 13              2278 	mov	a,#0x13
   112D F0                 2279 	movx	@dptr,a
   112E 90 01 CF           2280 	mov	dptr,#(_setMap3CGram_c4_1_1 + 0x0002)
   1131 74 17              2281 	mov	a,#0x17
   1133 F0                 2282 	movx	@dptr,a
   1134 90 01 D0           2283 	mov	dptr,#(_setMap3CGram_c4_1_1 + 0x0003)
   1137 74 10              2284 	mov	a,#0x10
   1139 F0                 2285 	movx	@dptr,a
   113A 90 01 D1           2286 	mov	dptr,#(_setMap3CGram_c4_1_1 + 0x0004)
   113D 74 03              2287 	mov	a,#0x03
   113F F0                 2288 	movx	@dptr,a
   1140 90 01 D2           2289 	mov	dptr,#(_setMap3CGram_c4_1_1 + 0x0005)
   1143 74 1B              2290 	mov	a,#0x1B
   1145 F0                 2291 	movx	@dptr,a
   1146 90 01 D3           2292 	mov	dptr,#(_setMap3CGram_c4_1_1 + 0x0006)
   1149 74 19              2293 	mov	a,#0x19
   114B F0                 2294 	movx	@dptr,a
   114C 90 01 D4           2295 	mov	dptr,#(_setMap3CGram_c4_1_1 + 0x0007)
   114F 74 13              2296 	mov	a,#0x13
   1151 F0                 2297 	movx	@dptr,a
                           2298 ;	LCD.c:271: unsigned char c5[] =  {0x12,0x1B,0x1A,0x09,0x00,0x11,0x11,0x1B};
   1152 90 01 D5           2299 	mov	dptr,#_setMap3CGram_c5_1_1
   1155 74 12              2300 	mov	a,#0x12
   1157 F0                 2301 	movx	@dptr,a
   1158 90 01 D6           2302 	mov	dptr,#(_setMap3CGram_c5_1_1 + 0x0001)
   115B 74 1B              2303 	mov	a,#0x1B
   115D F0                 2304 	movx	@dptr,a
   115E 90 01 D7           2305 	mov	dptr,#(_setMap3CGram_c5_1_1 + 0x0002)
   1161 74 1A              2306 	mov	a,#0x1A
   1163 F0                 2307 	movx	@dptr,a
   1164 90 01 D8           2308 	mov	dptr,#(_setMap3CGram_c5_1_1 + 0x0003)
   1167 74 09              2309 	mov	a,#0x09
   1169 F0                 2310 	movx	@dptr,a
   116A 90 01 D9           2311 	mov	dptr,#(_setMap3CGram_c5_1_1 + 0x0004)
   116D E4                 2312 	clr	a
   116E F0                 2313 	movx	@dptr,a
   116F 90 01 DA           2314 	mov	dptr,#(_setMap3CGram_c5_1_1 + 0x0005)
   1172 74 11              2315 	mov	a,#0x11
   1174 F0                 2316 	movx	@dptr,a
   1175 90 01 DB           2317 	mov	dptr,#(_setMap3CGram_c5_1_1 + 0x0006)
   1178 74 11              2318 	mov	a,#0x11
   117A F0                 2319 	movx	@dptr,a
   117B 90 01 DC           2320 	mov	dptr,#(_setMap3CGram_c5_1_1 + 0x0007)
   117E 74 1B              2321 	mov	a,#0x1B
   1180 F0                 2322 	movx	@dptr,a
                           2323 ;	LCD.c:272: unsigned char c6[] =  {0x12,0x17,0x10,0x12,0x15,0x14,0x13,0x1F};
   1181 90 01 DD           2324 	mov	dptr,#_setMap3CGram_c6_1_1
   1184 74 12              2325 	mov	a,#0x12
   1186 F0                 2326 	movx	@dptr,a
   1187 90 01 DE           2327 	mov	dptr,#(_setMap3CGram_c6_1_1 + 0x0001)
   118A 74 17              2328 	mov	a,#0x17
   118C F0                 2329 	movx	@dptr,a
   118D 90 01 DF           2330 	mov	dptr,#(_setMap3CGram_c6_1_1 + 0x0002)
   1190 74 10              2331 	mov	a,#0x10
   1192 F0                 2332 	movx	@dptr,a
   1193 90 01 E0           2333 	mov	dptr,#(_setMap3CGram_c6_1_1 + 0x0003)
   1196 74 12              2334 	mov	a,#0x12
   1198 F0                 2335 	movx	@dptr,a
   1199 90 01 E1           2336 	mov	dptr,#(_setMap3CGram_c6_1_1 + 0x0004)
   119C 74 15              2337 	mov	a,#0x15
   119E F0                 2338 	movx	@dptr,a
   119F 90 01 E2           2339 	mov	dptr,#(_setMap3CGram_c6_1_1 + 0x0005)
   11A2 74 14              2340 	mov	a,#0x14
   11A4 F0                 2341 	movx	@dptr,a
   11A5 90 01 E3           2342 	mov	dptr,#(_setMap3CGram_c6_1_1 + 0x0006)
   11A8 74 13              2343 	mov	a,#0x13
   11AA F0                 2344 	movx	@dptr,a
   11AB 90 01 E4           2345 	mov	dptr,#(_setMap3CGram_c6_1_1 + 0x0007)
   11AE 74 1F              2346 	mov	a,#0x1F
   11B0 F0                 2347 	movx	@dptr,a
                           2348 ;	LCD.c:273: unsigned char c7[] =  {0x1B,0x11,0x15,0x00,0x15,0x00,0x15,0x1B};
   11B1 90 01 E5           2349 	mov	dptr,#_setMap3CGram_c7_1_1
   11B4 74 1B              2350 	mov	a,#0x1B
   11B6 F0                 2351 	movx	@dptr,a
   11B7 90 01 E6           2352 	mov	dptr,#(_setMap3CGram_c7_1_1 + 0x0001)
   11BA 74 11              2353 	mov	a,#0x11
   11BC F0                 2354 	movx	@dptr,a
   11BD 90 01 E7           2355 	mov	dptr,#(_setMap3CGram_c7_1_1 + 0x0002)
   11C0 74 15              2356 	mov	a,#0x15
   11C2 F0                 2357 	movx	@dptr,a
   11C3 90 01 E8           2358 	mov	dptr,#(_setMap3CGram_c7_1_1 + 0x0003)
   11C6 E4                 2359 	clr	a
   11C7 F0                 2360 	movx	@dptr,a
   11C8 90 01 E9           2361 	mov	dptr,#(_setMap3CGram_c7_1_1 + 0x0004)
   11CB 74 15              2362 	mov	a,#0x15
   11CD F0                 2363 	movx	@dptr,a
   11CE 90 01 EA           2364 	mov	dptr,#(_setMap3CGram_c7_1_1 + 0x0005)
   11D1 E4                 2365 	clr	a
   11D2 F0                 2366 	movx	@dptr,a
   11D3 90 01 EB           2367 	mov	dptr,#(_setMap3CGram_c7_1_1 + 0x0006)
   11D6 74 15              2368 	mov	a,#0x15
   11D8 F0                 2369 	movx	@dptr,a
   11D9 90 01 EC           2370 	mov	dptr,#(_setMap3CGram_c7_1_1 + 0x0007)
   11DC 74 1B              2371 	mov	a,#0x1B
   11DE F0                 2372 	movx	@dptr,a
                           2373 ;	LCD.c:276: for(n = 0; n < 8 ;n++){
   11DF 7A 00              2374 	mov	r2,#0x00
   11E1                    2375 00101$:
   11E1 BA 08 00           2376 	cjne	r2,#0x08,00124$
   11E4                    2377 00124$:
   11E4 40 03              2378 	jc	00125$
   11E6 02 12 AE           2379 	ljmp	00104$
   11E9                    2380 00125$:
                           2381 ;	LCD.c:277: SCmap[0].adds[n] = c0[n];
   11E9 EA                 2382 	mov	a,r2
   11EA 24 A0              2383 	add	a,#_SCmap
   11EC FB                 2384 	mov	r3,a
   11ED E4                 2385 	clr	a
   11EE 34 00              2386 	addc	a,#(_SCmap >> 8)
   11F0 FC                 2387 	mov	r4,a
   11F1 EA                 2388 	mov	a,r2
   11F2 24 AD              2389 	add	a,#_setMap3CGram_c0_1_1
   11F4 F5 82              2390 	mov	dpl,a
   11F6 E4                 2391 	clr	a
   11F7 34 01              2392 	addc	a,#(_setMap3CGram_c0_1_1 >> 8)
   11F9 F5 83              2393 	mov	dph,a
   11FB E0                 2394 	movx	a,@dptr
   11FC 8B 82              2395 	mov	dpl,r3
   11FE 8C 83              2396 	mov	dph,r4
   1200 F0                 2397 	movx	@dptr,a
                           2398 ;	LCD.c:278: SCmap[1].adds[n] = c1[n];
   1201 EA                 2399 	mov	a,r2
   1202 24 A8              2400 	add	a,#(_SCmap + 0x0008)
   1204 FB                 2401 	mov	r3,a
   1205 E4                 2402 	clr	a
   1206 34 00              2403 	addc	a,#((_SCmap + 0x0008) >> 8)
   1208 FC                 2404 	mov	r4,a
   1209 EA                 2405 	mov	a,r2
   120A 24 B5              2406 	add	a,#_setMap3CGram_c1_1_1
   120C F5 82              2407 	mov	dpl,a
   120E E4                 2408 	clr	a
   120F 34 01              2409 	addc	a,#(_setMap3CGram_c1_1_1 >> 8)
   1211 F5 83              2410 	mov	dph,a
   1213 E0                 2411 	movx	a,@dptr
   1214 8B 82              2412 	mov	dpl,r3
   1216 8C 83              2413 	mov	dph,r4
   1218 F0                 2414 	movx	@dptr,a
                           2415 ;	LCD.c:279: SCmap[2].adds[n] = c2[n];
   1219 EA                 2416 	mov	a,r2
   121A 24 B0              2417 	add	a,#(_SCmap + 0x0010)
   121C FB                 2418 	mov	r3,a
   121D E4                 2419 	clr	a
   121E 34 00              2420 	addc	a,#((_SCmap + 0x0010) >> 8)
   1220 FC                 2421 	mov	r4,a
   1221 EA                 2422 	mov	a,r2
   1222 24 BD              2423 	add	a,#_setMap3CGram_c2_1_1
   1224 F5 82              2424 	mov	dpl,a
   1226 E4                 2425 	clr	a
   1227 34 01              2426 	addc	a,#(_setMap3CGram_c2_1_1 >> 8)
   1229 F5 83              2427 	mov	dph,a
   122B E0                 2428 	movx	a,@dptr
   122C 8B 82              2429 	mov	dpl,r3
   122E 8C 83              2430 	mov	dph,r4
   1230 F0                 2431 	movx	@dptr,a
                           2432 ;	LCD.c:280: SCmap[3].adds[n] = c3[n];
   1231 EA                 2433 	mov	a,r2
   1232 24 B8              2434 	add	a,#(_SCmap + 0x0018)
   1234 FB                 2435 	mov	r3,a
   1235 E4                 2436 	clr	a
   1236 34 00              2437 	addc	a,#((_SCmap + 0x0018) >> 8)
   1238 FC                 2438 	mov	r4,a
   1239 EA                 2439 	mov	a,r2
   123A 24 C5              2440 	add	a,#_setMap3CGram_c3_1_1
   123C F5 82              2441 	mov	dpl,a
   123E E4                 2442 	clr	a
   123F 34 01              2443 	addc	a,#(_setMap3CGram_c3_1_1 >> 8)
   1241 F5 83              2444 	mov	dph,a
   1243 E0                 2445 	movx	a,@dptr
   1244 8B 82              2446 	mov	dpl,r3
   1246 8C 83              2447 	mov	dph,r4
   1248 F0                 2448 	movx	@dptr,a
                           2449 ;	LCD.c:281: SCmap[4].adds[n] = c4[n];
   1249 EA                 2450 	mov	a,r2
   124A 24 C0              2451 	add	a,#(_SCmap + 0x0020)
   124C FB                 2452 	mov	r3,a
   124D E4                 2453 	clr	a
   124E 34 00              2454 	addc	a,#((_SCmap + 0x0020) >> 8)
   1250 FC                 2455 	mov	r4,a
   1251 EA                 2456 	mov	a,r2
   1252 24 CD              2457 	add	a,#_setMap3CGram_c4_1_1
   1254 F5 82              2458 	mov	dpl,a
   1256 E4                 2459 	clr	a
   1257 34 01              2460 	addc	a,#(_setMap3CGram_c4_1_1 >> 8)
   1259 F5 83              2461 	mov	dph,a
   125B E0                 2462 	movx	a,@dptr
   125C 8B 82              2463 	mov	dpl,r3
   125E 8C 83              2464 	mov	dph,r4
   1260 F0                 2465 	movx	@dptr,a
                           2466 ;	LCD.c:282: SCmap[5].adds[n] = c5[n];
   1261 EA                 2467 	mov	a,r2
   1262 24 C8              2468 	add	a,#(_SCmap + 0x0028)
   1264 FB                 2469 	mov	r3,a
   1265 E4                 2470 	clr	a
   1266 34 00              2471 	addc	a,#((_SCmap + 0x0028) >> 8)
   1268 FC                 2472 	mov	r4,a
   1269 EA                 2473 	mov	a,r2
   126A 24 D5              2474 	add	a,#_setMap3CGram_c5_1_1
   126C F5 82              2475 	mov	dpl,a
   126E E4                 2476 	clr	a
   126F 34 01              2477 	addc	a,#(_setMap3CGram_c5_1_1 >> 8)
   1271 F5 83              2478 	mov	dph,a
   1273 E0                 2479 	movx	a,@dptr
   1274 8B 82              2480 	mov	dpl,r3
   1276 8C 83              2481 	mov	dph,r4
   1278 F0                 2482 	movx	@dptr,a
                           2483 ;	LCD.c:283: SCmap[6].adds[n] = c6[n];
   1279 EA                 2484 	mov	a,r2
   127A 24 D0              2485 	add	a,#(_SCmap + 0x0030)
   127C FB                 2486 	mov	r3,a
   127D E4                 2487 	clr	a
   127E 34 00              2488 	addc	a,#((_SCmap + 0x0030) >> 8)
   1280 FC                 2489 	mov	r4,a
   1281 EA                 2490 	mov	a,r2
   1282 24 DD              2491 	add	a,#_setMap3CGram_c6_1_1
   1284 F5 82              2492 	mov	dpl,a
   1286 E4                 2493 	clr	a
   1287 34 01              2494 	addc	a,#(_setMap3CGram_c6_1_1 >> 8)
   1289 F5 83              2495 	mov	dph,a
   128B E0                 2496 	movx	a,@dptr
   128C 8B 82              2497 	mov	dpl,r3
   128E 8C 83              2498 	mov	dph,r4
   1290 F0                 2499 	movx	@dptr,a
                           2500 ;	LCD.c:284: SCmap[7].adds[n] = c7[n];
   1291 EA                 2501 	mov	a,r2
   1292 24 D8              2502 	add	a,#(_SCmap + 0x0038)
   1294 FB                 2503 	mov	r3,a
   1295 E4                 2504 	clr	a
   1296 34 00              2505 	addc	a,#((_SCmap + 0x0038) >> 8)
   1298 FC                 2506 	mov	r4,a
   1299 EA                 2507 	mov	a,r2
   129A 24 E5              2508 	add	a,#_setMap3CGram_c7_1_1
   129C F5 82              2509 	mov	dpl,a
   129E E4                 2510 	clr	a
   129F 34 01              2511 	addc	a,#(_setMap3CGram_c7_1_1 >> 8)
   12A1 F5 83              2512 	mov	dph,a
   12A3 E0                 2513 	movx	a,@dptr
   12A4 FD                 2514 	mov	r5,a
   12A5 8B 82              2515 	mov	dpl,r3
   12A7 8C 83              2516 	mov	dph,r4
   12A9 F0                 2517 	movx	@dptr,a
                           2518 ;	LCD.c:276: for(n = 0; n < 8 ;n++){
   12AA 0A                 2519 	inc	r2
   12AB 02 11 E1           2520 	ljmp	00101$
   12AE                    2521 00104$:
                           2522 ;	LCD.c:287: winstLCD = setCgramAddress;    				 // Atribuindo primeiro endereo da CGRAM
   12AE 90 FF C2           2523 	mov	dptr,#_winstLCD
   12B1 74 40              2524 	mov	a,#0x40
   12B3 F0                 2525 	movx	@dptr,a
                           2526 ;	LCD.c:288: delay(10,0);
   12B4 90 02 D2           2527 	mov	dptr,#_delay_PARM_2
   12B7 E4                 2528 	clr	a
   12B8 F0                 2529 	movx	@dptr,a
   12B9 90 00 0A           2530 	mov	dptr,#0x000A
   12BC 12 22 33           2531 	lcall	_delay
                           2532 ;	LCD.c:290: for(m = 0;m< 8; m++){
   12BF 7A 00              2533 	mov	r2,#0x00
   12C1                    2534 00109$:
   12C1 BA 08 00           2535 	cjne	r2,#0x08,00126$
   12C4                    2536 00126$:
   12C4 50 3F              2537 	jnc	00112$
                           2538 ;	LCD.c:291: for(n = 0; n < 8 ;n++){
   12C6 EA                 2539 	mov	a,r2
   12C7 C4                 2540 	swap	a
   12C8 03                 2541 	rr	a
   12C9 54 F8              2542 	anl	a,#0xf8
   12CB FB                 2543 	mov	r3,a
   12CC 7C 00              2544 	mov	r4,#0x00
   12CE                    2545 00105$:
   12CE BC 08 00           2546 	cjne	r4,#0x08,00128$
   12D1                    2547 00128$:
   12D1 50 2F              2548 	jnc	00111$
                           2549 ;	LCD.c:292: wdataLCD = SCmap[m].adds[n];                // Atribuindo escrita
   12D3 EB                 2550 	mov	a,r3
   12D4 24 A0              2551 	add	a,#_SCmap
   12D6 FD                 2552 	mov	r5,a
   12D7 E4                 2553 	clr	a
   12D8 34 00              2554 	addc	a,#(_SCmap >> 8)
   12DA FE                 2555 	mov	r6,a
   12DB EC                 2556 	mov	a,r4
   12DC 2D                 2557 	add	a,r5
   12DD F5 82              2558 	mov	dpl,a
   12DF E4                 2559 	clr	a
   12E0 3E                 2560 	addc	a,r6
   12E1 F5 83              2561 	mov	dph,a
   12E3 E0                 2562 	movx	a,@dptr
   12E4 90 FF D2           2563 	mov	dptr,#_wdataLCD
   12E7 F0                 2564 	movx	@dptr,a
                           2565 ;	LCD.c:293: delay(10,0);
   12E8 90 02 D2           2566 	mov	dptr,#_delay_PARM_2
   12EB E4                 2567 	clr	a
   12EC F0                 2568 	movx	@dptr,a
   12ED 90 00 0A           2569 	mov	dptr,#0x000A
   12F0 C0 02              2570 	push	ar2
   12F2 C0 03              2571 	push	ar3
   12F4 C0 04              2572 	push	ar4
   12F6 12 22 33           2573 	lcall	_delay
   12F9 D0 04              2574 	pop	ar4
   12FB D0 03              2575 	pop	ar3
   12FD D0 02              2576 	pop	ar2
                           2577 ;	LCD.c:291: for(n = 0; n < 8 ;n++){
   12FF 0C                 2578 	inc	r4
   1300 80 CC              2579 	sjmp	00105$
   1302                    2580 00111$:
                           2581 ;	LCD.c:290: for(m = 0;m< 8; m++){
   1302 0A                 2582 	inc	r2
   1303 80 BC              2583 	sjmp	00109$
   1305                    2584 00112$:
                           2585 ;	LCD.c:297: map[0][0].schar = 2;
   1305 90 00 E0           2586 	mov	dptr,#_map
   1308 74 02              2587 	mov	a,#0x02
   130A F0                 2588 	movx	@dptr,a
                           2589 ;	LCD.c:298: map[0][1].schar = 3;
   130B 90 00 E1           2590 	mov	dptr,#(_map + 0x0001)
   130E 74 03              2591 	mov	a,#0x03
   1310 F0                 2592 	movx	@dptr,a
                           2593 ;	LCD.c:299: map[0][2].schar = 7;
   1311 90 00 E2           2594 	mov	dptr,#(_map + 0x0002)
   1314 74 07              2595 	mov	a,#0x07
   1316 F0                 2596 	movx	@dptr,a
                           2597 ;	LCD.c:300: map[0][3].schar = 2;
   1317 90 00 E3           2598 	mov	dptr,#(_map + 0x0003)
   131A 74 02              2599 	mov	a,#0x02
   131C F0                 2600 	movx	@dptr,a
                           2601 ;	LCD.c:301: map[0][4].schar = 4;
   131D 90 00 E4           2602 	mov	dptr,#(_map + 0x0004)
   1320 74 04              2603 	mov	a,#0x04
   1322 F0                 2604 	movx	@dptr,a
                           2605 ;	LCD.c:302: map[0][5].schar = 3;
   1323 90 00 E5           2606 	mov	dptr,#(_map + 0x0005)
   1326 74 03              2607 	mov	a,#0x03
   1328 F0                 2608 	movx	@dptr,a
                           2609 ;	LCD.c:303: map[0][6].schar = 3;
   1329 90 00 E6           2610 	mov	dptr,#(_map + 0x0006)
   132C 74 03              2611 	mov	a,#0x03
   132E F0                 2612 	movx	@dptr,a
                           2613 ;	LCD.c:304: map[0][7].schar = 6;
   132F 90 00 E7           2614 	mov	dptr,#(_map + 0x0007)
   1332 74 06              2615 	mov	a,#0x06
   1334 F0                 2616 	movx	@dptr,a
                           2617 ;	LCD.c:305: map[0][8].schar = 8;
   1335 90 00 E8           2618 	mov	dptr,#(_map + 0x0008)
   1338 74 08              2619 	mov	a,#0x08
   133A F0                 2620 	movx	@dptr,a
                           2621 ;	LCD.c:306: map[0][9].schar = 8;
   133B 90 00 E9           2622 	mov	dptr,#(_map + 0x0009)
   133E 74 08              2623 	mov	a,#0x08
   1340 F0                 2624 	movx	@dptr,a
                           2625 ;	LCD.c:307: map[0][10].schar = 2;
   1341 90 00 EA           2626 	mov	dptr,#(_map + 0x000a)
   1344 74 02              2627 	mov	a,#0x02
   1346 F0                 2628 	movx	@dptr,a
                           2629 ;	LCD.c:308: map[0][11].schar = 8;
   1347 90 00 EB           2630 	mov	dptr,#(_map + 0x000b)
   134A 74 08              2631 	mov	a,#0x08
   134C F0                 2632 	movx	@dptr,a
                           2633 ;	LCD.c:309: map[0][12].schar = 2;
   134D 90 00 EC           2634 	mov	dptr,#(_map + 0x000c)
   1350 74 02              2635 	mov	a,#0x02
   1352 F0                 2636 	movx	@dptr,a
                           2637 ;	LCD.c:310: map[0][13].schar = 4;
   1353 90 00 ED           2638 	mov	dptr,#(_map + 0x000d)
   1356 74 04              2639 	mov	a,#0x04
   1358 F0                 2640 	movx	@dptr,a
                           2641 ;	LCD.c:311: map[0][14].schar = 8;
   1359 90 00 EE           2642 	mov	dptr,#(_map + 0x000e)
   135C 74 08              2643 	mov	a,#0x08
   135E F0                 2644 	movx	@dptr,a
                           2645 ;	LCD.c:312: map[0][15].schar = 8;
   135F 90 00 EF           2646 	mov	dptr,#(_map + 0x000f)
   1362 74 08              2647 	mov	a,#0x08
   1364 F0                 2648 	movx	@dptr,a
                           2649 ;	LCD.c:314: map[1][0].schar = 3;
   1365 90 00 F0           2650 	mov	dptr,#(_map + 0x0010)
   1368 74 03              2651 	mov	a,#0x03
   136A F0                 2652 	movx	@dptr,a
                           2653 ;	LCD.c:315: map[1][1].schar = 4;
   136B 90 00 F1           2654 	mov	dptr,#(_map + 0x0011)
   136E 74 04              2655 	mov	a,#0x04
   1370 F0                 2656 	movx	@dptr,a
                           2657 ;	LCD.c:316: map[1][2].schar = 5;
   1371 90 00 F2           2658 	mov	dptr,#(_map + 0x0012)
   1374 74 05              2659 	mov	a,#0x05
   1376 F0                 2660 	movx	@dptr,a
                           2661 ;	LCD.c:317: map[1][3].schar = 2;
   1377 90 00 F3           2662 	mov	dptr,#(_map + 0x0013)
   137A 74 02              2663 	mov	a,#0x02
   137C F0                 2664 	movx	@dptr,a
                           2665 ;	LCD.c:318: map[1][4].schar = 5;
   137D 90 00 F4           2666 	mov	dptr,#(_map + 0x0014)
   1380 74 05              2667 	mov	a,#0x05
   1382 F0                 2668 	movx	@dptr,a
                           2669 ;	LCD.c:319: map[1][5].schar = 4;
   1383 90 00 F5           2670 	mov	dptr,#(_map + 0x0015)
   1386 74 04              2671 	mov	a,#0x04
   1388 F0                 2672 	movx	@dptr,a
                           2673 ;	LCD.c:320: map[1][6].schar = 6;
   1389 90 00 F6           2674 	mov	dptr,#(_map + 0x0016)
   138C 74 06              2675 	mov	a,#0x06
   138E F0                 2676 	movx	@dptr,a
                           2677 ;	LCD.c:321: map[1][7].schar = 2;
   138F 90 00 F7           2678 	mov	dptr,#(_map + 0x0017)
   1392 74 02              2679 	mov	a,#0x02
   1394 F0                 2680 	movx	@dptr,a
                           2681 ;	LCD.c:322: map[1][8].schar = 5;
   1395 90 00 F8           2682 	mov	dptr,#(_map + 0x0018)
   1398 74 05              2683 	mov	a,#0x05
   139A F0                 2684 	movx	@dptr,a
                           2685 ;	LCD.c:323: map[1][9].schar = 6;
   139B 90 00 F9           2686 	mov	dptr,#(_map + 0x0019)
   139E 74 06              2687 	mov	a,#0x06
   13A0 F0                 2688 	movx	@dptr,a
                           2689 ;	LCD.c:324: map[1][10].schar = 4;
   13A1 90 00 FA           2690 	mov	dptr,#(_map + 0x001a)
   13A4 74 04              2691 	mov	a,#0x04
   13A6 F0                 2692 	movx	@dptr,a
                           2693 ;	LCD.c:325: map[1][11].schar = 6;
   13A7 90 00 FB           2694 	mov	dptr,#(_map + 0x001b)
   13AA 74 06              2695 	mov	a,#0x06
   13AC F0                 2696 	movx	@dptr,a
                           2697 ;	LCD.c:326: map[1][12].schar = 3;
   13AD 90 00 FC           2698 	mov	dptr,#(_map + 0x001c)
   13B0 74 03              2699 	mov	a,#0x03
   13B2 F0                 2700 	movx	@dptr,a
                           2701 ;	LCD.c:327: map[1][13].schar = 6;
   13B3 90 00 FD           2702 	mov	dptr,#(_map + 0x001d)
   13B6 74 06              2703 	mov	a,#0x06
   13B8 F0                 2704 	movx	@dptr,a
                           2705 ;	LCD.c:328: map[1][14].schar = 7;
   13B9 90 00 FE           2706 	mov	dptr,#(_map + 0x001e)
   13BC 74 07              2707 	mov	a,#0x07
   13BE F0                 2708 	movx	@dptr,a
                           2709 ;	LCD.c:329: map[1][15].schar = 4;
   13BF 90 00 FF           2710 	mov	dptr,#(_map + 0x001f)
   13C2 74 04              2711 	mov	a,#0x04
   13C4 F0                 2712 	movx	@dptr,a
                           2713 ;	LCD.c:331: map[2][0].schar = 3;
   13C5 90 01 00           2714 	mov	dptr,#(_map + 0x0020)
   13C8 74 03              2715 	mov	a,#0x03
   13CA F0                 2716 	movx	@dptr,a
                           2717 ;	LCD.c:332: map[2][1].schar = 6;
   13CB 90 01 01           2718 	mov	dptr,#(_map + 0x0021)
   13CE 74 06              2719 	mov	a,#0x06
   13D0 F0                 2720 	movx	@dptr,a
                           2721 ;	LCD.c:333: map[2][2].schar = 2;
   13D1 90 01 02           2722 	mov	dptr,#(_map + 0x0022)
   13D4 74 02              2723 	mov	a,#0x02
   13D6 F0                 2724 	movx	@dptr,a
                           2725 ;	LCD.c:334: map[2][3].schar = 4;
   13D7 90 01 03           2726 	mov	dptr,#(_map + 0x0023)
   13DA 74 04              2727 	mov	a,#0x04
   13DC F0                 2728 	movx	@dptr,a
                           2729 ;	LCD.c:335: map[2][4].schar = 6;
   13DD 90 01 04           2730 	mov	dptr,#(_map + 0x0024)
   13E0 74 06              2731 	mov	a,#0x06
   13E2 F0                 2732 	movx	@dptr,a
                           2733 ;	LCD.c:336: map[2][5].schar = 5;
   13E3 90 01 05           2734 	mov	dptr,#(_map + 0x0025)
   13E6 74 05              2735 	mov	a,#0x05
   13E8 F0                 2736 	movx	@dptr,a
                           2737 ;	LCD.c:337: map[2][6].schar = 2;
   13E9 90 01 06           2738 	mov	dptr,#(_map + 0x0026)
   13EC 74 02              2739 	mov	a,#0x02
   13EE F0                 2740 	movx	@dptr,a
                           2741 ;	LCD.c:338: map[2][7].schar = 4;
   13EF 90 01 07           2742 	mov	dptr,#(_map + 0x0027)
   13F2 74 04              2743 	mov	a,#0x04
   13F4 F0                 2744 	movx	@dptr,a
                           2745 ;	LCD.c:339: map[2][8].schar = 5;
   13F5 90 01 08           2746 	mov	dptr,#(_map + 0x0028)
   13F8 74 05              2747 	mov	a,#0x05
   13FA F0                 2748 	movx	@dptr,a
                           2749 ;	LCD.c:340: map[2][9].schar = 5;
   13FB 90 01 09           2750 	mov	dptr,#(_map + 0x0029)
   13FE 74 05              2751 	mov	a,#0x05
   1400 F0                 2752 	movx	@dptr,a
                           2753 ;	LCD.c:341: map[2][10].schar = 6;
   1401 90 01 0A           2754 	mov	dptr,#(_map + 0x002a)
   1404 74 06              2755 	mov	a,#0x06
   1406 F0                 2756 	movx	@dptr,a
                           2757 ;	LCD.c:342: map[2][11].schar = 4;
   1407 90 01 0B           2758 	mov	dptr,#(_map + 0x002b)
   140A 74 04              2759 	mov	a,#0x04
   140C F0                 2760 	movx	@dptr,a
                           2761 ;	LCD.c:343: map[2][12].schar = 2;
   140D 90 01 0C           2762 	mov	dptr,#(_map + 0x002c)
   1410 74 02              2763 	mov	a,#0x02
   1412 F0                 2764 	movx	@dptr,a
                           2765 ;	LCD.c:344: map[2][13].schar = 5;
   1413 90 01 0D           2766 	mov	dptr,#(_map + 0x002d)
   1416 74 05              2767 	mov	a,#0x05
   1418 F0                 2768 	movx	@dptr,a
                           2769 ;	LCD.c:345: map[2][14].schar = 3;
   1419 90 01 0E           2770 	mov	dptr,#(_map + 0x002e)
   141C 74 03              2771 	mov	a,#0x03
   141E F0                 2772 	movx	@dptr,a
                           2773 ;	LCD.c:346: map[2][15].schar = 7;
   141F 90 01 0F           2774 	mov	dptr,#(_map + 0x002f)
   1422 74 07              2775 	mov	a,#0x07
   1424 F0                 2776 	movx	@dptr,a
                           2777 ;	LCD.c:348: map[3][0].schar = 7;
   1425 90 01 10           2778 	mov	dptr,#(_map + 0x0030)
   1428 74 07              2779 	mov	a,#0x07
   142A F0                 2780 	movx	@dptr,a
                           2781 ;	LCD.c:349: map[3][1].schar = 8;
   142B 90 01 11           2782 	mov	dptr,#(_map + 0x0031)
   142E 74 08              2783 	mov	a,#0x08
   1430 F0                 2784 	movx	@dptr,a
                           2785 ;	LCD.c:350: map[3][2].schar = 4;
   1431 90 01 12           2786 	mov	dptr,#(_map + 0x0032)
   1434 74 04              2787 	mov	a,#0x04
   1436 F0                 2788 	movx	@dptr,a
                           2789 ;	LCD.c:351: map[3][3].schar = 3;
   1437 90 01 13           2790 	mov	dptr,#(_map + 0x0033)
   143A 74 03              2791 	mov	a,#0x03
   143C F0                 2792 	movx	@dptr,a
                           2793 ;	LCD.c:352: map[3][4].schar = 7;
   143D 90 01 14           2794 	mov	dptr,#(_map + 0x0034)
   1440 74 07              2795 	mov	a,#0x07
   1442 F0                 2796 	movx	@dptr,a
                           2797 ;	LCD.c:353: map[3][5].schar = 8;
   1443 90 01 15           2798 	mov	dptr,#(_map + 0x0035)
   1446 74 08              2799 	mov	a,#0x08
   1448 F0                 2800 	movx	@dptr,a
                           2801 ;	LCD.c:354: map[3][6].schar = 8;
   1449 90 01 16           2802 	mov	dptr,#(_map + 0x0036)
   144C 74 08              2803 	mov	a,#0x08
   144E F0                 2804 	movx	@dptr,a
                           2805 ;	LCD.c:355: map[3][7].schar = 3;
   144F 90 01 17           2806 	mov	dptr,#(_map + 0x0037)
   1452 74 03              2807 	mov	a,#0x03
   1454 F0                 2808 	movx	@dptr,a
                           2809 ;	LCD.c:356: map[3][8].schar = 6;
   1455 90 01 18           2810 	mov	dptr,#(_map + 0x0038)
   1458 74 06              2811 	mov	a,#0x06
   145A F0                 2812 	movx	@dptr,a
                           2813 ;	LCD.c:357: map[3][9].schar = 3;
   145B 90 01 19           2814 	mov	dptr,#(_map + 0x0039)
   145E 74 03              2815 	mov	a,#0x03
   1460 F0                 2816 	movx	@dptr,a
                           2817 ;	LCD.c:358: map[3][10].schar = 7;
   1461 90 01 1A           2818 	mov	dptr,#(_map + 0x003a)
   1464 74 07              2819 	mov	a,#0x07
   1466 F0                 2820 	movx	@dptr,a
                           2821 ;	LCD.c:359: map[3][11].schar = 8;
   1467 90 01 1B           2822 	mov	dptr,#(_map + 0x003b)
   146A 74 08              2823 	mov	a,#0x08
   146C F0                 2824 	movx	@dptr,a
                           2825 ;	LCD.c:360: map[3][12].schar = 6;
   146D 90 01 1C           2826 	mov	dptr,#(_map + 0x003c)
   1470 74 06              2827 	mov	a,#0x06
   1472 F0                 2828 	movx	@dptr,a
                           2829 ;	LCD.c:361: map[3][13].schar = 7;
   1473 90 01 1D           2830 	mov	dptr,#(_map + 0x003d)
   1476 74 07              2831 	mov	a,#0x07
   1478 F0                 2832 	movx	@dptr,a
                           2833 ;	LCD.c:362: map[3][14].schar = 2;
   1479 90 01 1E           2834 	mov	dptr,#(_map + 0x003e)
   147C 74 02              2835 	mov	a,#0x02
   147E F0                 2836 	movx	@dptr,a
                           2837 ;	LCD.c:363: map[3][15].schar = 7;
   147F 90 01 1F           2838 	mov	dptr,#(_map + 0x003f)
   1482 74 07              2839 	mov	a,#0x07
   1484 F0                 2840 	movx	@dptr,a
                           2841 ;	LCD.c:365: printMap();
   1485 02 07 D5           2842 	ljmp	_printMap
                           2843 ;------------------------------------------------------------
                           2844 ;Allocation info for local variables in function 'setMap4CGram'
                           2845 ;------------------------------------------------------------
                           2846 ;n                         Allocated with name '_setMap4CGram_n_1_1'
                           2847 ;m                         Allocated with name '_setMap4CGram_m_1_1'
                           2848 ;c0                        Allocated with name '_setMap4CGram_c0_1_1'
                           2849 ;c1                        Allocated with name '_setMap4CGram_c1_1_1'
                           2850 ;c2                        Allocated with name '_setMap4CGram_c2_1_1'
                           2851 ;c3                        Allocated with name '_setMap4CGram_c3_1_1'
                           2852 ;c4                        Allocated with name '_setMap4CGram_c4_1_1'
                           2853 ;c5                        Allocated with name '_setMap4CGram_c5_1_1'
                           2854 ;c6                        Allocated with name '_setMap4CGram_c6_1_1'
                           2855 ;c7                        Allocated with name '_setMap4CGram_c7_1_1'
                           2856 ;------------------------------------------------------------
                           2857 ;	LCD.c:369: void setMap4CGram(){
                           2858 ;	-----------------------------------------
                           2859 ;	 function setMap4CGram
                           2860 ;	-----------------------------------------
   1488                    2861 _setMap4CGram:
                           2862 ;	LCD.c:372: unsigned char c0[] =  {0,0,0,0,0,0,0,0};
   1488 90 01 ED           2863 	mov	dptr,#_setMap4CGram_c0_1_1
   148B E4                 2864 	clr	a
   148C F0                 2865 	movx	@dptr,a
   148D 90 01 EE           2866 	mov	dptr,#(_setMap4CGram_c0_1_1 + 0x0001)
   1490 F0                 2867 	movx	@dptr,a
   1491 90 01 EF           2868 	mov	dptr,#(_setMap4CGram_c0_1_1 + 0x0002)
   1494 F0                 2869 	movx	@dptr,a
   1495 90 01 F0           2870 	mov	dptr,#(_setMap4CGram_c0_1_1 + 0x0003)
   1498 F0                 2871 	movx	@dptr,a
   1499 90 01 F1           2872 	mov	dptr,#(_setMap4CGram_c0_1_1 + 0x0004)
   149C E4                 2873 	clr	a
   149D F0                 2874 	movx	@dptr,a
   149E 90 01 F2           2875 	mov	dptr,#(_setMap4CGram_c0_1_1 + 0x0005)
   14A1 F0                 2876 	movx	@dptr,a
   14A2 90 01 F3           2877 	mov	dptr,#(_setMap4CGram_c0_1_1 + 0x0006)
   14A5 F0                 2878 	movx	@dptr,a
   14A6 90 01 F4           2879 	mov	dptr,#(_setMap4CGram_c0_1_1 + 0x0007)
   14A9 F0                 2880 	movx	@dptr,a
                           2881 ;	LCD.c:373: unsigned char c1[] =  {0x1F,0x19,0x15,0x11,0x14,0x15,0x12,0x1A};
   14AA 90 01 F5           2882 	mov	dptr,#_setMap4CGram_c1_1_1
   14AD 74 1F              2883 	mov	a,#0x1F
   14AF F0                 2884 	movx	@dptr,a
   14B0 90 01 F6           2885 	mov	dptr,#(_setMap4CGram_c1_1_1 + 0x0001)
   14B3 74 19              2886 	mov	a,#0x19
   14B5 F0                 2887 	movx	@dptr,a
   14B6 90 01 F7           2888 	mov	dptr,#(_setMap4CGram_c1_1_1 + 0x0002)
   14B9 74 15              2889 	mov	a,#0x15
   14BB F0                 2890 	movx	@dptr,a
   14BC 90 01 F8           2891 	mov	dptr,#(_setMap4CGram_c1_1_1 + 0x0003)
   14BF 74 11              2892 	mov	a,#0x11
   14C1 F0                 2893 	movx	@dptr,a
   14C2 90 01 F9           2894 	mov	dptr,#(_setMap4CGram_c1_1_1 + 0x0004)
   14C5 74 14              2895 	mov	a,#0x14
   14C7 F0                 2896 	movx	@dptr,a
   14C8 90 01 FA           2897 	mov	dptr,#(_setMap4CGram_c1_1_1 + 0x0005)
   14CB 74 15              2898 	mov	a,#0x15
   14CD F0                 2899 	movx	@dptr,a
   14CE 90 01 FB           2900 	mov	dptr,#(_setMap4CGram_c1_1_1 + 0x0006)
   14D1 74 12              2901 	mov	a,#0x12
   14D3 F0                 2902 	movx	@dptr,a
   14D4 90 01 FC           2903 	mov	dptr,#(_setMap4CGram_c1_1_1 + 0x0007)
   14D7 74 1A              2904 	mov	a,#0x1A
   14D9 F0                 2905 	movx	@dptr,a
                           2906 ;	LCD.c:374: unsigned char c2[] =  {0x1F,0x01,0x05,0x08,0x11,0x05,0x09,0x12};
   14DA 90 01 FD           2907 	mov	dptr,#_setMap4CGram_c2_1_1
   14DD 74 1F              2908 	mov	a,#0x1F
   14DF F0                 2909 	movx	@dptr,a
   14E0 90 01 FE           2910 	mov	dptr,#(_setMap4CGram_c2_1_1 + 0x0001)
   14E3 74 01              2911 	mov	a,#0x01
   14E5 F0                 2912 	movx	@dptr,a
   14E6 90 01 FF           2913 	mov	dptr,#(_setMap4CGram_c2_1_1 + 0x0002)
   14E9 74 05              2914 	mov	a,#0x05
   14EB F0                 2915 	movx	@dptr,a
   14EC 90 02 00           2916 	mov	dptr,#(_setMap4CGram_c2_1_1 + 0x0003)
   14EF 74 08              2917 	mov	a,#0x08
   14F1 F0                 2918 	movx	@dptr,a
   14F2 90 02 01           2919 	mov	dptr,#(_setMap4CGram_c2_1_1 + 0x0004)
   14F5 74 11              2920 	mov	a,#0x11
   14F7 F0                 2921 	movx	@dptr,a
   14F8 90 02 02           2922 	mov	dptr,#(_setMap4CGram_c2_1_1 + 0x0005)
   14FB 74 05              2923 	mov	a,#0x05
   14FD F0                 2924 	movx	@dptr,a
   14FE 90 02 03           2925 	mov	dptr,#(_setMap4CGram_c2_1_1 + 0x0006)
   1501 74 09              2926 	mov	a,#0x09
   1503 F0                 2927 	movx	@dptr,a
   1504 90 02 04           2928 	mov	dptr,#(_setMap4CGram_c2_1_1 + 0x0007)
   1507 74 12              2929 	mov	a,#0x12
   1509 F0                 2930 	movx	@dptr,a
                           2931 ;	LCD.c:375: unsigned char c3[] =  {0x1B,0x11,0x00,0x1B,0x11,0x00,0x11,0x1B};
   150A 90 02 05           2932 	mov	dptr,#_setMap4CGram_c3_1_1
   150D 74 1B              2933 	mov	a,#0x1B
   150F F0                 2934 	movx	@dptr,a
   1510 90 02 06           2935 	mov	dptr,#(_setMap4CGram_c3_1_1 + 0x0001)
   1513 74 11              2936 	mov	a,#0x11
   1515 F0                 2937 	movx	@dptr,a
   1516 90 02 07           2938 	mov	dptr,#(_setMap4CGram_c3_1_1 + 0x0002)
   1519 E4                 2939 	clr	a
   151A F0                 2940 	movx	@dptr,a
   151B 90 02 08           2941 	mov	dptr,#(_setMap4CGram_c3_1_1 + 0x0003)
   151E 74 1B              2942 	mov	a,#0x1B
   1520 F0                 2943 	movx	@dptr,a
   1521 90 02 09           2944 	mov	dptr,#(_setMap4CGram_c3_1_1 + 0x0004)
   1524 74 11              2945 	mov	a,#0x11
   1526 F0                 2946 	movx	@dptr,a
   1527 90 02 0A           2947 	mov	dptr,#(_setMap4CGram_c3_1_1 + 0x0005)
   152A E4                 2948 	clr	a
   152B F0                 2949 	movx	@dptr,a
   152C 90 02 0B           2950 	mov	dptr,#(_setMap4CGram_c3_1_1 + 0x0006)
   152F 74 11              2951 	mov	a,#0x11
   1531 F0                 2952 	movx	@dptr,a
   1532 90 02 0C           2953 	mov	dptr,#(_setMap4CGram_c3_1_1 + 0x0007)
   1535 74 1B              2954 	mov	a,#0x1B
   1537 F0                 2955 	movx	@dptr,a
                           2956 ;	LCD.c:376: unsigned char c4[] =  {0x12,0x0A,0x09,0x04,0x19,0x03,0x19,0x0B};
   1538 90 02 0D           2957 	mov	dptr,#_setMap4CGram_c4_1_1
   153B 74 12              2958 	mov	a,#0x12
   153D F0                 2959 	movx	@dptr,a
   153E 90 02 0E           2960 	mov	dptr,#(_setMap4CGram_c4_1_1 + 0x0001)
   1541 74 0A              2961 	mov	a,#0x0A
   1543 F0                 2962 	movx	@dptr,a
   1544 90 02 0F           2963 	mov	dptr,#(_setMap4CGram_c4_1_1 + 0x0002)
   1547 74 09              2964 	mov	a,#0x09
   1549 F0                 2965 	movx	@dptr,a
   154A 90 02 10           2966 	mov	dptr,#(_setMap4CGram_c4_1_1 + 0x0003)
   154D 74 04              2967 	mov	a,#0x04
   154F F0                 2968 	movx	@dptr,a
   1550 90 02 11           2969 	mov	dptr,#(_setMap4CGram_c4_1_1 + 0x0004)
   1553 74 19              2970 	mov	a,#0x19
   1555 F0                 2971 	movx	@dptr,a
   1556 90 02 12           2972 	mov	dptr,#(_setMap4CGram_c4_1_1 + 0x0005)
   1559 74 03              2973 	mov	a,#0x03
   155B F0                 2974 	movx	@dptr,a
   155C 90 02 13           2975 	mov	dptr,#(_setMap4CGram_c4_1_1 + 0x0006)
   155F 74 19              2976 	mov	a,#0x19
   1561 F0                 2977 	movx	@dptr,a
   1562 90 02 14           2978 	mov	dptr,#(_setMap4CGram_c4_1_1 + 0x0007)
   1565 74 0B              2979 	mov	a,#0x0B
   1567 F0                 2980 	movx	@dptr,a
                           2981 ;	LCD.c:377: unsigned char c5[] =  {0x12,0x16,0x13,0x18,0x12,0x16,0x13,0x1B};
   1568 90 02 15           2982 	mov	dptr,#_setMap4CGram_c5_1_1
   156B 74 12              2983 	mov	a,#0x12
   156D F0                 2984 	movx	@dptr,a
   156E 90 02 16           2985 	mov	dptr,#(_setMap4CGram_c5_1_1 + 0x0001)
   1571 74 16              2986 	mov	a,#0x16
   1573 F0                 2987 	movx	@dptr,a
   1574 90 02 17           2988 	mov	dptr,#(_setMap4CGram_c5_1_1 + 0x0002)
   1577 74 13              2989 	mov	a,#0x13
   1579 F0                 2990 	movx	@dptr,a
   157A 90 02 18           2991 	mov	dptr,#(_setMap4CGram_c5_1_1 + 0x0003)
   157D 74 18              2992 	mov	a,#0x18
   157F F0                 2993 	movx	@dptr,a
   1580 90 02 19           2994 	mov	dptr,#(_setMap4CGram_c5_1_1 + 0x0004)
   1583 74 12              2995 	mov	a,#0x12
   1585 F0                 2996 	movx	@dptr,a
   1586 90 02 1A           2997 	mov	dptr,#(_setMap4CGram_c5_1_1 + 0x0005)
   1589 74 16              2998 	mov	a,#0x16
   158B F0                 2999 	movx	@dptr,a
   158C 90 02 1B           3000 	mov	dptr,#(_setMap4CGram_c5_1_1 + 0x0006)
   158F 74 13              3001 	mov	a,#0x13
   1591 F0                 3002 	movx	@dptr,a
   1592 90 02 1C           3003 	mov	dptr,#(_setMap4CGram_c5_1_1 + 0x0007)
   1595 74 1B              3004 	mov	a,#0x1B
   1597 F0                 3005 	movx	@dptr,a
                           3006 ;	LCD.c:378: unsigned char c6[] =  {0x1A,0x11,0x15,0x14,0x12,0x15,0x10,0x1F};
   1598 90 02 1D           3007 	mov	dptr,#_setMap4CGram_c6_1_1
   159B 74 1A              3008 	mov	a,#0x1A
   159D F0                 3009 	movx	@dptr,a
   159E 90 02 1E           3010 	mov	dptr,#(_setMap4CGram_c6_1_1 + 0x0001)
   15A1 74 11              3011 	mov	a,#0x11
   15A3 F0                 3012 	movx	@dptr,a
   15A4 90 02 1F           3013 	mov	dptr,#(_setMap4CGram_c6_1_1 + 0x0002)
   15A7 74 15              3014 	mov	a,#0x15
   15A9 F0                 3015 	movx	@dptr,a
   15AA 90 02 20           3016 	mov	dptr,#(_setMap4CGram_c6_1_1 + 0x0003)
   15AD 74 14              3017 	mov	a,#0x14
   15AF F0                 3018 	movx	@dptr,a
   15B0 90 02 21           3019 	mov	dptr,#(_setMap4CGram_c6_1_1 + 0x0004)
   15B3 74 12              3020 	mov	a,#0x12
   15B5 F0                 3021 	movx	@dptr,a
   15B6 90 02 22           3022 	mov	dptr,#(_setMap4CGram_c6_1_1 + 0x0005)
   15B9 74 15              3023 	mov	a,#0x15
   15BB F0                 3024 	movx	@dptr,a
   15BC 90 02 23           3025 	mov	dptr,#(_setMap4CGram_c6_1_1 + 0x0006)
   15BF 74 10              3026 	mov	a,#0x10
   15C1 F0                 3027 	movx	@dptr,a
   15C2 90 02 24           3028 	mov	dptr,#(_setMap4CGram_c6_1_1 + 0x0007)
   15C5 74 1F              3029 	mov	a,#0x1F
   15C7 F0                 3030 	movx	@dptr,a
                           3031 ;	LCD.c:379: unsigned char c7[] =  {0x13,0x05,0x09,0x09,0x05,0x15,0x01,0x1F};
   15C8 90 02 25           3032 	mov	dptr,#_setMap4CGram_c7_1_1
   15CB 74 13              3033 	mov	a,#0x13
   15CD F0                 3034 	movx	@dptr,a
   15CE 90 02 26           3035 	mov	dptr,#(_setMap4CGram_c7_1_1 + 0x0001)
   15D1 74 05              3036 	mov	a,#0x05
   15D3 F0                 3037 	movx	@dptr,a
   15D4 90 02 27           3038 	mov	dptr,#(_setMap4CGram_c7_1_1 + 0x0002)
   15D7 74 09              3039 	mov	a,#0x09
   15D9 F0                 3040 	movx	@dptr,a
   15DA 90 02 28           3041 	mov	dptr,#(_setMap4CGram_c7_1_1 + 0x0003)
   15DD 74 09              3042 	mov	a,#0x09
   15DF F0                 3043 	movx	@dptr,a
   15E0 90 02 29           3044 	mov	dptr,#(_setMap4CGram_c7_1_1 + 0x0004)
   15E3 74 05              3045 	mov	a,#0x05
   15E5 F0                 3046 	movx	@dptr,a
   15E6 90 02 2A           3047 	mov	dptr,#(_setMap4CGram_c7_1_1 + 0x0005)
   15E9 74 15              3048 	mov	a,#0x15
   15EB F0                 3049 	movx	@dptr,a
   15EC 90 02 2B           3050 	mov	dptr,#(_setMap4CGram_c7_1_1 + 0x0006)
   15EF 74 01              3051 	mov	a,#0x01
   15F1 F0                 3052 	movx	@dptr,a
   15F2 90 02 2C           3053 	mov	dptr,#(_setMap4CGram_c7_1_1 + 0x0007)
   15F5 74 1F              3054 	mov	a,#0x1F
   15F7 F0                 3055 	movx	@dptr,a
                           3056 ;	LCD.c:381: for(n = 0; n < 8 ;n++){
   15F8 7A 00              3057 	mov	r2,#0x00
   15FA                    3058 00101$:
   15FA BA 08 00           3059 	cjne	r2,#0x08,00124$
   15FD                    3060 00124$:
   15FD 40 03              3061 	jc	00125$
   15FF 02 16 C7           3062 	ljmp	00104$
   1602                    3063 00125$:
                           3064 ;	LCD.c:382: SCmap[0].adds[n] = c0[n];
   1602 EA                 3065 	mov	a,r2
   1603 24 A0              3066 	add	a,#_SCmap
   1605 FB                 3067 	mov	r3,a
   1606 E4                 3068 	clr	a
   1607 34 00              3069 	addc	a,#(_SCmap >> 8)
   1609 FC                 3070 	mov	r4,a
   160A EA                 3071 	mov	a,r2
   160B 24 ED              3072 	add	a,#_setMap4CGram_c0_1_1
   160D F5 82              3073 	mov	dpl,a
   160F E4                 3074 	clr	a
   1610 34 01              3075 	addc	a,#(_setMap4CGram_c0_1_1 >> 8)
   1612 F5 83              3076 	mov	dph,a
   1614 E0                 3077 	movx	a,@dptr
   1615 8B 82              3078 	mov	dpl,r3
   1617 8C 83              3079 	mov	dph,r4
   1619 F0                 3080 	movx	@dptr,a
                           3081 ;	LCD.c:383: SCmap[1].adds[n] = c1[n];
   161A EA                 3082 	mov	a,r2
   161B 24 A8              3083 	add	a,#(_SCmap + 0x0008)
   161D FB                 3084 	mov	r3,a
   161E E4                 3085 	clr	a
   161F 34 00              3086 	addc	a,#((_SCmap + 0x0008) >> 8)
   1621 FC                 3087 	mov	r4,a
   1622 EA                 3088 	mov	a,r2
   1623 24 F5              3089 	add	a,#_setMap4CGram_c1_1_1
   1625 F5 82              3090 	mov	dpl,a
   1627 E4                 3091 	clr	a
   1628 34 01              3092 	addc	a,#(_setMap4CGram_c1_1_1 >> 8)
   162A F5 83              3093 	mov	dph,a
   162C E0                 3094 	movx	a,@dptr
   162D 8B 82              3095 	mov	dpl,r3
   162F 8C 83              3096 	mov	dph,r4
   1631 F0                 3097 	movx	@dptr,a
                           3098 ;	LCD.c:384: SCmap[2].adds[n] = c2[n];
   1632 EA                 3099 	mov	a,r2
   1633 24 B0              3100 	add	a,#(_SCmap + 0x0010)
   1635 FB                 3101 	mov	r3,a
   1636 E4                 3102 	clr	a
   1637 34 00              3103 	addc	a,#((_SCmap + 0x0010) >> 8)
   1639 FC                 3104 	mov	r4,a
   163A EA                 3105 	mov	a,r2
   163B 24 FD              3106 	add	a,#_setMap4CGram_c2_1_1
   163D F5 82              3107 	mov	dpl,a
   163F E4                 3108 	clr	a
   1640 34 01              3109 	addc	a,#(_setMap4CGram_c2_1_1 >> 8)
   1642 F5 83              3110 	mov	dph,a
   1644 E0                 3111 	movx	a,@dptr
   1645 8B 82              3112 	mov	dpl,r3
   1647 8C 83              3113 	mov	dph,r4
   1649 F0                 3114 	movx	@dptr,a
                           3115 ;	LCD.c:385: SCmap[3].adds[n] = c3[n];
   164A EA                 3116 	mov	a,r2
   164B 24 B8              3117 	add	a,#(_SCmap + 0x0018)
   164D FB                 3118 	mov	r3,a
   164E E4                 3119 	clr	a
   164F 34 00              3120 	addc	a,#((_SCmap + 0x0018) >> 8)
   1651 FC                 3121 	mov	r4,a
   1652 EA                 3122 	mov	a,r2
   1653 24 05              3123 	add	a,#_setMap4CGram_c3_1_1
   1655 F5 82              3124 	mov	dpl,a
   1657 E4                 3125 	clr	a
   1658 34 02              3126 	addc	a,#(_setMap4CGram_c3_1_1 >> 8)
   165A F5 83              3127 	mov	dph,a
   165C E0                 3128 	movx	a,@dptr
   165D 8B 82              3129 	mov	dpl,r3
   165F 8C 83              3130 	mov	dph,r4
   1661 F0                 3131 	movx	@dptr,a
                           3132 ;	LCD.c:386: SCmap[4].adds[n] = c4[n];
   1662 EA                 3133 	mov	a,r2
   1663 24 C0              3134 	add	a,#(_SCmap + 0x0020)
   1665 FB                 3135 	mov	r3,a
   1666 E4                 3136 	clr	a
   1667 34 00              3137 	addc	a,#((_SCmap + 0x0020) >> 8)
   1669 FC                 3138 	mov	r4,a
   166A EA                 3139 	mov	a,r2
   166B 24 0D              3140 	add	a,#_setMap4CGram_c4_1_1
   166D F5 82              3141 	mov	dpl,a
   166F E4                 3142 	clr	a
   1670 34 02              3143 	addc	a,#(_setMap4CGram_c4_1_1 >> 8)
   1672 F5 83              3144 	mov	dph,a
   1674 E0                 3145 	movx	a,@dptr
   1675 8B 82              3146 	mov	dpl,r3
   1677 8C 83              3147 	mov	dph,r4
   1679 F0                 3148 	movx	@dptr,a
                           3149 ;	LCD.c:387: SCmap[5].adds[n] = c5[n];
   167A EA                 3150 	mov	a,r2
   167B 24 C8              3151 	add	a,#(_SCmap + 0x0028)
   167D FB                 3152 	mov	r3,a
   167E E4                 3153 	clr	a
   167F 34 00              3154 	addc	a,#((_SCmap + 0x0028) >> 8)
   1681 FC                 3155 	mov	r4,a
   1682 EA                 3156 	mov	a,r2
   1683 24 15              3157 	add	a,#_setMap4CGram_c5_1_1
   1685 F5 82              3158 	mov	dpl,a
   1687 E4                 3159 	clr	a
   1688 34 02              3160 	addc	a,#(_setMap4CGram_c5_1_1 >> 8)
   168A F5 83              3161 	mov	dph,a
   168C E0                 3162 	movx	a,@dptr
   168D 8B 82              3163 	mov	dpl,r3
   168F 8C 83              3164 	mov	dph,r4
   1691 F0                 3165 	movx	@dptr,a
                           3166 ;	LCD.c:388: SCmap[6].adds[n] = c6[n];
   1692 EA                 3167 	mov	a,r2
   1693 24 D0              3168 	add	a,#(_SCmap + 0x0030)
   1695 FB                 3169 	mov	r3,a
   1696 E4                 3170 	clr	a
   1697 34 00              3171 	addc	a,#((_SCmap + 0x0030) >> 8)
   1699 FC                 3172 	mov	r4,a
   169A EA                 3173 	mov	a,r2
   169B 24 1D              3174 	add	a,#_setMap4CGram_c6_1_1
   169D F5 82              3175 	mov	dpl,a
   169F E4                 3176 	clr	a
   16A0 34 02              3177 	addc	a,#(_setMap4CGram_c6_1_1 >> 8)
   16A2 F5 83              3178 	mov	dph,a
   16A4 E0                 3179 	movx	a,@dptr
   16A5 8B 82              3180 	mov	dpl,r3
   16A7 8C 83              3181 	mov	dph,r4
   16A9 F0                 3182 	movx	@dptr,a
                           3183 ;	LCD.c:389: SCmap[7].adds[n] = c7[n];
   16AA EA                 3184 	mov	a,r2
   16AB 24 D8              3185 	add	a,#(_SCmap + 0x0038)
   16AD FB                 3186 	mov	r3,a
   16AE E4                 3187 	clr	a
   16AF 34 00              3188 	addc	a,#((_SCmap + 0x0038) >> 8)
   16B1 FC                 3189 	mov	r4,a
   16B2 EA                 3190 	mov	a,r2
   16B3 24 25              3191 	add	a,#_setMap4CGram_c7_1_1
   16B5 F5 82              3192 	mov	dpl,a
   16B7 E4                 3193 	clr	a
   16B8 34 02              3194 	addc	a,#(_setMap4CGram_c7_1_1 >> 8)
   16BA F5 83              3195 	mov	dph,a
   16BC E0                 3196 	movx	a,@dptr
   16BD FD                 3197 	mov	r5,a
   16BE 8B 82              3198 	mov	dpl,r3
   16C0 8C 83              3199 	mov	dph,r4
   16C2 F0                 3200 	movx	@dptr,a
                           3201 ;	LCD.c:381: for(n = 0; n < 8 ;n++){
   16C3 0A                 3202 	inc	r2
   16C4 02 15 FA           3203 	ljmp	00101$
   16C7                    3204 00104$:
                           3205 ;	LCD.c:392: winstLCD = setCgramAddress;    				 // Atribuindo primeiro endereo da CGRAM
   16C7 90 FF C2           3206 	mov	dptr,#_winstLCD
   16CA 74 40              3207 	mov	a,#0x40
   16CC F0                 3208 	movx	@dptr,a
                           3209 ;	LCD.c:393: delay(10,0);
   16CD 90 02 D2           3210 	mov	dptr,#_delay_PARM_2
   16D0 E4                 3211 	clr	a
   16D1 F0                 3212 	movx	@dptr,a
   16D2 90 00 0A           3213 	mov	dptr,#0x000A
   16D5 12 22 33           3214 	lcall	_delay
                           3215 ;	LCD.c:395: for(m = 0;m< 8; m++){
   16D8 7A 00              3216 	mov	r2,#0x00
   16DA                    3217 00109$:
   16DA BA 08 00           3218 	cjne	r2,#0x08,00126$
   16DD                    3219 00126$:
   16DD 50 3F              3220 	jnc	00112$
                           3221 ;	LCD.c:396: for(n = 0; n < 8 ;n++){
   16DF EA                 3222 	mov	a,r2
   16E0 C4                 3223 	swap	a
   16E1 03                 3224 	rr	a
   16E2 54 F8              3225 	anl	a,#0xf8
   16E4 FB                 3226 	mov	r3,a
   16E5 7C 00              3227 	mov	r4,#0x00
   16E7                    3228 00105$:
   16E7 BC 08 00           3229 	cjne	r4,#0x08,00128$
   16EA                    3230 00128$:
   16EA 50 2F              3231 	jnc	00111$
                           3232 ;	LCD.c:397: wdataLCD = SCmap[m].adds[n];                // Atribuindo escrita
   16EC EB                 3233 	mov	a,r3
   16ED 24 A0              3234 	add	a,#_SCmap
   16EF FD                 3235 	mov	r5,a
   16F0 E4                 3236 	clr	a
   16F1 34 00              3237 	addc	a,#(_SCmap >> 8)
   16F3 FE                 3238 	mov	r6,a
   16F4 EC                 3239 	mov	a,r4
   16F5 2D                 3240 	add	a,r5
   16F6 F5 82              3241 	mov	dpl,a
   16F8 E4                 3242 	clr	a
   16F9 3E                 3243 	addc	a,r6
   16FA F5 83              3244 	mov	dph,a
   16FC E0                 3245 	movx	a,@dptr
   16FD 90 FF D2           3246 	mov	dptr,#_wdataLCD
   1700 F0                 3247 	movx	@dptr,a
                           3248 ;	LCD.c:398: delay(10,0);
   1701 90 02 D2           3249 	mov	dptr,#_delay_PARM_2
   1704 E4                 3250 	clr	a
   1705 F0                 3251 	movx	@dptr,a
   1706 90 00 0A           3252 	mov	dptr,#0x000A
   1709 C0 02              3253 	push	ar2
   170B C0 03              3254 	push	ar3
   170D C0 04              3255 	push	ar4
   170F 12 22 33           3256 	lcall	_delay
   1712 D0 04              3257 	pop	ar4
   1714 D0 03              3258 	pop	ar3
   1716 D0 02              3259 	pop	ar2
                           3260 ;	LCD.c:396: for(n = 0; n < 8 ;n++){
   1718 0C                 3261 	inc	r4
   1719 80 CC              3262 	sjmp	00105$
   171B                    3263 00111$:
                           3264 ;	LCD.c:395: for(m = 0;m< 8; m++){
   171B 0A                 3265 	inc	r2
   171C 80 BC              3266 	sjmp	00109$
   171E                    3267 00112$:
                           3268 ;	LCD.c:402: map[0][0].schar = 2;
   171E 90 00 E0           3269 	mov	dptr,#_map
   1721 74 02              3270 	mov	a,#0x02
   1723 F0                 3271 	movx	@dptr,a
                           3272 ;	LCD.c:403: map[0][1].schar = 8;
   1724 90 00 E1           3273 	mov	dptr,#(_map + 0x0001)
   1727 74 08              3274 	mov	a,#0x08
   1729 F0                 3275 	movx	@dptr,a
                           3276 ;	LCD.c:404: map[0][2].schar = 3;
   172A 90 00 E2           3277 	mov	dptr,#(_map + 0x0002)
   172D 74 03              3278 	mov	a,#0x03
   172F F0                 3279 	movx	@dptr,a
                           3280 ;	LCD.c:405: map[0][3].schar = 2;
   1730 90 00 E3           3281 	mov	dptr,#(_map + 0x0003)
   1733 74 02              3282 	mov	a,#0x02
   1735 F0                 3283 	movx	@dptr,a
                           3284 ;	LCD.c:406: map[0][4].schar = 3;
   1736 90 00 E4           3285 	mov	dptr,#(_map + 0x0004)
   1739 74 03              3286 	mov	a,#0x03
   173B F0                 3287 	movx	@dptr,a
                           3288 ;	LCD.c:407: map[0][5].schar = 3;
   173C 90 00 E5           3289 	mov	dptr,#(_map + 0x0005)
   173F 74 03              3290 	mov	a,#0x03
   1741 F0                 3291 	movx	@dptr,a
                           3292 ;	LCD.c:408: map[0][6].schar = 2;
   1742 90 00 E6           3293 	mov	dptr,#(_map + 0x0006)
   1745 74 02              3294 	mov	a,#0x02
   1747 F0                 3295 	movx	@dptr,a
                           3296 ;	LCD.c:409: map[0][7].schar = 7;
   1748 90 00 E7           3297 	mov	dptr,#(_map + 0x0007)
   174B 74 07              3298 	mov	a,#0x07
   174D F0                 3299 	movx	@dptr,a
                           3300 ;	LCD.c:410: map[0][8].schar = 7;
   174E 90 00 E8           3301 	mov	dptr,#(_map + 0x0008)
   1751 74 07              3302 	mov	a,#0x07
   1753 F0                 3303 	movx	@dptr,a
                           3304 ;	LCD.c:411: map[0][9].schar = 2;
   1754 90 00 E9           3305 	mov	dptr,#(_map + 0x0009)
   1757 74 02              3306 	mov	a,#0x02
   1759 F0                 3307 	movx	@dptr,a
                           3308 ;	LCD.c:412: map[0][10].schar = 7;
   175A 90 00 EA           3309 	mov	dptr,#(_map + 0x000a)
   175D 74 07              3310 	mov	a,#0x07
   175F F0                 3311 	movx	@dptr,a
                           3312 ;	LCD.c:413: map[0][11].schar = 8;
   1760 90 00 EB           3313 	mov	dptr,#(_map + 0x000b)
   1763 74 08              3314 	mov	a,#0x08
   1765 F0                 3315 	movx	@dptr,a
                           3316 ;	LCD.c:414: map[0][12].schar = 8;
   1766 90 00 EC           3317 	mov	dptr,#(_map + 0x000c)
   1769 74 08              3318 	mov	a,#0x08
   176B F0                 3319 	movx	@dptr,a
                           3320 ;	LCD.c:415: map[0][13].schar = 4;
   176C 90 00 ED           3321 	mov	dptr,#(_map + 0x000d)
   176F 74 04              3322 	mov	a,#0x04
   1771 F0                 3323 	movx	@dptr,a
                           3324 ;	LCD.c:416: map[0][14].schar = 8;
   1772 90 00 EE           3325 	mov	dptr,#(_map + 0x000e)
   1775 74 08              3326 	mov	a,#0x08
   1777 F0                 3327 	movx	@dptr,a
                           3328 ;	LCD.c:417: map[0][15].schar = 2;
   1778 90 00 EF           3329 	mov	dptr,#(_map + 0x000f)
   177B 74 02              3330 	mov	a,#0x02
   177D F0                 3331 	movx	@dptr,a
                           3332 ;	LCD.c:419: map[1][0].schar = 6;
   177E 90 00 F0           3333 	mov	dptr,#(_map + 0x0010)
   1781 74 06              3334 	mov	a,#0x06
   1783 F0                 3335 	movx	@dptr,a
                           3336 ;	LCD.c:420: map[1][1].schar = 5;
   1784 90 00 F1           3337 	mov	dptr,#(_map + 0x0011)
   1787 74 05              3338 	mov	a,#0x05
   1789 F0                 3339 	movx	@dptr,a
                           3340 ;	LCD.c:421: map[1][2].schar = 6;
   178A 90 00 F2           3341 	mov	dptr,#(_map + 0x0012)
   178D 74 06              3342 	mov	a,#0x06
   178F F0                 3343 	movx	@dptr,a
                           3344 ;	LCD.c:422: map[1][3].schar = 4;
   1790 90 00 F3           3345 	mov	dptr,#(_map + 0x0013)
   1793 74 04              3346 	mov	a,#0x04
   1795 F0                 3347 	movx	@dptr,a
                           3348 ;	LCD.c:423: map[1][4].schar = 5;
   1796 90 00 F4           3349 	mov	dptr,#(_map + 0x0014)
   1799 74 05              3350 	mov	a,#0x05
   179B F0                 3351 	movx	@dptr,a
                           3352 ;	LCD.c:424: map[1][5].schar = 4;
   179C 90 00 F5           3353 	mov	dptr,#(_map + 0x0015)
   179F 74 04              3354 	mov	a,#0x04
   17A1 F0                 3355 	movx	@dptr,a
                           3356 ;	LCD.c:425: map[1][6].schar = 4;
   17A2 90 00 F6           3357 	mov	dptr,#(_map + 0x0016)
   17A5 74 04              3358 	mov	a,#0x04
   17A7 F0                 3359 	movx	@dptr,a
                           3360 ;	LCD.c:426: map[1][7].schar = 4;
   17A8 90 00 F7           3361 	mov	dptr,#(_map + 0x0017)
   17AB 74 04              3362 	mov	a,#0x04
   17AD F0                 3363 	movx	@dptr,a
                           3364 ;	LCD.c:427: map[1][8].schar = 3;
   17AE 90 00 F8           3365 	mov	dptr,#(_map + 0x0018)
   17B1 74 03              3366 	mov	a,#0x03
   17B3 F0                 3367 	movx	@dptr,a
                           3368 ;	LCD.c:428: map[1][9].schar = 6;
   17B4 90 00 F9           3369 	mov	dptr,#(_map + 0x0019)
   17B7 74 06              3370 	mov	a,#0x06
   17B9 F0                 3371 	movx	@dptr,a
                           3372 ;	LCD.c:429: map[1][10].schar = 4;
   17BA 90 00 FA           3373 	mov	dptr,#(_map + 0x001a)
   17BD 74 04              3374 	mov	a,#0x04
   17BF F0                 3375 	movx	@dptr,a
                           3376 ;	LCD.c:430: map[1][11].schar = 6;
   17C0 90 00 FB           3377 	mov	dptr,#(_map + 0x001b)
   17C3 74 06              3378 	mov	a,#0x06
   17C5 F0                 3379 	movx	@dptr,a
                           3380 ;	LCD.c:431: map[1][12].schar = 5;
   17C6 90 00 FC           3381 	mov	dptr,#(_map + 0x001c)
   17C9 74 05              3382 	mov	a,#0x05
   17CB F0                 3383 	movx	@dptr,a
                           3384 ;	LCD.c:432: map[1][13].schar = 3;
   17CC 90 00 FD           3385 	mov	dptr,#(_map + 0x001d)
   17CF 74 03              3386 	mov	a,#0x03
   17D1 F0                 3387 	movx	@dptr,a
                           3388 ;	LCD.c:433: map[1][14].schar = 4;
   17D2 90 00 FE           3389 	mov	dptr,#(_map + 0x001e)
   17D5 74 04              3390 	mov	a,#0x04
   17D7 F0                 3391 	movx	@dptr,a
                           3392 ;	LCD.c:434: map[1][15].schar = 7;
   17D8 90 00 FF           3393 	mov	dptr,#(_map + 0x001f)
   17DB 74 07              3394 	mov	a,#0x07
   17DD F0                 3395 	movx	@dptr,a
                           3396 ;	LCD.c:436: map[2][0].schar = 6;
   17DE 90 01 00           3397 	mov	dptr,#(_map + 0x0020)
   17E1 74 06              3398 	mov	a,#0x06
   17E3 F0                 3399 	movx	@dptr,a
                           3400 ;	LCD.c:437: map[2][1].schar = 4;
   17E4 90 01 01           3401 	mov	dptr,#(_map + 0x0021)
   17E7 74 04              3402 	mov	a,#0x04
   17E9 F0                 3403 	movx	@dptr,a
                           3404 ;	LCD.c:438: map[2][2].schar = 5;
   17EA 90 01 02           3405 	mov	dptr,#(_map + 0x0022)
   17ED 74 05              3406 	mov	a,#0x05
   17EF F0                 3407 	movx	@dptr,a
                           3408 ;	LCD.c:439: map[2][3].schar = 6;
   17F0 90 01 03           3409 	mov	dptr,#(_map + 0x0023)
   17F3 74 06              3410 	mov	a,#0x06
   17F5 F0                 3411 	movx	@dptr,a
                           3412 ;	LCD.c:440: map[2][4].schar = 4;
   17F6 90 01 04           3413 	mov	dptr,#(_map + 0x0024)
   17F9 74 04              3414 	mov	a,#0x04
   17FB F0                 3415 	movx	@dptr,a
                           3416 ;	LCD.c:441: map[2][5].schar = 5;
   17FC 90 01 05           3417 	mov	dptr,#(_map + 0x0025)
   17FF 74 05              3418 	mov	a,#0x05
   1801 F0                 3419 	movx	@dptr,a
                           3420 ;	LCD.c:442: map[2][6].schar = 5;
   1802 90 01 06           3421 	mov	dptr,#(_map + 0x0026)
   1805 74 05              3422 	mov	a,#0x05
   1807 F0                 3423 	movx	@dptr,a
                           3424 ;	LCD.c:443: map[2][7].schar = 7;
   1808 90 01 07           3425 	mov	dptr,#(_map + 0x0027)
   180B 74 07              3426 	mov	a,#0x07
   180D F0                 3427 	movx	@dptr,a
                           3428 ;	LCD.c:444: map[2][8].schar = 6;
   180E 90 01 08           3429 	mov	dptr,#(_map + 0x0028)
   1811 74 06              3430 	mov	a,#0x06
   1813 F0                 3431 	movx	@dptr,a
                           3432 ;	LCD.c:445: map[2][9].schar = 4;
   1814 90 01 09           3433 	mov	dptr,#(_map + 0x0029)
   1817 74 04              3434 	mov	a,#0x04
   1819 F0                 3435 	movx	@dptr,a
                           3436 ;	LCD.c:446: map[2][10].schar = 6;
   181A 90 01 0A           3437 	mov	dptr,#(_map + 0x002a)
   181D 74 06              3438 	mov	a,#0x06
   181F F0                 3439 	movx	@dptr,a
                           3440 ;	LCD.c:447: map[2][11].schar = 4;
   1820 90 01 0B           3441 	mov	dptr,#(_map + 0x002b)
   1823 74 04              3442 	mov	a,#0x04
   1825 F0                 3443 	movx	@dptr,a
                           3444 ;	LCD.c:448: map[2][12].schar = 3;
   1826 90 01 0C           3445 	mov	dptr,#(_map + 0x002c)
   1829 74 03              3446 	mov	a,#0x03
   182B F0                 3447 	movx	@dptr,a
                           3448 ;	LCD.c:449: map[2][13].schar = 5;
   182C 90 01 0D           3449 	mov	dptr,#(_map + 0x002d)
   182F 74 05              3450 	mov	a,#0x05
   1831 F0                 3451 	movx	@dptr,a
                           3452 ;	LCD.c:450: map[2][14].schar = 3;
   1832 90 01 0E           3453 	mov	dptr,#(_map + 0x002e)
   1835 74 03              3454 	mov	a,#0x03
   1837 F0                 3455 	movx	@dptr,a
                           3456 ;	LCD.c:451: map[2][15].schar = 8;
   1838 90 01 0F           3457 	mov	dptr,#(_map + 0x002f)
   183B 74 08              3458 	mov	a,#0x08
   183D F0                 3459 	movx	@dptr,a
                           3460 ;	LCD.c:453: map[3][0].schar = 7;
   183E 90 01 10           3461 	mov	dptr,#(_map + 0x0030)
   1841 74 07              3462 	mov	a,#0x07
   1843 F0                 3463 	movx	@dptr,a
                           3464 ;	LCD.c:454: map[3][1].schar = 6;
   1844 90 01 11           3465 	mov	dptr,#(_map + 0x0031)
   1847 74 06              3466 	mov	a,#0x06
   1849 F0                 3467 	movx	@dptr,a
                           3468 ;	LCD.c:455: map[3][2].schar = 7;
   184A 90 01 12           3469 	mov	dptr,#(_map + 0x0032)
   184D 74 07              3470 	mov	a,#0x07
   184F F0                 3471 	movx	@dptr,a
                           3472 ;	LCD.c:456: map[3][3].schar = 3;
   1850 90 01 13           3473 	mov	dptr,#(_map + 0x0033)
   1853 74 03              3474 	mov	a,#0x03
   1855 F0                 3475 	movx	@dptr,a
                           3476 ;	LCD.c:457: map[3][4].schar = 5;
   1856 90 01 14           3477 	mov	dptr,#(_map + 0x0034)
   1859 74 05              3478 	mov	a,#0x05
   185B F0                 3479 	movx	@dptr,a
                           3480 ;	LCD.c:458: map[3][5].schar = 8;
   185C 90 01 15           3481 	mov	dptr,#(_map + 0x0035)
   185F 74 08              3482 	mov	a,#0x08
   1861 F0                 3483 	movx	@dptr,a
                           3484 ;	LCD.c:459: map[3][6].schar = 7;
   1862 90 01 16           3485 	mov	dptr,#(_map + 0x0036)
   1865 74 07              3486 	mov	a,#0x07
   1867 F0                 3487 	movx	@dptr,a
                           3488 ;	LCD.c:460: map[3][7].schar = 7;
   1868 90 01 17           3489 	mov	dptr,#(_map + 0x0037)
   186B 74 07              3490 	mov	a,#0x07
   186D F0                 3491 	movx	@dptr,a
                           3492 ;	LCD.c:461: map[3][8].schar = 8;
   186E 90 01 18           3493 	mov	dptr,#(_map + 0x0038)
   1871 74 08              3494 	mov	a,#0x08
   1873 F0                 3495 	movx	@dptr,a
                           3496 ;	LCD.c:462: map[3][9].schar = 6;
   1874 90 01 19           3497 	mov	dptr,#(_map + 0x0039)
   1877 74 06              3498 	mov	a,#0x06
   1879 F0                 3499 	movx	@dptr,a
                           3500 ;	LCD.c:463: map[3][10].schar = 7;
   187A 90 01 1A           3501 	mov	dptr,#(_map + 0x003a)
   187D 74 07              3502 	mov	a,#0x07
   187F F0                 3503 	movx	@dptr,a
                           3504 ;	LCD.c:464: map[3][11].schar = 8;
   1880 90 01 1B           3505 	mov	dptr,#(_map + 0x003b)
   1883 74 08              3506 	mov	a,#0x08
   1885 F0                 3507 	movx	@dptr,a
                           3508 ;	LCD.c:465: map[3][12].schar = 6;
   1886 90 01 1C           3509 	mov	dptr,#(_map + 0x003c)
   1889 74 06              3510 	mov	a,#0x06
   188B F0                 3511 	movx	@dptr,a
                           3512 ;	LCD.c:466: map[3][13].schar = 7;
   188C 90 01 1D           3513 	mov	dptr,#(_map + 0x003d)
   188F 74 07              3514 	mov	a,#0x07
   1891 F0                 3515 	movx	@dptr,a
                           3516 ;	LCD.c:467: map[3][14].schar = 5;
   1892 90 01 1E           3517 	mov	dptr,#(_map + 0x003e)
   1895 74 05              3518 	mov	a,#0x05
   1897 F0                 3519 	movx	@dptr,a
                           3520 ;	LCD.c:468: map[3][15].schar = 8;
   1898 90 01 1F           3521 	mov	dptr,#(_map + 0x003f)
   189B 74 08              3522 	mov	a,#0x08
   189D F0                 3523 	movx	@dptr,a
                           3524 ;	LCD.c:470: printMap();
   189E 02 07 D5           3525 	ljmp	_printMap
                           3526 ;------------------------------------------------------------
                           3527 ;Allocation info for local variables in function 'setMap5CGram'
                           3528 ;------------------------------------------------------------
                           3529 ;n                         Allocated with name '_setMap5CGram_n_1_1'
                           3530 ;m                         Allocated with name '_setMap5CGram_m_1_1'
                           3531 ;c0                        Allocated with name '_setMap5CGram_c0_1_1'
                           3532 ;c1                        Allocated with name '_setMap5CGram_c1_1_1'
                           3533 ;c2                        Allocated with name '_setMap5CGram_c2_1_1'
                           3534 ;c3                        Allocated with name '_setMap5CGram_c3_1_1'
                           3535 ;c4                        Allocated with name '_setMap5CGram_c4_1_1'
                           3536 ;c5                        Allocated with name '_setMap5CGram_c5_1_1'
                           3537 ;c6                        Allocated with name '_setMap5CGram_c6_1_1'
                           3538 ;c7                        Allocated with name '_setMap5CGram_c7_1_1'
                           3539 ;------------------------------------------------------------
                           3540 ;	LCD.c:474: void setMap5CGram(){
                           3541 ;	-----------------------------------------
                           3542 ;	 function setMap5CGram
                           3543 ;	-----------------------------------------
   18A1                    3544 _setMap5CGram:
                           3545 ;	LCD.c:477: unsigned char c0[] =  {0,0,0,0,0,0,0,0};
   18A1 90 02 2D           3546 	mov	dptr,#_setMap5CGram_c0_1_1
   18A4 E4                 3547 	clr	a
   18A5 F0                 3548 	movx	@dptr,a
   18A6 90 02 2E           3549 	mov	dptr,#(_setMap5CGram_c0_1_1 + 0x0001)
   18A9 F0                 3550 	movx	@dptr,a
   18AA 90 02 2F           3551 	mov	dptr,#(_setMap5CGram_c0_1_1 + 0x0002)
   18AD F0                 3552 	movx	@dptr,a
   18AE 90 02 30           3553 	mov	dptr,#(_setMap5CGram_c0_1_1 + 0x0003)
   18B1 F0                 3554 	movx	@dptr,a
   18B2 90 02 31           3555 	mov	dptr,#(_setMap5CGram_c0_1_1 + 0x0004)
   18B5 E4                 3556 	clr	a
   18B6 F0                 3557 	movx	@dptr,a
   18B7 90 02 32           3558 	mov	dptr,#(_setMap5CGram_c0_1_1 + 0x0005)
   18BA F0                 3559 	movx	@dptr,a
   18BB 90 02 33           3560 	mov	dptr,#(_setMap5CGram_c0_1_1 + 0x0006)
   18BE F0                 3561 	movx	@dptr,a
   18BF 90 02 34           3562 	mov	dptr,#(_setMap5CGram_c0_1_1 + 0x0007)
   18C2 F0                 3563 	movx	@dptr,a
                           3564 ;	LCD.c:478: unsigned char c1[] =  {0x1F,0x19,0x15,0x11,0x14,0x15,0x12,0x1A};
   18C3 90 02 35           3565 	mov	dptr,#_setMap5CGram_c1_1_1
   18C6 74 1F              3566 	mov	a,#0x1F
   18C8 F0                 3567 	movx	@dptr,a
   18C9 90 02 36           3568 	mov	dptr,#(_setMap5CGram_c1_1_1 + 0x0001)
   18CC 74 19              3569 	mov	a,#0x19
   18CE F0                 3570 	movx	@dptr,a
   18CF 90 02 37           3571 	mov	dptr,#(_setMap5CGram_c1_1_1 + 0x0002)
   18D2 74 15              3572 	mov	a,#0x15
   18D4 F0                 3573 	movx	@dptr,a
   18D5 90 02 38           3574 	mov	dptr,#(_setMap5CGram_c1_1_1 + 0x0003)
   18D8 74 11              3575 	mov	a,#0x11
   18DA F0                 3576 	movx	@dptr,a
   18DB 90 02 39           3577 	mov	dptr,#(_setMap5CGram_c1_1_1 + 0x0004)
   18DE 74 14              3578 	mov	a,#0x14
   18E0 F0                 3579 	movx	@dptr,a
   18E1 90 02 3A           3580 	mov	dptr,#(_setMap5CGram_c1_1_1 + 0x0005)
   18E4 74 15              3581 	mov	a,#0x15
   18E6 F0                 3582 	movx	@dptr,a
   18E7 90 02 3B           3583 	mov	dptr,#(_setMap5CGram_c1_1_1 + 0x0006)
   18EA 74 12              3584 	mov	a,#0x12
   18EC F0                 3585 	movx	@dptr,a
   18ED 90 02 3C           3586 	mov	dptr,#(_setMap5CGram_c1_1_1 + 0x0007)
   18F0 74 1A              3587 	mov	a,#0x1A
   18F2 F0                 3588 	movx	@dptr,a
                           3589 ;	LCD.c:479: unsigned char c2[] =  {0x1F,0x01,0x05,0x08,0x11,0x05,0x09,0x12};
   18F3 90 02 3D           3590 	mov	dptr,#_setMap5CGram_c2_1_1
   18F6 74 1F              3591 	mov	a,#0x1F
   18F8 F0                 3592 	movx	@dptr,a
   18F9 90 02 3E           3593 	mov	dptr,#(_setMap5CGram_c2_1_1 + 0x0001)
   18FC 74 01              3594 	mov	a,#0x01
   18FE F0                 3595 	movx	@dptr,a
   18FF 90 02 3F           3596 	mov	dptr,#(_setMap5CGram_c2_1_1 + 0x0002)
   1902 74 05              3597 	mov	a,#0x05
   1904 F0                 3598 	movx	@dptr,a
   1905 90 02 40           3599 	mov	dptr,#(_setMap5CGram_c2_1_1 + 0x0003)
   1908 74 08              3600 	mov	a,#0x08
   190A F0                 3601 	movx	@dptr,a
   190B 90 02 41           3602 	mov	dptr,#(_setMap5CGram_c2_1_1 + 0x0004)
   190E 74 11              3603 	mov	a,#0x11
   1910 F0                 3604 	movx	@dptr,a
   1911 90 02 42           3605 	mov	dptr,#(_setMap5CGram_c2_1_1 + 0x0005)
   1914 74 05              3606 	mov	a,#0x05
   1916 F0                 3607 	movx	@dptr,a
   1917 90 02 43           3608 	mov	dptr,#(_setMap5CGram_c2_1_1 + 0x0006)
   191A 74 09              3609 	mov	a,#0x09
   191C F0                 3610 	movx	@dptr,a
   191D 90 02 44           3611 	mov	dptr,#(_setMap5CGram_c2_1_1 + 0x0007)
   1920 74 12              3612 	mov	a,#0x12
   1922 F0                 3613 	movx	@dptr,a
                           3614 ;	LCD.c:480: unsigned char c3[] =  {0x1B,0x11,0x00,0x1B,0x11,0x00,0x11,0x1B};
   1923 90 02 45           3615 	mov	dptr,#_setMap5CGram_c3_1_1
   1926 74 1B              3616 	mov	a,#0x1B
   1928 F0                 3617 	movx	@dptr,a
   1929 90 02 46           3618 	mov	dptr,#(_setMap5CGram_c3_1_1 + 0x0001)
   192C 74 11              3619 	mov	a,#0x11
   192E F0                 3620 	movx	@dptr,a
   192F 90 02 47           3621 	mov	dptr,#(_setMap5CGram_c3_1_1 + 0x0002)
   1932 E4                 3622 	clr	a
   1933 F0                 3623 	movx	@dptr,a
   1934 90 02 48           3624 	mov	dptr,#(_setMap5CGram_c3_1_1 + 0x0003)
   1937 74 1B              3625 	mov	a,#0x1B
   1939 F0                 3626 	movx	@dptr,a
   193A 90 02 49           3627 	mov	dptr,#(_setMap5CGram_c3_1_1 + 0x0004)
   193D 74 11              3628 	mov	a,#0x11
   193F F0                 3629 	movx	@dptr,a
   1940 90 02 4A           3630 	mov	dptr,#(_setMap5CGram_c3_1_1 + 0x0005)
   1943 E4                 3631 	clr	a
   1944 F0                 3632 	movx	@dptr,a
   1945 90 02 4B           3633 	mov	dptr,#(_setMap5CGram_c3_1_1 + 0x0006)
   1948 74 11              3634 	mov	a,#0x11
   194A F0                 3635 	movx	@dptr,a
   194B 90 02 4C           3636 	mov	dptr,#(_setMap5CGram_c3_1_1 + 0x0007)
   194E 74 1B              3637 	mov	a,#0x1B
   1950 F0                 3638 	movx	@dptr,a
                           3639 ;	LCD.c:481: unsigned char c4[] =  {0x12,0x0A,0x09,0x04,0x19,0x03,0x19,0x0B};
   1951 90 02 4D           3640 	mov	dptr,#_setMap5CGram_c4_1_1
   1954 74 12              3641 	mov	a,#0x12
   1956 F0                 3642 	movx	@dptr,a
   1957 90 02 4E           3643 	mov	dptr,#(_setMap5CGram_c4_1_1 + 0x0001)
   195A 74 0A              3644 	mov	a,#0x0A
   195C F0                 3645 	movx	@dptr,a
   195D 90 02 4F           3646 	mov	dptr,#(_setMap5CGram_c4_1_1 + 0x0002)
   1960 74 09              3647 	mov	a,#0x09
   1962 F0                 3648 	movx	@dptr,a
   1963 90 02 50           3649 	mov	dptr,#(_setMap5CGram_c4_1_1 + 0x0003)
   1966 74 04              3650 	mov	a,#0x04
   1968 F0                 3651 	movx	@dptr,a
   1969 90 02 51           3652 	mov	dptr,#(_setMap5CGram_c4_1_1 + 0x0004)
   196C 74 19              3653 	mov	a,#0x19
   196E F0                 3654 	movx	@dptr,a
   196F 90 02 52           3655 	mov	dptr,#(_setMap5CGram_c4_1_1 + 0x0005)
   1972 74 03              3656 	mov	a,#0x03
   1974 F0                 3657 	movx	@dptr,a
   1975 90 02 53           3658 	mov	dptr,#(_setMap5CGram_c4_1_1 + 0x0006)
   1978 74 19              3659 	mov	a,#0x19
   197A F0                 3660 	movx	@dptr,a
   197B 90 02 54           3661 	mov	dptr,#(_setMap5CGram_c4_1_1 + 0x0007)
   197E 74 0B              3662 	mov	a,#0x0B
   1980 F0                 3663 	movx	@dptr,a
                           3664 ;	LCD.c:482: unsigned char c5[] =  {0x12,0x16,0x13,0x18,0x12,0x16,0x13,0x1B};
   1981 90 02 55           3665 	mov	dptr,#_setMap5CGram_c5_1_1
   1984 74 12              3666 	mov	a,#0x12
   1986 F0                 3667 	movx	@dptr,a
   1987 90 02 56           3668 	mov	dptr,#(_setMap5CGram_c5_1_1 + 0x0001)
   198A 74 16              3669 	mov	a,#0x16
   198C F0                 3670 	movx	@dptr,a
   198D 90 02 57           3671 	mov	dptr,#(_setMap5CGram_c5_1_1 + 0x0002)
   1990 74 13              3672 	mov	a,#0x13
   1992 F0                 3673 	movx	@dptr,a
   1993 90 02 58           3674 	mov	dptr,#(_setMap5CGram_c5_1_1 + 0x0003)
   1996 74 18              3675 	mov	a,#0x18
   1998 F0                 3676 	movx	@dptr,a
   1999 90 02 59           3677 	mov	dptr,#(_setMap5CGram_c5_1_1 + 0x0004)
   199C 74 12              3678 	mov	a,#0x12
   199E F0                 3679 	movx	@dptr,a
   199F 90 02 5A           3680 	mov	dptr,#(_setMap5CGram_c5_1_1 + 0x0005)
   19A2 74 16              3681 	mov	a,#0x16
   19A4 F0                 3682 	movx	@dptr,a
   19A5 90 02 5B           3683 	mov	dptr,#(_setMap5CGram_c5_1_1 + 0x0006)
   19A8 74 13              3684 	mov	a,#0x13
   19AA F0                 3685 	movx	@dptr,a
   19AB 90 02 5C           3686 	mov	dptr,#(_setMap5CGram_c5_1_1 + 0x0007)
   19AE 74 1B              3687 	mov	a,#0x1B
   19B0 F0                 3688 	movx	@dptr,a
                           3689 ;	LCD.c:483: unsigned char c6[] =  {0x1A,0x11,0x15,0x14,0x12,0x15,0x10,0x17};
   19B1 90 02 5D           3690 	mov	dptr,#_setMap5CGram_c6_1_1
   19B4 74 1A              3691 	mov	a,#0x1A
   19B6 F0                 3692 	movx	@dptr,a
   19B7 90 02 5E           3693 	mov	dptr,#(_setMap5CGram_c6_1_1 + 0x0001)
   19BA 74 11              3694 	mov	a,#0x11
   19BC F0                 3695 	movx	@dptr,a
   19BD 90 02 5F           3696 	mov	dptr,#(_setMap5CGram_c6_1_1 + 0x0002)
   19C0 74 15              3697 	mov	a,#0x15
   19C2 F0                 3698 	movx	@dptr,a
   19C3 90 02 60           3699 	mov	dptr,#(_setMap5CGram_c6_1_1 + 0x0003)
   19C6 74 14              3700 	mov	a,#0x14
   19C8 F0                 3701 	movx	@dptr,a
   19C9 90 02 61           3702 	mov	dptr,#(_setMap5CGram_c6_1_1 + 0x0004)
   19CC 74 12              3703 	mov	a,#0x12
   19CE F0                 3704 	movx	@dptr,a
   19CF 90 02 62           3705 	mov	dptr,#(_setMap5CGram_c6_1_1 + 0x0005)
   19D2 74 15              3706 	mov	a,#0x15
   19D4 F0                 3707 	movx	@dptr,a
   19D5 90 02 63           3708 	mov	dptr,#(_setMap5CGram_c6_1_1 + 0x0006)
   19D8 74 10              3709 	mov	a,#0x10
   19DA F0                 3710 	movx	@dptr,a
   19DB 90 02 64           3711 	mov	dptr,#(_setMap5CGram_c6_1_1 + 0x0007)
   19DE 74 17              3712 	mov	a,#0x17
   19E0 F0                 3713 	movx	@dptr,a
                           3714 ;	LCD.c:484: unsigned char c7[] =  {0x13,0x05,0x09,0x09,0x05,0x15,0x01,0x1F};
   19E1 90 02 65           3715 	mov	dptr,#_setMap5CGram_c7_1_1
   19E4 74 13              3716 	mov	a,#0x13
   19E6 F0                 3717 	movx	@dptr,a
   19E7 90 02 66           3718 	mov	dptr,#(_setMap5CGram_c7_1_1 + 0x0001)
   19EA 74 05              3719 	mov	a,#0x05
   19EC F0                 3720 	movx	@dptr,a
   19ED 90 02 67           3721 	mov	dptr,#(_setMap5CGram_c7_1_1 + 0x0002)
   19F0 74 09              3722 	mov	a,#0x09
   19F2 F0                 3723 	movx	@dptr,a
   19F3 90 02 68           3724 	mov	dptr,#(_setMap5CGram_c7_1_1 + 0x0003)
   19F6 74 09              3725 	mov	a,#0x09
   19F8 F0                 3726 	movx	@dptr,a
   19F9 90 02 69           3727 	mov	dptr,#(_setMap5CGram_c7_1_1 + 0x0004)
   19FC 74 05              3728 	mov	a,#0x05
   19FE F0                 3729 	movx	@dptr,a
   19FF 90 02 6A           3730 	mov	dptr,#(_setMap5CGram_c7_1_1 + 0x0005)
   1A02 74 15              3731 	mov	a,#0x15
   1A04 F0                 3732 	movx	@dptr,a
   1A05 90 02 6B           3733 	mov	dptr,#(_setMap5CGram_c7_1_1 + 0x0006)
   1A08 74 01              3734 	mov	a,#0x01
   1A0A F0                 3735 	movx	@dptr,a
   1A0B 90 02 6C           3736 	mov	dptr,#(_setMap5CGram_c7_1_1 + 0x0007)
   1A0E 74 1F              3737 	mov	a,#0x1F
   1A10 F0                 3738 	movx	@dptr,a
                           3739 ;	LCD.c:486: for(n = 0; n < 8 ;n++){
   1A11 7A 00              3740 	mov	r2,#0x00
   1A13                    3741 00101$:
   1A13 BA 08 00           3742 	cjne	r2,#0x08,00124$
   1A16                    3743 00124$:
   1A16 40 03              3744 	jc	00125$
   1A18 02 1A E0           3745 	ljmp	00104$
   1A1B                    3746 00125$:
                           3747 ;	LCD.c:487: SCmap[0].adds[n] = c0[n];
   1A1B EA                 3748 	mov	a,r2
   1A1C 24 A0              3749 	add	a,#_SCmap
   1A1E FB                 3750 	mov	r3,a
   1A1F E4                 3751 	clr	a
   1A20 34 00              3752 	addc	a,#(_SCmap >> 8)
   1A22 FC                 3753 	mov	r4,a
   1A23 EA                 3754 	mov	a,r2
   1A24 24 2D              3755 	add	a,#_setMap5CGram_c0_1_1
   1A26 F5 82              3756 	mov	dpl,a
   1A28 E4                 3757 	clr	a
   1A29 34 02              3758 	addc	a,#(_setMap5CGram_c0_1_1 >> 8)
   1A2B F5 83              3759 	mov	dph,a
   1A2D E0                 3760 	movx	a,@dptr
   1A2E 8B 82              3761 	mov	dpl,r3
   1A30 8C 83              3762 	mov	dph,r4
   1A32 F0                 3763 	movx	@dptr,a
                           3764 ;	LCD.c:488: SCmap[1].adds[n] = c1[n];
   1A33 EA                 3765 	mov	a,r2
   1A34 24 A8              3766 	add	a,#(_SCmap + 0x0008)
   1A36 FB                 3767 	mov	r3,a
   1A37 E4                 3768 	clr	a
   1A38 34 00              3769 	addc	a,#((_SCmap + 0x0008) >> 8)
   1A3A FC                 3770 	mov	r4,a
   1A3B EA                 3771 	mov	a,r2
   1A3C 24 35              3772 	add	a,#_setMap5CGram_c1_1_1
   1A3E F5 82              3773 	mov	dpl,a
   1A40 E4                 3774 	clr	a
   1A41 34 02              3775 	addc	a,#(_setMap5CGram_c1_1_1 >> 8)
   1A43 F5 83              3776 	mov	dph,a
   1A45 E0                 3777 	movx	a,@dptr
   1A46 8B 82              3778 	mov	dpl,r3
   1A48 8C 83              3779 	mov	dph,r4
   1A4A F0                 3780 	movx	@dptr,a
                           3781 ;	LCD.c:489: SCmap[2].adds[n] = c2[n];
   1A4B EA                 3782 	mov	a,r2
   1A4C 24 B0              3783 	add	a,#(_SCmap + 0x0010)
   1A4E FB                 3784 	mov	r3,a
   1A4F E4                 3785 	clr	a
   1A50 34 00              3786 	addc	a,#((_SCmap + 0x0010) >> 8)
   1A52 FC                 3787 	mov	r4,a
   1A53 EA                 3788 	mov	a,r2
   1A54 24 3D              3789 	add	a,#_setMap5CGram_c2_1_1
   1A56 F5 82              3790 	mov	dpl,a
   1A58 E4                 3791 	clr	a
   1A59 34 02              3792 	addc	a,#(_setMap5CGram_c2_1_1 >> 8)
   1A5B F5 83              3793 	mov	dph,a
   1A5D E0                 3794 	movx	a,@dptr
   1A5E 8B 82              3795 	mov	dpl,r3
   1A60 8C 83              3796 	mov	dph,r4
   1A62 F0                 3797 	movx	@dptr,a
                           3798 ;	LCD.c:490: SCmap[3].adds[n] = c3[n];
   1A63 EA                 3799 	mov	a,r2
   1A64 24 B8              3800 	add	a,#(_SCmap + 0x0018)
   1A66 FB                 3801 	mov	r3,a
   1A67 E4                 3802 	clr	a
   1A68 34 00              3803 	addc	a,#((_SCmap + 0x0018) >> 8)
   1A6A FC                 3804 	mov	r4,a
   1A6B EA                 3805 	mov	a,r2
   1A6C 24 45              3806 	add	a,#_setMap5CGram_c3_1_1
   1A6E F5 82              3807 	mov	dpl,a
   1A70 E4                 3808 	clr	a
   1A71 34 02              3809 	addc	a,#(_setMap5CGram_c3_1_1 >> 8)
   1A73 F5 83              3810 	mov	dph,a
   1A75 E0                 3811 	movx	a,@dptr
   1A76 8B 82              3812 	mov	dpl,r3
   1A78 8C 83              3813 	mov	dph,r4
   1A7A F0                 3814 	movx	@dptr,a
                           3815 ;	LCD.c:491: SCmap[4].adds[n] = c4[n];
   1A7B EA                 3816 	mov	a,r2
   1A7C 24 C0              3817 	add	a,#(_SCmap + 0x0020)
   1A7E FB                 3818 	mov	r3,a
   1A7F E4                 3819 	clr	a
   1A80 34 00              3820 	addc	a,#((_SCmap + 0x0020) >> 8)
   1A82 FC                 3821 	mov	r4,a
   1A83 EA                 3822 	mov	a,r2
   1A84 24 4D              3823 	add	a,#_setMap5CGram_c4_1_1
   1A86 F5 82              3824 	mov	dpl,a
   1A88 E4                 3825 	clr	a
   1A89 34 02              3826 	addc	a,#(_setMap5CGram_c4_1_1 >> 8)
   1A8B F5 83              3827 	mov	dph,a
   1A8D E0                 3828 	movx	a,@dptr
   1A8E 8B 82              3829 	mov	dpl,r3
   1A90 8C 83              3830 	mov	dph,r4
   1A92 F0                 3831 	movx	@dptr,a
                           3832 ;	LCD.c:492: SCmap[5].adds[n] = c5[n];
   1A93 EA                 3833 	mov	a,r2
   1A94 24 C8              3834 	add	a,#(_SCmap + 0x0028)
   1A96 FB                 3835 	mov	r3,a
   1A97 E4                 3836 	clr	a
   1A98 34 00              3837 	addc	a,#((_SCmap + 0x0028) >> 8)
   1A9A FC                 3838 	mov	r4,a
   1A9B EA                 3839 	mov	a,r2
   1A9C 24 55              3840 	add	a,#_setMap5CGram_c5_1_1
   1A9E F5 82              3841 	mov	dpl,a
   1AA0 E4                 3842 	clr	a
   1AA1 34 02              3843 	addc	a,#(_setMap5CGram_c5_1_1 >> 8)
   1AA3 F5 83              3844 	mov	dph,a
   1AA5 E0                 3845 	movx	a,@dptr
   1AA6 8B 82              3846 	mov	dpl,r3
   1AA8 8C 83              3847 	mov	dph,r4
   1AAA F0                 3848 	movx	@dptr,a
                           3849 ;	LCD.c:493: SCmap[6].adds[n] = c6[n];
   1AAB EA                 3850 	mov	a,r2
   1AAC 24 D0              3851 	add	a,#(_SCmap + 0x0030)
   1AAE FB                 3852 	mov	r3,a
   1AAF E4                 3853 	clr	a
   1AB0 34 00              3854 	addc	a,#((_SCmap + 0x0030) >> 8)
   1AB2 FC                 3855 	mov	r4,a
   1AB3 EA                 3856 	mov	a,r2
   1AB4 24 5D              3857 	add	a,#_setMap5CGram_c6_1_1
   1AB6 F5 82              3858 	mov	dpl,a
   1AB8 E4                 3859 	clr	a
   1AB9 34 02              3860 	addc	a,#(_setMap5CGram_c6_1_1 >> 8)
   1ABB F5 83              3861 	mov	dph,a
   1ABD E0                 3862 	movx	a,@dptr
   1ABE 8B 82              3863 	mov	dpl,r3
   1AC0 8C 83              3864 	mov	dph,r4
   1AC2 F0                 3865 	movx	@dptr,a
                           3866 ;	LCD.c:494: SCmap[7].adds[n] = c7[n];
   1AC3 EA                 3867 	mov	a,r2
   1AC4 24 D8              3868 	add	a,#(_SCmap + 0x0038)
   1AC6 FB                 3869 	mov	r3,a
   1AC7 E4                 3870 	clr	a
   1AC8 34 00              3871 	addc	a,#((_SCmap + 0x0038) >> 8)
   1ACA FC                 3872 	mov	r4,a
   1ACB EA                 3873 	mov	a,r2
   1ACC 24 65              3874 	add	a,#_setMap5CGram_c7_1_1
   1ACE F5 82              3875 	mov	dpl,a
   1AD0 E4                 3876 	clr	a
   1AD1 34 02              3877 	addc	a,#(_setMap5CGram_c7_1_1 >> 8)
   1AD3 F5 83              3878 	mov	dph,a
   1AD5 E0                 3879 	movx	a,@dptr
   1AD6 FD                 3880 	mov	r5,a
   1AD7 8B 82              3881 	mov	dpl,r3
   1AD9 8C 83              3882 	mov	dph,r4
   1ADB F0                 3883 	movx	@dptr,a
                           3884 ;	LCD.c:486: for(n = 0; n < 8 ;n++){
   1ADC 0A                 3885 	inc	r2
   1ADD 02 1A 13           3886 	ljmp	00101$
   1AE0                    3887 00104$:
                           3888 ;	LCD.c:497: winstLCD = setCgramAddress;    				 // Atribuindo primeiro endereo da CGRAM
   1AE0 90 FF C2           3889 	mov	dptr,#_winstLCD
   1AE3 74 40              3890 	mov	a,#0x40
   1AE5 F0                 3891 	movx	@dptr,a
                           3892 ;	LCD.c:498: delay(10,0);
   1AE6 90 02 D2           3893 	mov	dptr,#_delay_PARM_2
   1AE9 E4                 3894 	clr	a
   1AEA F0                 3895 	movx	@dptr,a
   1AEB 90 00 0A           3896 	mov	dptr,#0x000A
   1AEE 12 22 33           3897 	lcall	_delay
                           3898 ;	LCD.c:500: for(m = 0;m< 8; m++){
   1AF1 7A 00              3899 	mov	r2,#0x00
   1AF3                    3900 00109$:
   1AF3 BA 08 00           3901 	cjne	r2,#0x08,00126$
   1AF6                    3902 00126$:
   1AF6 50 3F              3903 	jnc	00112$
                           3904 ;	LCD.c:501: for(n = 0; n < 8 ;n++){
   1AF8 EA                 3905 	mov	a,r2
   1AF9 C4                 3906 	swap	a
   1AFA 03                 3907 	rr	a
   1AFB 54 F8              3908 	anl	a,#0xf8
   1AFD FB                 3909 	mov	r3,a
   1AFE 7C 00              3910 	mov	r4,#0x00
   1B00                    3911 00105$:
   1B00 BC 08 00           3912 	cjne	r4,#0x08,00128$
   1B03                    3913 00128$:
   1B03 50 2F              3914 	jnc	00111$
                           3915 ;	LCD.c:502: wdataLCD = SCmap[m].adds[n];                // Atribuindo escrita
   1B05 EB                 3916 	mov	a,r3
   1B06 24 A0              3917 	add	a,#_SCmap
   1B08 FD                 3918 	mov	r5,a
   1B09 E4                 3919 	clr	a
   1B0A 34 00              3920 	addc	a,#(_SCmap >> 8)
   1B0C FE                 3921 	mov	r6,a
   1B0D EC                 3922 	mov	a,r4
   1B0E 2D                 3923 	add	a,r5
   1B0F F5 82              3924 	mov	dpl,a
   1B11 E4                 3925 	clr	a
   1B12 3E                 3926 	addc	a,r6
   1B13 F5 83              3927 	mov	dph,a
   1B15 E0                 3928 	movx	a,@dptr
   1B16 90 FF D2           3929 	mov	dptr,#_wdataLCD
   1B19 F0                 3930 	movx	@dptr,a
                           3931 ;	LCD.c:503: delay(10,0);
   1B1A 90 02 D2           3932 	mov	dptr,#_delay_PARM_2
   1B1D E4                 3933 	clr	a
   1B1E F0                 3934 	movx	@dptr,a
   1B1F 90 00 0A           3935 	mov	dptr,#0x000A
   1B22 C0 02              3936 	push	ar2
   1B24 C0 03              3937 	push	ar3
   1B26 C0 04              3938 	push	ar4
   1B28 12 22 33           3939 	lcall	_delay
   1B2B D0 04              3940 	pop	ar4
   1B2D D0 03              3941 	pop	ar3
   1B2F D0 02              3942 	pop	ar2
                           3943 ;	LCD.c:501: for(n = 0; n < 8 ;n++){
   1B31 0C                 3944 	inc	r4
   1B32 80 CC              3945 	sjmp	00105$
   1B34                    3946 00111$:
                           3947 ;	LCD.c:500: for(m = 0;m< 8; m++){
   1B34 0A                 3948 	inc	r2
   1B35 80 BC              3949 	sjmp	00109$
   1B37                    3950 00112$:
                           3951 ;	LCD.c:507: map[0][0].schar = 2;
   1B37 90 00 E0           3952 	mov	dptr,#_map
   1B3A 74 02              3953 	mov	a,#0x02
   1B3C F0                 3954 	movx	@dptr,a
                           3955 ;	LCD.c:508: map[0][1].schar = 3;
   1B3D 90 00 E1           3956 	mov	dptr,#(_map + 0x0001)
   1B40 74 03              3957 	mov	a,#0x03
   1B42 F0                 3958 	movx	@dptr,a
                           3959 ;	LCD.c:509: map[0][2].schar = 3;
   1B43 90 00 E2           3960 	mov	dptr,#(_map + 0x0002)
   1B46 74 03              3961 	mov	a,#0x03
   1B48 F0                 3962 	movx	@dptr,a
                           3963 ;	LCD.c:510: map[0][3].schar = 2;
   1B49 90 00 E3           3964 	mov	dptr,#(_map + 0x0003)
   1B4C 74 02              3965 	mov	a,#0x02
   1B4E F0                 3966 	movx	@dptr,a
                           3967 ;	LCD.c:511: map[0][4].schar = 3;
   1B4F 90 00 E4           3968 	mov	dptr,#(_map + 0x0004)
   1B52 74 03              3969 	mov	a,#0x03
   1B54 F0                 3970 	movx	@dptr,a
                           3971 ;	LCD.c:512: map[0][5].schar = 3;
   1B55 90 00 E5           3972 	mov	dptr,#(_map + 0x0005)
   1B58 74 03              3973 	mov	a,#0x03
   1B5A F0                 3974 	movx	@dptr,a
                           3975 ;	LCD.c:513: map[0][6].schar = 2;
   1B5B 90 00 E6           3976 	mov	dptr,#(_map + 0x0006)
   1B5E 74 02              3977 	mov	a,#0x02
   1B60 F0                 3978 	movx	@dptr,a
                           3979 ;	LCD.c:514: map[0][7].schar = 7;
   1B61 90 00 E7           3980 	mov	dptr,#(_map + 0x0007)
   1B64 74 07              3981 	mov	a,#0x07
   1B66 F0                 3982 	movx	@dptr,a
                           3983 ;	LCD.c:515: map[0][8].schar = 7;
   1B67 90 00 E8           3984 	mov	dptr,#(_map + 0x0008)
   1B6A 74 07              3985 	mov	a,#0x07
   1B6C F0                 3986 	movx	@dptr,a
                           3987 ;	LCD.c:516: map[0][9].schar = 2;
   1B6D 90 00 E9           3988 	mov	dptr,#(_map + 0x0009)
   1B70 74 02              3989 	mov	a,#0x02
   1B72 F0                 3990 	movx	@dptr,a
                           3991 ;	LCD.c:517: map[0][10].schar = 7;
   1B73 90 00 EA           3992 	mov	dptr,#(_map + 0x000a)
   1B76 74 07              3993 	mov	a,#0x07
   1B78 F0                 3994 	movx	@dptr,a
                           3995 ;	LCD.c:518: map[0][11].schar = 8;
   1B79 90 00 EB           3996 	mov	dptr,#(_map + 0x000b)
   1B7C 74 08              3997 	mov	a,#0x08
   1B7E F0                 3998 	movx	@dptr,a
                           3999 ;	LCD.c:519: map[0][12].schar = 8;
   1B7F 90 00 EC           4000 	mov	dptr,#(_map + 0x000c)
   1B82 74 08              4001 	mov	a,#0x08
   1B84 F0                 4002 	movx	@dptr,a
                           4003 ;	LCD.c:520: map[0][13].schar = 4;
   1B85 90 00 ED           4004 	mov	dptr,#(_map + 0x000d)
   1B88 74 04              4005 	mov	a,#0x04
   1B8A F0                 4006 	movx	@dptr,a
                           4007 ;	LCD.c:521: map[0][14].schar = 8;
   1B8B 90 00 EE           4008 	mov	dptr,#(_map + 0x000e)
   1B8E 74 08              4009 	mov	a,#0x08
   1B90 F0                 4010 	movx	@dptr,a
                           4011 ;	LCD.c:522: map[0][15].schar = 2;
   1B91 90 00 EF           4012 	mov	dptr,#(_map + 0x000f)
   1B94 74 02              4013 	mov	a,#0x02
   1B96 F0                 4014 	movx	@dptr,a
                           4015 ;	LCD.c:524: map[1][0].schar = 6;
   1B97 90 00 F0           4016 	mov	dptr,#(_map + 0x0010)
   1B9A 74 06              4017 	mov	a,#0x06
   1B9C F0                 4018 	movx	@dptr,a
                           4019 ;	LCD.c:525: map[1][1].schar = 5;
   1B9D 90 00 F1           4020 	mov	dptr,#(_map + 0x0011)
   1BA0 74 05              4021 	mov	a,#0x05
   1BA2 F0                 4022 	movx	@dptr,a
                           4023 ;	LCD.c:526: map[1][2].schar = 6;
   1BA3 90 00 F2           4024 	mov	dptr,#(_map + 0x0012)
   1BA6 74 06              4025 	mov	a,#0x06
   1BA8 F0                 4026 	movx	@dptr,a
                           4027 ;	LCD.c:527: map[1][3].schar = 4;
   1BA9 90 00 F3           4028 	mov	dptr,#(_map + 0x0013)
   1BAC 74 04              4029 	mov	a,#0x04
   1BAE F0                 4030 	movx	@dptr,a
                           4031 ;	LCD.c:528: map[1][4].schar = 5;
   1BAF 90 00 F4           4032 	mov	dptr,#(_map + 0x0014)
   1BB2 74 05              4033 	mov	a,#0x05
   1BB4 F0                 4034 	movx	@dptr,a
                           4035 ;	LCD.c:529: map[1][5].schar = 4;
   1BB5 90 00 F5           4036 	mov	dptr,#(_map + 0x0015)
   1BB8 74 04              4037 	mov	a,#0x04
   1BBA F0                 4038 	movx	@dptr,a
                           4039 ;	LCD.c:530: map[1][6].schar = 4;
   1BBB 90 00 F6           4040 	mov	dptr,#(_map + 0x0016)
   1BBE 74 04              4041 	mov	a,#0x04
   1BC0 F0                 4042 	movx	@dptr,a
                           4043 ;	LCD.c:531: map[1][7].schar = 4;
   1BC1 90 00 F7           4044 	mov	dptr,#(_map + 0x0017)
   1BC4 74 04              4045 	mov	a,#0x04
   1BC6 F0                 4046 	movx	@dptr,a
                           4047 ;	LCD.c:532: map[1][8].schar = 3;
   1BC7 90 00 F8           4048 	mov	dptr,#(_map + 0x0018)
   1BCA 74 03              4049 	mov	a,#0x03
   1BCC F0                 4050 	movx	@dptr,a
                           4051 ;	LCD.c:533: map[1][9].schar = 6;
   1BCD 90 00 F9           4052 	mov	dptr,#(_map + 0x0019)
   1BD0 74 06              4053 	mov	a,#0x06
   1BD2 F0                 4054 	movx	@dptr,a
                           4055 ;	LCD.c:534: map[1][10].schar = 4;
   1BD3 90 00 FA           4056 	mov	dptr,#(_map + 0x001a)
   1BD6 74 04              4057 	mov	a,#0x04
   1BD8 F0                 4058 	movx	@dptr,a
                           4059 ;	LCD.c:535: map[1][11].schar = 6;
   1BD9 90 00 FB           4060 	mov	dptr,#(_map + 0x001b)
   1BDC 74 06              4061 	mov	a,#0x06
   1BDE F0                 4062 	movx	@dptr,a
                           4063 ;	LCD.c:536: map[1][12].schar = 5;
   1BDF 90 00 FC           4064 	mov	dptr,#(_map + 0x001c)
   1BE2 74 05              4065 	mov	a,#0x05
   1BE4 F0                 4066 	movx	@dptr,a
                           4067 ;	LCD.c:537: map[1][13].schar = 3;
   1BE5 90 00 FD           4068 	mov	dptr,#(_map + 0x001d)
   1BE8 74 03              4069 	mov	a,#0x03
   1BEA F0                 4070 	movx	@dptr,a
                           4071 ;	LCD.c:538: map[1][14].schar = 4;
   1BEB 90 00 FE           4072 	mov	dptr,#(_map + 0x001e)
   1BEE 74 04              4073 	mov	a,#0x04
   1BF0 F0                 4074 	movx	@dptr,a
                           4075 ;	LCD.c:539: map[1][15].schar = 7;
   1BF1 90 00 FF           4076 	mov	dptr,#(_map + 0x001f)
   1BF4 74 07              4077 	mov	a,#0x07
   1BF6 F0                 4078 	movx	@dptr,a
                           4079 ;	LCD.c:541: map[2][0].schar = 6;
   1BF7 90 01 00           4080 	mov	dptr,#(_map + 0x0020)
   1BFA 74 06              4081 	mov	a,#0x06
   1BFC F0                 4082 	movx	@dptr,a
                           4083 ;	LCD.c:542: map[2][1].schar = 4;
   1BFD 90 01 01           4084 	mov	dptr,#(_map + 0x0021)
   1C00 74 04              4085 	mov	a,#0x04
   1C02 F0                 4086 	movx	@dptr,a
                           4087 ;	LCD.c:543: map[2][2].schar = 5;
   1C03 90 01 02           4088 	mov	dptr,#(_map + 0x0022)
   1C06 74 05              4089 	mov	a,#0x05
   1C08 F0                 4090 	movx	@dptr,a
                           4091 ;	LCD.c:544: map[2][3].schar = 6;
   1C09 90 01 03           4092 	mov	dptr,#(_map + 0x0023)
   1C0C 74 06              4093 	mov	a,#0x06
   1C0E F0                 4094 	movx	@dptr,a
                           4095 ;	LCD.c:545: map[2][4].schar = 4;
   1C0F 90 01 04           4096 	mov	dptr,#(_map + 0x0024)
   1C12 74 04              4097 	mov	a,#0x04
   1C14 F0                 4098 	movx	@dptr,a
                           4099 ;	LCD.c:546: map[2][5].schar = 5;
   1C15 90 01 05           4100 	mov	dptr,#(_map + 0x0025)
   1C18 74 05              4101 	mov	a,#0x05
   1C1A F0                 4102 	movx	@dptr,a
                           4103 ;	LCD.c:547: map[2][6].schar = 5;
   1C1B 90 01 06           4104 	mov	dptr,#(_map + 0x0026)
   1C1E 74 05              4105 	mov	a,#0x05
   1C20 F0                 4106 	movx	@dptr,a
                           4107 ;	LCD.c:548: map[2][7].schar = 7;
   1C21 90 01 07           4108 	mov	dptr,#(_map + 0x0027)
   1C24 74 07              4109 	mov	a,#0x07
   1C26 F0                 4110 	movx	@dptr,a
                           4111 ;	LCD.c:549: map[2][8].schar = 6;
   1C27 90 01 08           4112 	mov	dptr,#(_map + 0x0028)
   1C2A 74 06              4113 	mov	a,#0x06
   1C2C F0                 4114 	movx	@dptr,a
                           4115 ;	LCD.c:550: map[2][9].schar = 4;
   1C2D 90 01 09           4116 	mov	dptr,#(_map + 0x0029)
   1C30 74 04              4117 	mov	a,#0x04
   1C32 F0                 4118 	movx	@dptr,a
                           4119 ;	LCD.c:551: map[2][10].schar = 6;
   1C33 90 01 0A           4120 	mov	dptr,#(_map + 0x002a)
   1C36 74 06              4121 	mov	a,#0x06
   1C38 F0                 4122 	movx	@dptr,a
                           4123 ;	LCD.c:552: map[2][11].schar = 4;
   1C39 90 01 0B           4124 	mov	dptr,#(_map + 0x002b)
   1C3C 74 04              4125 	mov	a,#0x04
   1C3E F0                 4126 	movx	@dptr,a
                           4127 ;	LCD.c:553: map[2][12].schar = 3;
   1C3F 90 01 0C           4128 	mov	dptr,#(_map + 0x002c)
   1C42 74 03              4129 	mov	a,#0x03
   1C44 F0                 4130 	movx	@dptr,a
                           4131 ;	LCD.c:554: map[2][13].schar = 5;
   1C45 90 01 0D           4132 	mov	dptr,#(_map + 0x002d)
   1C48 74 05              4133 	mov	a,#0x05
   1C4A F0                 4134 	movx	@dptr,a
                           4135 ;	LCD.c:555: map[2][14].schar = 3;
   1C4B 90 01 0E           4136 	mov	dptr,#(_map + 0x002e)
   1C4E 74 03              4137 	mov	a,#0x03
   1C50 F0                 4138 	movx	@dptr,a
                           4139 ;	LCD.c:556: map[2][15].schar = 8;
   1C51 90 01 0F           4140 	mov	dptr,#(_map + 0x002f)
   1C54 74 08              4141 	mov	a,#0x08
   1C56 F0                 4142 	movx	@dptr,a
                           4143 ;	LCD.c:558: map[3][0].schar = 7;
   1C57 90 01 10           4144 	mov	dptr,#(_map + 0x0030)
   1C5A 74 07              4145 	mov	a,#0x07
   1C5C F0                 4146 	movx	@dptr,a
                           4147 ;	LCD.c:559: map[3][1].schar = 6;
   1C5D 90 01 11           4148 	mov	dptr,#(_map + 0x0031)
   1C60 74 06              4149 	mov	a,#0x06
   1C62 F0                 4150 	movx	@dptr,a
                           4151 ;	LCD.c:560: map[3][2].schar = 7;
   1C63 90 01 12           4152 	mov	dptr,#(_map + 0x0032)
   1C66 74 07              4153 	mov	a,#0x07
   1C68 F0                 4154 	movx	@dptr,a
                           4155 ;	LCD.c:561: map[3][3].schar = 3;
   1C69 90 01 13           4156 	mov	dptr,#(_map + 0x0033)
   1C6C 74 03              4157 	mov	a,#0x03
   1C6E F0                 4158 	movx	@dptr,a
                           4159 ;	LCD.c:562: map[3][4].schar = 5;
   1C6F 90 01 14           4160 	mov	dptr,#(_map + 0x0034)
   1C72 74 05              4161 	mov	a,#0x05
   1C74 F0                 4162 	movx	@dptr,a
                           4163 ;	LCD.c:563: map[3][5].schar = 8;
   1C75 90 01 15           4164 	mov	dptr,#(_map + 0x0035)
   1C78 74 08              4165 	mov	a,#0x08
   1C7A F0                 4166 	movx	@dptr,a
                           4167 ;	LCD.c:564: map[3][6].schar = 7;
   1C7B 90 01 16           4168 	mov	dptr,#(_map + 0x0036)
   1C7E 74 07              4169 	mov	a,#0x07
   1C80 F0                 4170 	movx	@dptr,a
                           4171 ;	LCD.c:565: map[3][7].schar = 7;
   1C81 90 01 17           4172 	mov	dptr,#(_map + 0x0037)
   1C84 74 07              4173 	mov	a,#0x07
   1C86 F0                 4174 	movx	@dptr,a
                           4175 ;	LCD.c:566: map[3][8].schar = 8;
   1C87 90 01 18           4176 	mov	dptr,#(_map + 0x0038)
   1C8A 74 08              4177 	mov	a,#0x08
   1C8C F0                 4178 	movx	@dptr,a
                           4179 ;	LCD.c:567: map[3][9].schar = 6;
   1C8D 90 01 19           4180 	mov	dptr,#(_map + 0x0039)
   1C90 74 06              4181 	mov	a,#0x06
   1C92 F0                 4182 	movx	@dptr,a
                           4183 ;	LCD.c:568: map[3][10].schar = 7;
   1C93 90 01 1A           4184 	mov	dptr,#(_map + 0x003a)
   1C96 74 07              4185 	mov	a,#0x07
   1C98 F0                 4186 	movx	@dptr,a
                           4187 ;	LCD.c:569: map[3][11].schar = 8;
   1C99 90 01 1B           4188 	mov	dptr,#(_map + 0x003b)
   1C9C 74 08              4189 	mov	a,#0x08
   1C9E F0                 4190 	movx	@dptr,a
                           4191 ;	LCD.c:570: map[3][12].schar = 6;
   1C9F 90 01 1C           4192 	mov	dptr,#(_map + 0x003c)
   1CA2 74 06              4193 	mov	a,#0x06
   1CA4 F0                 4194 	movx	@dptr,a
                           4195 ;	LCD.c:571: map[3][13].schar = 7;
   1CA5 90 01 1D           4196 	mov	dptr,#(_map + 0x003d)
   1CA8 74 07              4197 	mov	a,#0x07
   1CAA F0                 4198 	movx	@dptr,a
                           4199 ;	LCD.c:572: map[3][14].schar = 5;
   1CAB 90 01 1E           4200 	mov	dptr,#(_map + 0x003e)
   1CAE 74 05              4201 	mov	a,#0x05
   1CB0 F0                 4202 	movx	@dptr,a
                           4203 ;	LCD.c:573: map[3][15].schar = 8;
   1CB1 90 01 1F           4204 	mov	dptr,#(_map + 0x003f)
   1CB4 74 08              4205 	mov	a,#0x08
   1CB6 F0                 4206 	movx	@dptr,a
                           4207 ;	LCD.c:575: printMap();
   1CB7 02 07 D5           4208 	ljmp	_printMap
                           4209 ;------------------------------------------------------------
                           4210 ;Allocation info for local variables in function 'configMap'
                           4211 ;------------------------------------------------------------
                           4212 ;pcol                      Allocated with name '_configMap_PARM_2'
                           4213 ;pline                     Allocated with name '_configMap_pline_1_1'
                           4214 ;control                   Allocated with name '_configMap_control_1_1'
                           4215 ;------------------------------------------------------------
                           4216 ;	LCD.c:579: unsigned char configMap(unsigned char pline, unsigned char pcol){
                           4217 ;	-----------------------------------------
                           4218 ;	 function configMap
                           4219 ;	-----------------------------------------
   1CBA                    4220 _configMap:
   1CBA E5 82              4221 	mov	a,dpl
   1CBC 90 02 6E           4222 	mov	dptr,#_configMap_pline_1_1
   1CBF F0                 4223 	movx	@dptr,a
                           4224 ;	LCD.c:581: unsigned char control = serialControl(SCmap, map);
   1CC0 90 03 7D           4225 	mov	dptr,#_serialControl_PARM_2
   1CC3 74 E0              4226 	mov	a,#_map
   1CC5 F0                 4227 	movx	@dptr,a
   1CC6 A3                 4228 	inc	dptr
   1CC7 74 00              4229 	mov	a,#(_map >> 8)
   1CC9 F0                 4230 	movx	@dptr,a
   1CCA A3                 4231 	inc	dptr
   1CCB E4                 4232 	clr	a
   1CCC F0                 4233 	movx	@dptr,a
   1CCD 90 00 A0           4234 	mov	dptr,#_SCmap
   1CD0 75 F0 00           4235 	mov	b,#0x00
   1CD3 12 27 50           4236 	lcall	_serialControl
   1CD6 AA 82              4237 	mov	r2,dpl
                           4238 ;	LCD.c:583: sing(3);
   1CD8 75 82 03           4239 	mov	dpl,#0x03
   1CDB C0 02              4240 	push	ar2
   1CDD 12 24 BA           4241 	lcall	_sing
                           4242 ;	LCD.c:584: setCursorAt(pline, pcol);
   1CE0 90 02 6E           4243 	mov	dptr,#_configMap_pline_1_1
   1CE3 E0                 4244 	movx	a,@dptr
   1CE4 FB                 4245 	mov	r3,a
   1CE5 90 02 6D           4246 	mov	dptr,#_configMap_PARM_2
   1CE8 E0                 4247 	movx	a,@dptr
   1CE9 FC                 4248 	mov	r4,a
   1CEA 90 01 27           4249 	mov	dptr,#_setCursorAt_PARM_2
   1CED F0                 4250 	movx	@dptr,a
   1CEE 8B 82              4251 	mov	dpl,r3
   1CF0 C0 03              4252 	push	ar3
   1CF2 C0 04              4253 	push	ar4
   1CF4 12 07 26           4254 	lcall	_setCursorAt
   1CF7 D0 04              4255 	pop	ar4
   1CF9 D0 03              4256 	pop	ar3
                           4257 ;	LCD.c:585: setChar((map[pline-1][pcol-1].schar) - 1);
   1CFB 1B                 4258 	dec	r3
   1CFC EB                 4259 	mov	a,r3
   1CFD C4                 4260 	swap	a
   1CFE 54 F0              4261 	anl	a,#0xf0
   1D00 24 E0              4262 	add	a,#_map
   1D02 FB                 4263 	mov	r3,a
   1D03 E4                 4264 	clr	a
   1D04 34 00              4265 	addc	a,#(_map >> 8)
   1D06 FD                 4266 	mov	r5,a
   1D07 EC                 4267 	mov	a,r4
   1D08 14                 4268 	dec	a
   1D09 2B                 4269 	add	a,r3
   1D0A F5 82              4270 	mov	dpl,a
   1D0C E4                 4271 	clr	a
   1D0D 3D                 4272 	addc	a,r5
   1D0E F5 83              4273 	mov	dph,a
   1D10 E0                 4274 	movx	a,@dptr
   1D11 FB                 4275 	mov	r3,a
   1D12 1B                 4276 	dec	r3
   1D13 8B 82              4277 	mov	dpl,r3
   1D15 12 07 7E           4278 	lcall	_setChar
                           4279 ;	LCD.c:587: delay(100,0);
   1D18 90 02 D2           4280 	mov	dptr,#_delay_PARM_2
   1D1B E4                 4281 	clr	a
   1D1C F0                 4282 	movx	@dptr,a
   1D1D 90 00 64           4283 	mov	dptr,#0x0064
   1D20 12 22 33           4284 	lcall	_delay
   1D23 D0 02              4285 	pop	ar2
                           4286 ;	LCD.c:589: return control;
   1D25 8A 82              4287 	mov	dpl,r2
   1D27 22                 4288 	ret
                           4289 ;------------------------------------------------------------
                           4290 ;Allocation info for local variables in function 'setCursorHomeAtLine'
                           4291 ;------------------------------------------------------------
                           4292 ;line                      Allocated with name '_setCursorHomeAtLine_line_1_1'
                           4293 ;------------------------------------------------------------
                           4294 ;	LCD.c:594: void setCursorHomeAtLine(unsigned char line){
                           4295 ;	-----------------------------------------
                           4296 ;	 function setCursorHomeAtLine
                           4297 ;	-----------------------------------------
   1D28                    4298 _setCursorHomeAtLine:
   1D28 E5 82              4299 	mov	a,dpl
   1D2A 90 02 6F           4300 	mov	dptr,#_setCursorHomeAtLine_line_1_1
   1D2D F0                 4301 	movx	@dptr,a
                           4302 ;	LCD.c:595: if(line == 1)
   1D2E 90 02 6F           4303 	mov	dptr,#_setCursorHomeAtLine_line_1_1
   1D31 E0                 4304 	movx	a,@dptr
   1D32 FA                 4305 	mov	r2,a
   1D33 BA 01 08           4306 	cjne	r2,#0x01,00110$
                           4307 ;	LCD.c:596: winstLCD = cursorHomeL1;
   1D36 90 FF C2           4308 	mov	dptr,#_winstLCD
   1D39 74 80              4309 	mov	a,#0x80
   1D3B F0                 4310 	movx	@dptr,a
   1D3C 80 1F              4311 	sjmp	00111$
   1D3E                    4312 00110$:
                           4313 ;	LCD.c:597: else if(line == 2)
   1D3E BA 02 08           4314 	cjne	r2,#0x02,00107$
                           4315 ;	LCD.c:598: winstLCD = cursorHomeL2;
   1D41 90 FF C2           4316 	mov	dptr,#_winstLCD
   1D44 74 C0              4317 	mov	a,#0xC0
   1D46 F0                 4318 	movx	@dptr,a
   1D47 80 14              4319 	sjmp	00111$
   1D49                    4320 00107$:
                           4321 ;	LCD.c:599: else if(line == 3)
   1D49 BA 03 08           4322 	cjne	r2,#0x03,00104$
                           4323 ;	LCD.c:600: winstLCD = cursorHomeL3;
   1D4C 90 FF C2           4324 	mov	dptr,#_winstLCD
   1D4F 74 90              4325 	mov	a,#0x90
   1D51 F0                 4326 	movx	@dptr,a
   1D52 80 09              4327 	sjmp	00111$
   1D54                    4328 00104$:
                           4329 ;	LCD.c:601: else if(line == 4)
   1D54 BA 04 06           4330 	cjne	r2,#0x04,00111$
                           4331 ;	LCD.c:602: winstLCD = cursorHomeL4;
   1D57 90 FF C2           4332 	mov	dptr,#_winstLCD
   1D5A 74 D0              4333 	mov	a,#0xD0
   1D5C F0                 4334 	movx	@dptr,a
   1D5D                    4335 00111$:
                           4336 ;	LCD.c:604: delay(10,0);
   1D5D 90 02 D2           4337 	mov	dptr,#_delay_PARM_2
   1D60 E4                 4338 	clr	a
   1D61 F0                 4339 	movx	@dptr,a
   1D62 90 00 0A           4340 	mov	dptr,#0x000A
   1D65 02 22 33           4341 	ljmp	_delay
                           4342 ;------------------------------------------------------------
                           4343 ;Allocation info for local variables in function 'setPlayerCursor'
                           4344 ;------------------------------------------------------------
                           4345 ;pcol                      Allocated with name '_setPlayerCursor_PARM_2'
                           4346 ;sline                     Allocated with name '_setPlayerCursor_PARM_3'
                           4347 ;scol                      Allocated with name '_setPlayerCursor_PARM_4'
                           4348 ;pline                     Allocated with name '_setPlayerCursor_pline_1_1'
                           4349 ;n                         Allocated with name '_setPlayerCursor_n_1_1'
                           4350 ;------------------------------------------------------------
                           4351 ;	LCD.c:609: void setPlayerCursor(unsigned char pline, unsigned char pcol, unsigned char sline, unsigned char scol){
                           4352 ;	-----------------------------------------
                           4353 ;	 function setPlayerCursor
                           4354 ;	-----------------------------------------
   1D68                    4355 _setPlayerCursor:
   1D68 E5 82              4356 	mov	a,dpl
   1D6A 90 02 73           4357 	mov	dptr,#_setPlayerCursor_pline_1_1
   1D6D F0                 4358 	movx	@dptr,a
                           4359 ;	LCD.c:613: for(n = 0; n < 8 ;n++)
   1D6E 90 02 73           4360 	mov	dptr,#_setPlayerCursor_pline_1_1
   1D71 E0                 4361 	movx	a,@dptr
   1D72 FA                 4362 	mov	r2,a
   1D73 1A                 4363 	dec	r2
   1D74 EA                 4364 	mov	a,r2
   1D75 C4                 4365 	swap	a
   1D76 54 F0              4366 	anl	a,#0xf0
   1D78 24 E0              4367 	add	a,#_map
   1D7A FA                 4368 	mov	r2,a
   1D7B E4                 4369 	clr	a
   1D7C 34 00              4370 	addc	a,#(_map >> 8)
   1D7E FB                 4371 	mov	r3,a
   1D7F 90 02 70           4372 	mov	dptr,#_setPlayerCursor_PARM_2
   1D82 E0                 4373 	movx	a,@dptr
   1D83 14                 4374 	dec	a
   1D84 2A                 4375 	add	a,r2
   1D85 FA                 4376 	mov	r2,a
   1D86 E4                 4377 	clr	a
   1D87 3B                 4378 	addc	a,r3
   1D88 FB                 4379 	mov	r3,a
   1D89 7C 00              4380 	mov	r4,#0x00
   1D8B                    4381 00101$:
   1D8B BC 08 00           4382 	cjne	r4,#0x08,00117$
   1D8E                    4383 00117$:
   1D8E 50 2D              4384 	jnc	00104$
                           4385 ;	LCD.c:614: point.adds[n]= SCmap[map[pline-1][pcol-1].schar-1].adds[n];
   1D90 EC                 4386 	mov	a,r4
   1D91 24 98              4387 	add	a,#_point
   1D93 FD                 4388 	mov	r5,a
   1D94 E4                 4389 	clr	a
   1D95 34 00              4390 	addc	a,#(_point >> 8)
   1D97 FE                 4391 	mov	r6,a
   1D98 8A 82              4392 	mov	dpl,r2
   1D9A 8B 83              4393 	mov	dph,r3
   1D9C E0                 4394 	movx	a,@dptr
   1D9D FF                 4395 	mov	r7,a
   1D9E 1F                 4396 	dec	r7
   1D9F EF                 4397 	mov	a,r7
   1DA0 C4                 4398 	swap	a
   1DA1 03                 4399 	rr	a
   1DA2 54 F8              4400 	anl	a,#0xf8
   1DA4 24 A0              4401 	add	a,#_SCmap
   1DA6 FF                 4402 	mov	r7,a
   1DA7 E4                 4403 	clr	a
   1DA8 34 00              4404 	addc	a,#(_SCmap >> 8)
   1DAA F8                 4405 	mov	r0,a
   1DAB EC                 4406 	mov	a,r4
   1DAC 2F                 4407 	add	a,r7
   1DAD F5 82              4408 	mov	dpl,a
   1DAF E4                 4409 	clr	a
   1DB0 38                 4410 	addc	a,r0
   1DB1 F5 83              4411 	mov	dph,a
   1DB3 E0                 4412 	movx	a,@dptr
   1DB4 FF                 4413 	mov	r7,a
   1DB5 8D 82              4414 	mov	dpl,r5
   1DB7 8E 83              4415 	mov	dph,r6
   1DB9 F0                 4416 	movx	@dptr,a
                           4417 ;	LCD.c:613: for(n = 0; n < 8 ;n++)
   1DBA 0C                 4418 	inc	r4
   1DBB 80 CE              4419 	sjmp	00101$
   1DBD                    4420 00104$:
                           4421 ;	LCD.c:616: point.adds[sline-1] += pow(2,5-scol);
   1DBD 90 02 71           4422 	mov	dptr,#_setPlayerCursor_PARM_3
   1DC0 E0                 4423 	movx	a,@dptr
   1DC1 14                 4424 	dec	a
   1DC2 24 98              4425 	add	a,#_point
   1DC4 FA                 4426 	mov	r2,a
   1DC5 E4                 4427 	clr	a
   1DC6 34 00              4428 	addc	a,#(_point >> 8)
   1DC8 FB                 4429 	mov	r3,a
   1DC9 8A 04              4430 	mov	ar4,r2
   1DCB 8B 05              4431 	mov	ar5,r3
   1DCD 90 02 72           4432 	mov	dptr,#_setPlayerCursor_PARM_4
   1DD0 E0                 4433 	movx	a,@dptr
   1DD1 FE                 4434 	mov	r6,a
   1DD2 90 03 84           4435 	mov	dptr,#_pow_PARM_2
   1DD5 74 05              4436 	mov	a,#0x05
   1DD7 C3                 4437 	clr	c
   1DD8 9E                 4438 	subb	a,r6
   1DD9 F0                 4439 	movx	@dptr,a
   1DDA 75 82 02           4440 	mov	dpl,#0x02
   1DDD C0 02              4441 	push	ar2
   1DDF C0 03              4442 	push	ar3
   1DE1 C0 04              4443 	push	ar4
   1DE3 C0 05              4444 	push	ar5
   1DE5 12 32 07           4445 	lcall	_pow
   1DE8 AE 82              4446 	mov	r6,dpl
   1DEA D0 05              4447 	pop	ar5
   1DEC D0 04              4448 	pop	ar4
   1DEE D0 03              4449 	pop	ar3
   1DF0 D0 02              4450 	pop	ar2
   1DF2 8C 82              4451 	mov	dpl,r4
   1DF4 8D 83              4452 	mov	dph,r5
   1DF6 E0                 4453 	movx	a,@dptr
   1DF7 2E                 4454 	add	a,r6
   1DF8 8A 82              4455 	mov	dpl,r2
   1DFA 8B 83              4456 	mov	dph,r3
   1DFC F0                 4457 	movx	@dptr,a
                           4458 ;	LCD.c:618: winstLCD = 0x40;    				 // Atribuindo primeiro endereo da CGRAM
   1DFD 90 FF C2           4459 	mov	dptr,#_winstLCD
   1E00 74 40              4460 	mov	a,#0x40
   1E02 F0                 4461 	movx	@dptr,a
                           4462 ;	LCD.c:619: delay(10,0);
   1E03 90 02 D2           4463 	mov	dptr,#_delay_PARM_2
   1E06 E4                 4464 	clr	a
   1E07 F0                 4465 	movx	@dptr,a
   1E08 90 00 0A           4466 	mov	dptr,#0x000A
   1E0B 12 22 33           4467 	lcall	_delay
                           4468 ;	LCD.c:622: for(n = 0; n < 8 ;n++){
   1E0E 7A 00              4469 	mov	r2,#0x00
   1E10                    4470 00105$:
   1E10 BA 08 00           4471 	cjne	r2,#0x08,00119$
   1E13                    4472 00119$:
   1E13 50 21              4473 	jnc	00109$
                           4474 ;	LCD.c:623: wdataLCD = point.adds[n];                // Atribuindo escrita
   1E15 EA                 4475 	mov	a,r2
   1E16 24 98              4476 	add	a,#_point
   1E18 F5 82              4477 	mov	dpl,a
   1E1A E4                 4478 	clr	a
   1E1B 34 00              4479 	addc	a,#(_point >> 8)
   1E1D F5 83              4480 	mov	dph,a
   1E1F E0                 4481 	movx	a,@dptr
   1E20 90 FF D2           4482 	mov	dptr,#_wdataLCD
   1E23 F0                 4483 	movx	@dptr,a
                           4484 ;	LCD.c:624: delay(10,0);
   1E24 90 02 D2           4485 	mov	dptr,#_delay_PARM_2
   1E27 E4                 4486 	clr	a
   1E28 F0                 4487 	movx	@dptr,a
   1E29 90 00 0A           4488 	mov	dptr,#0x000A
   1E2C C0 02              4489 	push	ar2
   1E2E 12 22 33           4490 	lcall	_delay
   1E31 D0 02              4491 	pop	ar2
                           4492 ;	LCD.c:622: for(n = 0; n < 8 ;n++){
   1E33 0A                 4493 	inc	r2
   1E34 80 DA              4494 	sjmp	00105$
   1E36                    4495 00109$:
   1E36 22                 4496 	ret
                           4497 ;------------------------------------------------------------
                           4498 ;Allocation info for local variables in function 'clearLCD'
                           4499 ;------------------------------------------------------------
                           4500 ;------------------------------------------------------------
                           4501 ;	LCD.c:628: void clearLCD(){
                           4502 ;	-----------------------------------------
                           4503 ;	 function clearLCD
                           4504 ;	-----------------------------------------
   1E37                    4505 _clearLCD:
                           4506 ;	LCD.c:629: winstLCD = clearDisp;						// Atribuindo instrucao
   1E37 90 FF C2           4507 	mov	dptr,#_winstLCD
   1E3A 74 01              4508 	mov	a,#0x01
   1E3C F0                 4509 	movx	@dptr,a
                           4510 ;	LCD.c:630: delay(10,0);								// Delay 10 microsegundos
   1E3D 90 02 D2           4511 	mov	dptr,#_delay_PARM_2
   1E40 E4                 4512 	clr	a
   1E41 F0                 4513 	movx	@dptr,a
   1E42 90 00 0A           4514 	mov	dptr,#0x000A
   1E45 12 22 33           4515 	lcall	_delay
                           4516 ;	LCD.c:631: winstLCD = configFunc;						// Atribuindo instrucao
   1E48 90 FF C2           4517 	mov	dptr,#_winstLCD
   1E4B 74 3F              4518 	mov	a,#0x3F
   1E4D F0                 4519 	movx	@dptr,a
                           4520 ;	LCD.c:632: delay(10,0);
   1E4E 90 02 D2           4521 	mov	dptr,#_delay_PARM_2
   1E51 E4                 4522 	clr	a
   1E52 F0                 4523 	movx	@dptr,a
   1E53 90 00 0A           4524 	mov	dptr,#0x000A
   1E56 12 22 33           4525 	lcall	_delay
                           4526 ;	LCD.c:633: winstLCD = entryModeShift;					// Atribuindo instrucao
   1E59 90 FF C2           4527 	mov	dptr,#_winstLCD
   1E5C 74 06              4528 	mov	a,#0x06
   1E5E F0                 4529 	movx	@dptr,a
                           4530 ;	LCD.c:634: delay(10,0);
   1E5F 90 02 D2           4531 	mov	dptr,#_delay_PARM_2
   1E62 E4                 4532 	clr	a
   1E63 F0                 4533 	movx	@dptr,a
   1E64 90 00 0A           4534 	mov	dptr,#0x000A
   1E67 12 22 33           4535 	lcall	_delay
                           4536 ;	LCD.c:635: winstLCD = onoffControl;					// Atribuindo instrucao
   1E6A 90 FF C2           4537 	mov	dptr,#_winstLCD
   1E6D 74 0C              4538 	mov	a,#0x0C
   1E6F F0                 4539 	movx	@dptr,a
                           4540 ;	LCD.c:636: delay(10,0);
   1E70 90 02 D2           4541 	mov	dptr,#_delay_PARM_2
   1E73 E4                 4542 	clr	a
   1E74 F0                 4543 	movx	@dptr,a
   1E75 90 00 0A           4544 	mov	dptr,#0x000A
   1E78 02 22 33           4545 	ljmp	_delay
                           4546 ;------------------------------------------------------------
                           4547 ;Allocation info for local variables in function 'LCD_putTextAt'
                           4548 ;------------------------------------------------------------
                           4549 ;line                      Allocated with name '_LCD_putTextAt_PARM_2'
                           4550 ;alignment                 Allocated with name '_LCD_putTextAt_PARM_3'
                           4551 ;text                      Allocated with name '_LCD_putTextAt_text_1_1'
                           4552 ;n                         Allocated with name '_LCD_putTextAt_n_1_1'
                           4553 ;col                       Allocated with name '_LCD_putTextAt_col_1_1'
                           4554 ;size                      Allocated with name '_LCD_putTextAt_size_1_1'
                           4555 ;txt                       Allocated with name '_LCD_putTextAt_txt_1_1'
                           4556 ;------------------------------------------------------------
                           4557 ;	LCD.c:639: void LCD_putTextAt(char* text, unsigned char line, unsigned char alignment){
                           4558 ;	-----------------------------------------
                           4559 ;	 function LCD_putTextAt
                           4560 ;	-----------------------------------------
   1E7B                    4561 _LCD_putTextAt:
   1E7B AA F0              4562 	mov	r2,b
   1E7D AB 83              4563 	mov	r3,dph
   1E7F E5 82              4564 	mov	a,dpl
   1E81 90 02 76           4565 	mov	dptr,#_LCD_putTextAt_text_1_1
   1E84 F0                 4566 	movx	@dptr,a
   1E85 A3                 4567 	inc	dptr
   1E86 EB                 4568 	mov	a,r3
   1E87 F0                 4569 	movx	@dptr,a
   1E88 A3                 4570 	inc	dptr
   1E89 EA                 4571 	mov	a,r2
   1E8A F0                 4572 	movx	@dptr,a
                           4573 ;	LCD.c:641: unsigned char n, col = 0, size;
   1E8B 90 02 79           4574 	mov	dptr,#_LCD_putTextAt_col_1_1
                           4575 ;	LCD.c:642: char txt[17] = {0};
   1E8E E4                 4576 	clr	a
   1E8F F0                 4577 	movx	@dptr,a
   1E90 90 02 7A           4578 	mov	dptr,#_LCD_putTextAt_txt_1_1
   1E93 F0                 4579 	movx	@dptr,a
   1E94 90 02 7B           4580 	mov	dptr,#(_LCD_putTextAt_txt_1_1 + 0x0001)
   1E97 F0                 4581 	movx	@dptr,a
   1E98 90 02 7C           4582 	mov	dptr,#(_LCD_putTextAt_txt_1_1 + 0x0002)
   1E9B F0                 4583 	movx	@dptr,a
   1E9C 90 02 7D           4584 	mov	dptr,#(_LCD_putTextAt_txt_1_1 + 0x0003)
   1E9F E4                 4585 	clr	a
   1EA0 F0                 4586 	movx	@dptr,a
   1EA1 90 02 7E           4587 	mov	dptr,#(_LCD_putTextAt_txt_1_1 + 0x0004)
   1EA4 F0                 4588 	movx	@dptr,a
   1EA5 90 02 7F           4589 	mov	dptr,#(_LCD_putTextAt_txt_1_1 + 0x0005)
   1EA8 F0                 4590 	movx	@dptr,a
   1EA9 90 02 80           4591 	mov	dptr,#(_LCD_putTextAt_txt_1_1 + 0x0006)
   1EAC F0                 4592 	movx	@dptr,a
   1EAD 90 02 81           4593 	mov	dptr,#(_LCD_putTextAt_txt_1_1 + 0x0007)
   1EB0 E4                 4594 	clr	a
   1EB1 F0                 4595 	movx	@dptr,a
   1EB2 90 02 82           4596 	mov	dptr,#(_LCD_putTextAt_txt_1_1 + 0x0008)
   1EB5 F0                 4597 	movx	@dptr,a
   1EB6 90 02 83           4598 	mov	dptr,#(_LCD_putTextAt_txt_1_1 + 0x0009)
   1EB9 F0                 4599 	movx	@dptr,a
   1EBA 90 02 84           4600 	mov	dptr,#(_LCD_putTextAt_txt_1_1 + 0x000a)
   1EBD F0                 4601 	movx	@dptr,a
   1EBE 90 02 85           4602 	mov	dptr,#(_LCD_putTextAt_txt_1_1 + 0x000b)
   1EC1 E4                 4603 	clr	a
   1EC2 F0                 4604 	movx	@dptr,a
   1EC3 90 02 86           4605 	mov	dptr,#(_LCD_putTextAt_txt_1_1 + 0x000c)
   1EC6 F0                 4606 	movx	@dptr,a
   1EC7 90 02 87           4607 	mov	dptr,#(_LCD_putTextAt_txt_1_1 + 0x000d)
   1ECA F0                 4608 	movx	@dptr,a
   1ECB 90 02 88           4609 	mov	dptr,#(_LCD_putTextAt_txt_1_1 + 0x000e)
   1ECE F0                 4610 	movx	@dptr,a
   1ECF 90 02 89           4611 	mov	dptr,#(_LCD_putTextAt_txt_1_1 + 0x000f)
   1ED2 E4                 4612 	clr	a
   1ED3 F0                 4613 	movx	@dptr,a
   1ED4 90 02 8A           4614 	mov	dptr,#(_LCD_putTextAt_txt_1_1 + 0x0010)
   1ED7 F0                 4615 	movx	@dptr,a
                           4616 ;	LCD.c:644: for(n = 0;text[n] != '\0';n++)
   1ED8 90 02 76           4617 	mov	dptr,#_LCD_putTextAt_text_1_1
   1EDB E0                 4618 	movx	a,@dptr
   1EDC FA                 4619 	mov	r2,a
   1EDD A3                 4620 	inc	dptr
   1EDE E0                 4621 	movx	a,@dptr
   1EDF FB                 4622 	mov	r3,a
   1EE0 A3                 4623 	inc	dptr
   1EE1 E0                 4624 	movx	a,@dptr
   1EE2 FC                 4625 	mov	r4,a
   1EE3 7D 00              4626 	mov	r5,#0x00
   1EE5                    4627 00109$:
   1EE5 ED                 4628 	mov	a,r5
   1EE6 2A                 4629 	add	a,r2
   1EE7 FE                 4630 	mov	r6,a
   1EE8 E4                 4631 	clr	a
   1EE9 3B                 4632 	addc	a,r3
   1EEA FF                 4633 	mov	r7,a
   1EEB 8C 00              4634 	mov	ar0,r4
   1EED 8E 82              4635 	mov	dpl,r6
   1EEF 8F 83              4636 	mov	dph,r7
   1EF1 88 F0              4637 	mov	b,r0
   1EF3 12 34 33           4638 	lcall	__gptrget
   1EF6 FE                 4639 	mov	r6,a
   1EF7 60 0F              4640 	jz	00112$
                           4641 ;	LCD.c:645: txt[n] = text[n];
   1EF9 ED                 4642 	mov	a,r5
   1EFA 24 7A              4643 	add	a,#_LCD_putTextAt_txt_1_1
   1EFC F5 82              4644 	mov	dpl,a
   1EFE E4                 4645 	clr	a
   1EFF 34 02              4646 	addc	a,#(_LCD_putTextAt_txt_1_1 >> 8)
   1F01 F5 83              4647 	mov	dph,a
   1F03 EE                 4648 	mov	a,r6
   1F04 F0                 4649 	movx	@dptr,a
                           4650 ;	LCD.c:644: for(n = 0;text[n] != '\0';n++)
   1F05 0D                 4651 	inc	r5
   1F06 80 DD              4652 	sjmp	00109$
   1F08                    4653 00112$:
                           4654 ;	LCD.c:649: if (alignment == LEFT)
   1F08 90 02 75           4655 	mov	dptr,#_LCD_putTextAt_PARM_3
   1F0B E0                 4656 	movx	a,@dptr
   1F0C FA                 4657 	mov	r2,a
   1F0D BA 01 08           4658 	cjne	r2,#0x01,00107$
                           4659 ;	LCD.c:650: col = 1;
   1F10 90 02 79           4660 	mov	dptr,#_LCD_putTextAt_col_1_1
   1F13 74 01              4661 	mov	a,#0x01
   1F15 F0                 4662 	movx	@dptr,a
   1F16 80 3A              4663 	sjmp	00108$
   1F18                    4664 00107$:
                           4665 ;	LCD.c:651: else if(alignment == CENTER)
   1F18 BA 02 2C           4666 	cjne	r2,#0x02,00104$
                           4667 ;	LCD.c:652: col = (16-size)/2 + 1;
   1F1B 8D 03              4668 	mov	ar3,r5
   1F1D 7C 00              4669 	mov	r4,#0x00
   1F1F 74 10              4670 	mov	a,#0x10
   1F21 C3                 4671 	clr	c
   1F22 9B                 4672 	subb	a,r3
   1F23 FB                 4673 	mov	r3,a
   1F24 E4                 4674 	clr	a
   1F25 9C                 4675 	subb	a,r4
   1F26 FC                 4676 	mov	r4,a
   1F27 90 03 95           4677 	mov	dptr,#__divsint_PARM_2
   1F2A 74 02              4678 	mov	a,#0x02
   1F2C F0                 4679 	movx	@dptr,a
   1F2D E4                 4680 	clr	a
   1F2E A3                 4681 	inc	dptr
   1F2F F0                 4682 	movx	@dptr,a
   1F30 8B 82              4683 	mov	dpl,r3
   1F32 8C 83              4684 	mov	dph,r4
   1F34 C0 05              4685 	push	ar5
   1F36 12 33 BB           4686 	lcall	__divsint
   1F39 AB 82              4687 	mov	r3,dpl
   1F3B AC 83              4688 	mov	r4,dph
   1F3D D0 05              4689 	pop	ar5
   1F3F 90 02 79           4690 	mov	dptr,#_LCD_putTextAt_col_1_1
   1F42 EB                 4691 	mov	a,r3
   1F43 04                 4692 	inc	a
   1F44 F0                 4693 	movx	@dptr,a
   1F45 80 0B              4694 	sjmp	00108$
   1F47                    4695 00104$:
                           4696 ;	LCD.c:653: else if(alignment == RIGHT)
   1F47 BA 03 08           4697 	cjne	r2,#0x03,00108$
                           4698 ;	LCD.c:654: col = (16-size);
   1F4A 90 02 79           4699 	mov	dptr,#_LCD_putTextAt_col_1_1
   1F4D 74 10              4700 	mov	a,#0x10
   1F4F C3                 4701 	clr	c
   1F50 9D                 4702 	subb	a,r5
   1F51 F0                 4703 	movx	@dptr,a
   1F52                    4704 00108$:
                           4705 ;	LCD.c:656: setCursorAt(line, col);
   1F52 90 02 74           4706 	mov	dptr,#_LCD_putTextAt_PARM_2
   1F55 E0                 4707 	movx	a,@dptr
   1F56 FA                 4708 	mov	r2,a
   1F57 90 02 79           4709 	mov	dptr,#_LCD_putTextAt_col_1_1
   1F5A E0                 4710 	movx	a,@dptr
   1F5B 90 01 27           4711 	mov	dptr,#_setCursorAt_PARM_2
   1F5E F0                 4712 	movx	@dptr,a
   1F5F 8A 82              4713 	mov	dpl,r2
   1F61 C0 05              4714 	push	ar5
   1F63 12 07 26           4715 	lcall	_setCursorAt
   1F66 D0 05              4716 	pop	ar5
                           4717 ;	LCD.c:658: for(n = 0; n<size; n++)
   1F68 8D 02              4718 	mov	ar2,r5
   1F6A 7B 00              4719 	mov	r3,#0x00
   1F6C                    4720 00113$:
   1F6C C3                 4721 	clr	c
   1F6D EB                 4722 	mov	a,r3
   1F6E 9A                 4723 	subb	a,r2
   1F6F 50 1B              4724 	jnc	00117$
                           4725 ;	LCD.c:659: setChar(txt[n]);
   1F71 EB                 4726 	mov	a,r3
   1F72 24 7A              4727 	add	a,#_LCD_putTextAt_txt_1_1
   1F74 F5 82              4728 	mov	dpl,a
   1F76 E4                 4729 	clr	a
   1F77 34 02              4730 	addc	a,#(_LCD_putTextAt_txt_1_1 >> 8)
   1F79 F5 83              4731 	mov	dph,a
   1F7B E0                 4732 	movx	a,@dptr
   1F7C F5 82              4733 	mov	dpl,a
   1F7E C0 02              4734 	push	ar2
   1F80 C0 03              4735 	push	ar3
   1F82 12 07 7E           4736 	lcall	_setChar
   1F85 D0 03              4737 	pop	ar3
   1F87 D0 02              4738 	pop	ar2
                           4739 ;	LCD.c:658: for(n = 0; n<size; n++)
   1F89 0B                 4740 	inc	r3
   1F8A 80 E0              4741 	sjmp	00113$
   1F8C                    4742 00117$:
   1F8C 22                 4743 	ret
                           4744 ;------------------------------------------------------------
                           4745 ;Allocation info for local variables in function 'LCD_putText'
                           4746 ;------------------------------------------------------------
                           4747 ;sloc0                     Allocated with name '_LCD_putText_sloc0_1_0'
                           4748 ;sloc1                     Allocated with name '_LCD_putText_sloc1_1_0'
                           4749 ;line                      Allocated with name '_LCD_putText_PARM_2'
                           4750 ;time                      Allocated with name '_LCD_putText_PARM_3'
                           4751 ;text                      Allocated with name '_LCD_putText_text_1_1'
                           4752 ;i                         Allocated with name '_LCD_putText_i_1_1'
                           4753 ;j                         Allocated with name '_LCD_putText_j_1_1'
                           4754 ;k                         Allocated with name '_LCD_putText_k_1_1'
                           4755 ;size                      Allocated with name '_LCD_putText_size_1_1'
                           4756 ;control                   Allocated with name '_LCD_putText_control_1_1'
                           4757 ;chr                       Allocated with name '_LCD_putText_chr_1_1'
                           4758 ;txt                       Allocated with name '_LCD_putText_txt_1_1'
                           4759 ;------------------------------------------------------------
                           4760 ;	LCD.c:663: unsigned char LCD_putText(char* text, unsigned char line, unsigned int time){
                           4761 ;	-----------------------------------------
                           4762 ;	 function LCD_putText
                           4763 ;	-----------------------------------------
   1F8D                    4764 _LCD_putText:
   1F8D AA F0              4765 	mov	r2,b
   1F8F AB 83              4766 	mov	r3,dph
   1F91 E5 82              4767 	mov	a,dpl
   1F93 90 02 8E           4768 	mov	dptr,#_LCD_putText_text_1_1
   1F96 F0                 4769 	movx	@dptr,a
   1F97 A3                 4770 	inc	dptr
   1F98 EB                 4771 	mov	a,r3
   1F99 F0                 4772 	movx	@dptr,a
   1F9A A3                 4773 	inc	dptr
   1F9B EA                 4774 	mov	a,r2
   1F9C F0                 4775 	movx	@dptr,a
                           4776 ;	LCD.c:665: unsigned char i = 0, j = 0, k =0,size, control = 1;
   1F9D 90 02 91           4777 	mov	dptr,#_LCD_putText_control_1_1
   1FA0 74 01              4778 	mov	a,#0x01
   1FA2 F0                 4779 	movx	@dptr,a
                           4780 ;	LCD.c:667: char txt[50] = {0};
   1FA3 90 02 92           4781 	mov	dptr,#_LCD_putText_txt_1_1
   1FA6 E4                 4782 	clr	a
   1FA7 F0                 4783 	movx	@dptr,a
   1FA8 90 02 93           4784 	mov	dptr,#(_LCD_putText_txt_1_1 + 0x0001)
   1FAB F0                 4785 	movx	@dptr,a
   1FAC 90 02 94           4786 	mov	dptr,#(_LCD_putText_txt_1_1 + 0x0002)
   1FAF F0                 4787 	movx	@dptr,a
   1FB0 90 02 95           4788 	mov	dptr,#(_LCD_putText_txt_1_1 + 0x0003)
   1FB3 F0                 4789 	movx	@dptr,a
   1FB4 90 02 96           4790 	mov	dptr,#(_LCD_putText_txt_1_1 + 0x0004)
   1FB7 E4                 4791 	clr	a
   1FB8 F0                 4792 	movx	@dptr,a
   1FB9 90 02 97           4793 	mov	dptr,#(_LCD_putText_txt_1_1 + 0x0005)
   1FBC F0                 4794 	movx	@dptr,a
   1FBD 90 02 98           4795 	mov	dptr,#(_LCD_putText_txt_1_1 + 0x0006)
   1FC0 F0                 4796 	movx	@dptr,a
   1FC1 90 02 99           4797 	mov	dptr,#(_LCD_putText_txt_1_1 + 0x0007)
   1FC4 F0                 4798 	movx	@dptr,a
   1FC5 90 02 9A           4799 	mov	dptr,#(_LCD_putText_txt_1_1 + 0x0008)
   1FC8 E4                 4800 	clr	a
   1FC9 F0                 4801 	movx	@dptr,a
   1FCA 90 02 9B           4802 	mov	dptr,#(_LCD_putText_txt_1_1 + 0x0009)
   1FCD F0                 4803 	movx	@dptr,a
   1FCE 90 02 9C           4804 	mov	dptr,#(_LCD_putText_txt_1_1 + 0x000a)
   1FD1 F0                 4805 	movx	@dptr,a
   1FD2 90 02 9D           4806 	mov	dptr,#(_LCD_putText_txt_1_1 + 0x000b)
   1FD5 F0                 4807 	movx	@dptr,a
   1FD6 90 02 9E           4808 	mov	dptr,#(_LCD_putText_txt_1_1 + 0x000c)
   1FD9 E4                 4809 	clr	a
   1FDA F0                 4810 	movx	@dptr,a
   1FDB 90 02 9F           4811 	mov	dptr,#(_LCD_putText_txt_1_1 + 0x000d)
   1FDE F0                 4812 	movx	@dptr,a
   1FDF 90 02 A0           4813 	mov	dptr,#(_LCD_putText_txt_1_1 + 0x000e)
   1FE2 F0                 4814 	movx	@dptr,a
   1FE3 90 02 A1           4815 	mov	dptr,#(_LCD_putText_txt_1_1 + 0x000f)
   1FE6 F0                 4816 	movx	@dptr,a
   1FE7 90 02 A2           4817 	mov	dptr,#(_LCD_putText_txt_1_1 + 0x0010)
   1FEA E4                 4818 	clr	a
   1FEB F0                 4819 	movx	@dptr,a
   1FEC 90 02 A3           4820 	mov	dptr,#(_LCD_putText_txt_1_1 + 0x0011)
   1FEF F0                 4821 	movx	@dptr,a
   1FF0 90 02 A4           4822 	mov	dptr,#(_LCD_putText_txt_1_1 + 0x0012)
   1FF3 F0                 4823 	movx	@dptr,a
   1FF4 90 02 A5           4824 	mov	dptr,#(_LCD_putText_txt_1_1 + 0x0013)
   1FF7 F0                 4825 	movx	@dptr,a
   1FF8 90 02 A6           4826 	mov	dptr,#(_LCD_putText_txt_1_1 + 0x0014)
   1FFB E4                 4827 	clr	a
   1FFC F0                 4828 	movx	@dptr,a
   1FFD 90 02 A7           4829 	mov	dptr,#(_LCD_putText_txt_1_1 + 0x0015)
   2000 F0                 4830 	movx	@dptr,a
   2001 90 02 A8           4831 	mov	dptr,#(_LCD_putText_txt_1_1 + 0x0016)
   2004 F0                 4832 	movx	@dptr,a
   2005 90 02 A9           4833 	mov	dptr,#(_LCD_putText_txt_1_1 + 0x0017)
   2008 F0                 4834 	movx	@dptr,a
   2009 90 02 AA           4835 	mov	dptr,#(_LCD_putText_txt_1_1 + 0x0018)
   200C E4                 4836 	clr	a
   200D F0                 4837 	movx	@dptr,a
   200E 90 02 AB           4838 	mov	dptr,#(_LCD_putText_txt_1_1 + 0x0019)
   2011 F0                 4839 	movx	@dptr,a
   2012 90 02 AC           4840 	mov	dptr,#(_LCD_putText_txt_1_1 + 0x001a)
   2015 F0                 4841 	movx	@dptr,a
   2016 90 02 AD           4842 	mov	dptr,#(_LCD_putText_txt_1_1 + 0x001b)
   2019 F0                 4843 	movx	@dptr,a
   201A 90 02 AE           4844 	mov	dptr,#(_LCD_putText_txt_1_1 + 0x001c)
   201D E4                 4845 	clr	a
   201E F0                 4846 	movx	@dptr,a
   201F 90 02 AF           4847 	mov	dptr,#(_LCD_putText_txt_1_1 + 0x001d)
   2022 F0                 4848 	movx	@dptr,a
   2023 90 02 B0           4849 	mov	dptr,#(_LCD_putText_txt_1_1 + 0x001e)
   2026 F0                 4850 	movx	@dptr,a
   2027 90 02 B1           4851 	mov	dptr,#(_LCD_putText_txt_1_1 + 0x001f)
   202A F0                 4852 	movx	@dptr,a
   202B 90 02 B2           4853 	mov	dptr,#(_LCD_putText_txt_1_1 + 0x0020)
   202E E4                 4854 	clr	a
   202F F0                 4855 	movx	@dptr,a
   2030 90 02 B3           4856 	mov	dptr,#(_LCD_putText_txt_1_1 + 0x0021)
   2033 F0                 4857 	movx	@dptr,a
   2034 90 02 B4           4858 	mov	dptr,#(_LCD_putText_txt_1_1 + 0x0022)
   2037 F0                 4859 	movx	@dptr,a
   2038 90 02 B5           4860 	mov	dptr,#(_LCD_putText_txt_1_1 + 0x0023)
   203B F0                 4861 	movx	@dptr,a
   203C 90 02 B6           4862 	mov	dptr,#(_LCD_putText_txt_1_1 + 0x0024)
   203F E4                 4863 	clr	a
   2040 F0                 4864 	movx	@dptr,a
   2041 90 02 B7           4865 	mov	dptr,#(_LCD_putText_txt_1_1 + 0x0025)
   2044 F0                 4866 	movx	@dptr,a
   2045 90 02 B8           4867 	mov	dptr,#(_LCD_putText_txt_1_1 + 0x0026)
   2048 F0                 4868 	movx	@dptr,a
   2049 90 02 B9           4869 	mov	dptr,#(_LCD_putText_txt_1_1 + 0x0027)
   204C F0                 4870 	movx	@dptr,a
   204D 90 02 BA           4871 	mov	dptr,#(_LCD_putText_txt_1_1 + 0x0028)
   2050 E4                 4872 	clr	a
   2051 F0                 4873 	movx	@dptr,a
   2052 90 02 BB           4874 	mov	dptr,#(_LCD_putText_txt_1_1 + 0x0029)
   2055 F0                 4875 	movx	@dptr,a
   2056 90 02 BC           4876 	mov	dptr,#(_LCD_putText_txt_1_1 + 0x002a)
   2059 F0                 4877 	movx	@dptr,a
   205A 90 02 BD           4878 	mov	dptr,#(_LCD_putText_txt_1_1 + 0x002b)
   205D F0                 4879 	movx	@dptr,a
   205E 90 02 BE           4880 	mov	dptr,#(_LCD_putText_txt_1_1 + 0x002c)
   2061 E4                 4881 	clr	a
   2062 F0                 4882 	movx	@dptr,a
   2063 90 02 BF           4883 	mov	dptr,#(_LCD_putText_txt_1_1 + 0x002d)
   2066 F0                 4884 	movx	@dptr,a
   2067 90 02 C0           4885 	mov	dptr,#(_LCD_putText_txt_1_1 + 0x002e)
   206A F0                 4886 	movx	@dptr,a
   206B 90 02 C1           4887 	mov	dptr,#(_LCD_putText_txt_1_1 + 0x002f)
   206E F0                 4888 	movx	@dptr,a
   206F 90 02 C2           4889 	mov	dptr,#(_LCD_putText_txt_1_1 + 0x0030)
   2072 E4                 4890 	clr	a
   2073 F0                 4891 	movx	@dptr,a
   2074 90 02 C3           4892 	mov	dptr,#(_LCD_putText_txt_1_1 + 0x0031)
   2077 F0                 4893 	movx	@dptr,a
                           4894 ;	LCD.c:669: for(i = 0;text[i] != '\0';i++)
   2078 90 02 8E           4895 	mov	dptr,#_LCD_putText_text_1_1
   207B E0                 4896 	movx	a,@dptr
   207C FA                 4897 	mov	r2,a
   207D A3                 4898 	inc	dptr
   207E E0                 4899 	movx	a,@dptr
   207F FB                 4900 	mov	r3,a
   2080 A3                 4901 	inc	dptr
   2081 E0                 4902 	movx	a,@dptr
   2082 FC                 4903 	mov	r4,a
   2083 7D 00              4904 	mov	r5,#0x00
   2085                    4905 00108$:
   2085 ED                 4906 	mov	a,r5
   2086 2A                 4907 	add	a,r2
   2087 FE                 4908 	mov	r6,a
   2088 E4                 4909 	clr	a
   2089 3B                 4910 	addc	a,r3
   208A FF                 4911 	mov	r7,a
   208B 8C 00              4912 	mov	ar0,r4
   208D 8E 82              4913 	mov	dpl,r6
   208F 8F 83              4914 	mov	dph,r7
   2091 88 F0              4915 	mov	b,r0
   2093 12 34 33           4916 	lcall	__gptrget
   2096 FE                 4917 	mov	r6,a
   2097 60 0F              4918 	jz	00111$
                           4919 ;	LCD.c:670: txt[i] = text[i];
   2099 ED                 4920 	mov	a,r5
   209A 24 92              4921 	add	a,#_LCD_putText_txt_1_1
   209C F5 82              4922 	mov	dpl,a
   209E E4                 4923 	clr	a
   209F 34 02              4924 	addc	a,#(_LCD_putText_txt_1_1 >> 8)
   20A1 F5 83              4925 	mov	dph,a
   20A3 EE                 4926 	mov	a,r6
   20A4 F0                 4927 	movx	@dptr,a
                           4928 ;	LCD.c:669: for(i = 0;text[i] != '\0';i++)
   20A5 0D                 4929 	inc	r5
   20A6 80 DD              4930 	sjmp	00108$
   20A8                    4931 00111$:
                           4932 ;	LCD.c:672: txt[i] = text[i];
   20A8 ED                 4933 	mov	a,r5
   20A9 24 92              4934 	add	a,#_LCD_putText_txt_1_1
   20AB F5 82              4935 	mov	dpl,a
   20AD E4                 4936 	clr	a
   20AE 34 02              4937 	addc	a,#(_LCD_putText_txt_1_1 >> 8)
   20B0 F5 83              4938 	mov	dph,a
   20B2 EE                 4939 	mov	a,r6
   20B3 F0                 4940 	movx	@dptr,a
                           4941 ;	LCD.c:675: for(i=0;i < size && control ==1 ;i++){
   20B4 90 02 8B           4942 	mov	dptr,#_LCD_putText_PARM_2
   20B7 E0                 4943 	movx	a,@dptr
   20B8 F5 09              4944 	mov	_LCD_putText_sloc1_1_0,a
   20BA ED                 4945 	mov	a,r5
   20BB FB                 4946 	mov	r3,a
   20BC 14                 4947 	dec	a
   20BD FC                 4948 	mov	r4,a
   20BE 7E 00              4949 	mov	r6,#0x00
   20C0                    4950 00104$:
   20C0 C3                 4951 	clr	c
   20C1 EE                 4952 	mov	a,r6
   20C2 9D                 4953 	subb	a,r5
   20C3 40 03              4954 	jc	00141$
   20C5 02 21 A7           4955 	ljmp	00107$
   20C8                    4956 00141$:
   20C8 90 02 91           4957 	mov	dptr,#_LCD_putText_control_1_1
   20CB E0                 4958 	movx	a,@dptr
   20CC FF                 4959 	mov	r7,a
   20CD E4                 4960 	clr	a
   20CE BF 01 01           4961 	cjne	r7,#0x01,00142$
   20D1 04                 4962 	inc	a
   20D2                    4963 00142$:
   20D2 FF                 4964 	mov	r7,a
   20D3 70 03              4965 	jnz	00144$
   20D5 02 21 A7           4966 	ljmp	00107$
   20D8                    4967 00144$:
                           4968 ;	LCD.c:677: setCursorHomeAtLine(line);
   20D8 85 09 82           4969 	mov	dpl,_LCD_putText_sloc1_1_0
   20DB C0 03              4970 	push	ar3
   20DD C0 04              4971 	push	ar4
   20DF C0 05              4972 	push	ar5
   20E1 C0 06              4973 	push	ar6
   20E3 C0 07              4974 	push	ar7
   20E5 12 1D 28           4975 	lcall	_setCursorHomeAtLine
   20E8 D0 07              4976 	pop	ar7
   20EA D0 06              4977 	pop	ar6
   20EC D0 05              4978 	pop	ar5
   20EE D0 04              4979 	pop	ar4
   20F0 D0 03              4980 	pop	ar3
                           4981 ;	LCD.c:679: for(j = 0; j<16 && control ==1;j++)
   20F2 78 00              4982 	mov	r0,#0x00
   20F4                    4983 00113$:
   20F4 B8 10 00           4984 	cjne	r0,#0x10,00145$
   20F7                    4985 00145$:
   20F7 50 2E              4986 	jnc	00116$
   20F9 EF                 4987 	mov	a,r7
   20FA 60 2B              4988 	jz	00116$
                           4989 ;	LCD.c:680: setChar(txt[j]);				// Atribuindo escrita
   20FC E8                 4990 	mov	a,r0
   20FD 24 92              4991 	add	a,#_LCD_putText_txt_1_1
   20FF F5 82              4992 	mov	dpl,a
   2101 E4                 4993 	clr	a
   2102 34 02              4994 	addc	a,#(_LCD_putText_txt_1_1 >> 8)
   2104 F5 83              4995 	mov	dph,a
   2106 E0                 4996 	movx	a,@dptr
   2107 F5 82              4997 	mov	dpl,a
   2109 C0 03              4998 	push	ar3
   210B C0 04              4999 	push	ar4
   210D C0 05              5000 	push	ar5
   210F C0 06              5001 	push	ar6
   2111 C0 07              5002 	push	ar7
   2113 C0 00              5003 	push	ar0
   2115 12 07 7E           5004 	lcall	_setChar
   2118 D0 00              5005 	pop	ar0
   211A D0 07              5006 	pop	ar7
   211C D0 06              5007 	pop	ar6
   211E D0 05              5008 	pop	ar5
   2120 D0 04              5009 	pop	ar4
   2122 D0 03              5010 	pop	ar3
                           5011 ;	LCD.c:679: for(j = 0; j<16 && control ==1;j++)
   2124 08                 5012 	inc	r0
   2125 80 CD              5013 	sjmp	00113$
   2127                    5014 00116$:
                           5015 ;	LCD.c:683: sing(1);
   2127 75 82 01           5016 	mov	dpl,#0x01
   212A C0 03              5017 	push	ar3
   212C C0 04              5018 	push	ar4
   212E C0 05              5019 	push	ar5
   2130 C0 06              5020 	push	ar6
   2132 12 24 BA           5021 	lcall	_sing
   2135 D0 06              5022 	pop	ar6
   2137 D0 05              5023 	pop	ar5
   2139 D0 04              5024 	pop	ar4
   213B D0 03              5025 	pop	ar3
                           5026 ;	LCD.c:686: chr = txt[0];
   213D 90 02 92           5027 	mov	dptr,#_LCD_putText_txt_1_1
   2140 E0                 5028 	movx	a,@dptr
   2141 F5 08              5029 	mov	_LCD_putText_sloc0_1_0,a
                           5030 ;	LCD.c:688: for(k = 1; k< size && control ==1;k++)
   2143 90 02 91           5031 	mov	dptr,#_LCD_putText_control_1_1
   2146 E0                 5032 	movx	a,@dptr
   2147 F8                 5033 	mov	r0,a
   2148 E4                 5034 	clr	a
   2149 B8 01 01           5035 	cjne	r0,#0x01,00148$
   214C 04                 5036 	inc	a
   214D                    5037 00148$:
   214D F8                 5038 	mov	r0,a
   214E 79 01              5039 	mov	r1,#0x01
   2150                    5040 00118$:
   2150 C3                 5041 	clr	c
   2151 E9                 5042 	mov	a,r1
   2152 9B                 5043 	subb	a,r3
   2153 50 24              5044 	jnc	00121$
   2155 E8                 5045 	mov	a,r0
   2156 60 21              5046 	jz	00121$
                           5047 ;	LCD.c:689: txt[k-1] = txt[k];
   2158 C0 04              5048 	push	ar4
   215A E9                 5049 	mov	a,r1
   215B 14                 5050 	dec	a
   215C 24 92              5051 	add	a,#_LCD_putText_txt_1_1
   215E FC                 5052 	mov	r4,a
   215F E4                 5053 	clr	a
   2160 34 02              5054 	addc	a,#(_LCD_putText_txt_1_1 >> 8)
   2162 FF                 5055 	mov	r7,a
   2163 E9                 5056 	mov	a,r1
   2164 24 92              5057 	add	a,#_LCD_putText_txt_1_1
   2166 F5 82              5058 	mov	dpl,a
   2168 E4                 5059 	clr	a
   2169 34 02              5060 	addc	a,#(_LCD_putText_txt_1_1 >> 8)
   216B F5 83              5061 	mov	dph,a
   216D E0                 5062 	movx	a,@dptr
   216E FA                 5063 	mov	r2,a
   216F 8C 82              5064 	mov	dpl,r4
   2171 8F 83              5065 	mov	dph,r7
   2173 F0                 5066 	movx	@dptr,a
                           5067 ;	LCD.c:688: for(k = 1; k< size && control ==1;k++)
   2174 09                 5068 	inc	r1
   2175 D0 04              5069 	pop	ar4
   2177 80 D7              5070 	sjmp	00118$
   2179                    5071 00121$:
                           5072 ;	LCD.c:691: txt[size-1] = chr;
   2179 EC                 5073 	mov	a,r4
   217A 24 92              5074 	add	a,#_LCD_putText_txt_1_1
   217C F5 82              5075 	mov	dpl,a
   217E E4                 5076 	clr	a
   217F 34 02              5077 	addc	a,#(_LCD_putText_txt_1_1 >> 8)
   2181 F5 83              5078 	mov	dph,a
   2183 E5 08              5079 	mov	a,_LCD_putText_sloc0_1_0
   2185 F0                 5080 	movx	@dptr,a
                           5081 ;	LCD.c:693: control = serialBegin();
   2186 C0 03              5082 	push	ar3
   2188 C0 04              5083 	push	ar4
   218A C0 05              5084 	push	ar5
   218C C0 06              5085 	push	ar6
   218E 12 27 38           5086 	lcall	_serialBegin
   2191 AA 82              5087 	mov	r2,dpl
   2193 D0 06              5088 	pop	ar6
   2195 D0 05              5089 	pop	ar5
   2197 D0 04              5090 	pop	ar4
   2199 D0 03              5091 	pop	ar3
   219B 90 02 91           5092 	mov	dptr,#_LCD_putText_control_1_1
   219E EA                 5093 	mov	a,r2
   219F F0                 5094 	movx	@dptr,a
                           5095 ;	LCD.c:695: if(control == 0)
   21A0 EA                 5096 	mov	a,r2
   21A1 60 04              5097 	jz	00107$
                           5098 ;	LCD.c:675: for(i=0;i < size && control ==1 ;i++){
   21A3 0E                 5099 	inc	r6
   21A4 02 20 C0           5100 	ljmp	00104$
   21A7                    5101 00107$:
                           5102 ;	LCD.c:699: return control;
   21A7 90 02 91           5103 	mov	dptr,#_LCD_putText_control_1_1
   21AA E0                 5104 	movx	a,@dptr
   21AB F5 82              5105 	mov	dpl,a
   21AD 22                 5106 	ret
                           5107 ;------------------------------------------------------------
                           5108 ;Allocation info for local variables in function 'LCD_putCharAt'
                           5109 ;------------------------------------------------------------
                           5110 ;line                      Allocated with name '_LCD_putCharAt_PARM_2'
                           5111 ;col                       Allocated with name '_LCD_putCharAt_PARM_3'
                           5112 ;chr                       Allocated with name '_LCD_putCharAt_chr_1_1'
                           5113 ;------------------------------------------------------------
                           5114 ;	LCD.c:702: void LCD_putCharAt(char chr, unsigned char line, unsigned char col){
                           5115 ;	-----------------------------------------
                           5116 ;	 function LCD_putCharAt
                           5117 ;	-----------------------------------------
   21AE                    5118 _LCD_putCharAt:
   21AE E5 82              5119 	mov	a,dpl
   21B0 90 02 C6           5120 	mov	dptr,#_LCD_putCharAt_chr_1_1
   21B3 F0                 5121 	movx	@dptr,a
                           5122 ;	LCD.c:703: setCursorAt(line, col);
   21B4 90 02 C4           5123 	mov	dptr,#_LCD_putCharAt_PARM_2
   21B7 E0                 5124 	movx	a,@dptr
   21B8 FA                 5125 	mov	r2,a
   21B9 90 02 C5           5126 	mov	dptr,#_LCD_putCharAt_PARM_3
   21BC E0                 5127 	movx	a,@dptr
   21BD 90 01 27           5128 	mov	dptr,#_setCursorAt_PARM_2
   21C0 F0                 5129 	movx	@dptr,a
   21C1 8A 82              5130 	mov	dpl,r2
   21C3 12 07 26           5131 	lcall	_setCursorAt
                           5132 ;	LCD.c:704: setChar(chr);
   21C6 90 02 C6           5133 	mov	dptr,#_LCD_putCharAt_chr_1_1
   21C9 E0                 5134 	movx	a,@dptr
   21CA F5 82              5135 	mov	dpl,a
   21CC 02 07 7E           5136 	ljmp	_setChar
                           5137 ;------------------------------------------------------------
                           5138 ;Allocation info for local variables in function 'LCD_putSCharAt'
                           5139 ;------------------------------------------------------------
                           5140 ;scol                      Allocated with name '_LCD_putSCharAt_PARM_2'
                           5141 ;line                      Allocated with name '_LCD_putSCharAt_PARM_3'
                           5142 ;col                       Allocated with name '_LCD_putSCharAt_PARM_4'
                           5143 ;sline                     Allocated with name '_LCD_putSCharAt_sline_1_1'
                           5144 ;------------------------------------------------------------
                           5145 ;	LCD.c:707: void LCD_putSCharAt(unsigned char sline, unsigned char scol, unsigned char line, unsigned char col){
                           5146 ;	-----------------------------------------
                           5147 ;	 function LCD_putSCharAt
                           5148 ;	-----------------------------------------
   21CF                    5149 _LCD_putSCharAt:
   21CF E5 82              5150 	mov	a,dpl
   21D1 90 02 CA           5151 	mov	dptr,#_LCD_putSCharAt_sline_1_1
   21D4 F0                 5152 	movx	@dptr,a
                           5153 ;	LCD.c:708: setPlayerCursor(line,col,sline,scol);
   21D5 90 02 C8           5154 	mov	dptr,#_LCD_putSCharAt_PARM_3
   21D8 E0                 5155 	movx	a,@dptr
   21D9 FA                 5156 	mov	r2,a
   21DA 90 02 C9           5157 	mov	dptr,#_LCD_putSCharAt_PARM_4
   21DD E0                 5158 	movx	a,@dptr
   21DE FB                 5159 	mov	r3,a
   21DF 90 02 CA           5160 	mov	dptr,#_LCD_putSCharAt_sline_1_1
   21E2 E0                 5161 	movx	a,@dptr
   21E3 FC                 5162 	mov	r4,a
   21E4 90 02 C7           5163 	mov	dptr,#_LCD_putSCharAt_PARM_2
   21E7 E0                 5164 	movx	a,@dptr
   21E8 FD                 5165 	mov	r5,a
   21E9 90 02 70           5166 	mov	dptr,#_setPlayerCursor_PARM_2
   21EC EB                 5167 	mov	a,r3
   21ED F0                 5168 	movx	@dptr,a
   21EE 90 02 71           5169 	mov	dptr,#_setPlayerCursor_PARM_3
   21F1 EC                 5170 	mov	a,r4
   21F2 F0                 5171 	movx	@dptr,a
   21F3 90 02 72           5172 	mov	dptr,#_setPlayerCursor_PARM_4
   21F6 ED                 5173 	mov	a,r5
   21F7 F0                 5174 	movx	@dptr,a
   21F8 8A 82              5175 	mov	dpl,r2
   21FA C0 02              5176 	push	ar2
   21FC C0 03              5177 	push	ar3
   21FE 12 1D 68           5178 	lcall	_setPlayerCursor
   2201 D0 03              5179 	pop	ar3
   2203 D0 02              5180 	pop	ar2
                           5181 ;	LCD.c:709: setCursorAt(line, col);
   2205 90 01 27           5182 	mov	dptr,#_setCursorAt_PARM_2
   2208 EB                 5183 	mov	a,r3
   2209 F0                 5184 	movx	@dptr,a
   220A 8A 82              5185 	mov	dpl,r2
   220C 12 07 26           5186 	lcall	_setCursorAt
                           5187 ;	LCD.c:710: setChar(0);
   220F 75 82 00           5188 	mov	dpl,#0x00
   2212 02 07 7E           5189 	ljmp	_setChar
                           5190 	.area CSEG    (CODE)
                           5191 	.area CONST   (CODE)
                           5192 	.area XINIT   (CODE)
   36C5                    5193 __xinit__mainMario_melody:
   36C5 63 00              5194 	.byte #0x63,#0x00
   36C7 63 00              5195 	.byte #0x63,#0x00
   36C9 00 00              5196 	.byte #0x00,#0x00
   36CB 63 00              5197 	.byte #0x63,#0x00
   36CD 00 00              5198 	.byte #0x00,#0x00
   36CF 7D 00              5199 	.byte #0x7D,#0x00
   36D1 63 00              5200 	.byte #0x63,#0x00
   36D3 00 00              5201 	.byte #0x00,#0x00
   36D5 54 00              5202 	.byte #0x54,#0x00
   36D7 00 00              5203 	.byte #0x00,#0x00
   36D9 00 00              5204 	.byte #0x00,#0x00
   36DB 00 00              5205 	.byte #0x00,#0x00
   36DD A7 00              5206 	.byte #0xA7,#0x00
   36DF 00 00              5207 	.byte #0x00,#0x00
   36E1 00 00              5208 	.byte #0x00,#0x00
   36E3 00 00              5209 	.byte #0x00,#0x00
   36E5 7D 00              5210 	.byte #0x7D,#0x00
   36E7 00 00              5211 	.byte #0x00,#0x00
   36E9 00 00              5212 	.byte #0x00,#0x00
   36EB A7 00              5213 	.byte #0xA7,#0x00
   36ED 00 00              5214 	.byte #0x00,#0x00
   36EF 00 00              5215 	.byte #0x00,#0x00
   36F1 C7 00              5216 	.byte #0xC7,#0x00
   36F3 00 00              5217 	.byte #0x00,#0x00
   36F5 00 00              5218 	.byte #0x00,#0x00
   36F7 95 00              5219 	.byte #0x95,#0x00
   36F9 00 00              5220 	.byte #0x00,#0x00
   36FB 85 00              5221 	.byte #0x85,#0x00
   36FD 00 00              5222 	.byte #0x00,#0x00
   36FF 8D 00              5223 	.byte #0x8D,#0x00
   3701 95 00              5224 	.byte #0x95,#0x00
   3703 00 00              5225 	.byte #0x00,#0x00
   3705 A7 00              5226 	.byte #0xA7,#0x00
   3707 63 00              5227 	.byte #0x63,#0x00
   3709 54 00              5228 	.byte #0x54,#0x00
   370B 4B 00              5229 	.byte #0x4B,#0x00
   370D 00 00              5230 	.byte #0x00,#0x00
   370F 5E 00              5231 	.byte #0x5E,#0x00
   3711 54 00              5232 	.byte #0x54,#0x00
   3713 00 00              5233 	.byte #0x00,#0x00
   3715 63 00              5234 	.byte #0x63,#0x00
   3717 00 00              5235 	.byte #0x00,#0x00
   3719 7D 00              5236 	.byte #0x7D,#0x00
   371B 70 00              5237 	.byte #0x70,#0x00
   371D 85 00              5238 	.byte #0x85,#0x00
   371F 00 00              5239 	.byte #0x00,#0x00
   3721 00 00              5240 	.byte #0x00,#0x00
   3723 7D 00              5241 	.byte #0x7D,#0x00
   3725 00 00              5242 	.byte #0x00,#0x00
   3727 00 00              5243 	.byte #0x00,#0x00
   3729 A7 00              5244 	.byte #0xA7,#0x00
   372B 00 00              5245 	.byte #0x00,#0x00
   372D 00 00              5246 	.byte #0x00,#0x00
   372F C7 00              5247 	.byte #0xC7,#0x00
   3731 00 00              5248 	.byte #0x00,#0x00
   3733 00 00              5249 	.byte #0x00,#0x00
   3735 95 00              5250 	.byte #0x95,#0x00
   3737 00 00              5251 	.byte #0x00,#0x00
   3739 85 00              5252 	.byte #0x85,#0x00
   373B 00 00              5253 	.byte #0x00,#0x00
   373D 8D 00              5254 	.byte #0x8D,#0x00
   373F 95 00              5255 	.byte #0x95,#0x00
   3741 00 00              5256 	.byte #0x00,#0x00
   3743 A7 00              5257 	.byte #0xA7,#0x00
   3745 63 00              5258 	.byte #0x63,#0x00
   3747 54 00              5259 	.byte #0x54,#0x00
   3749 4B 00              5260 	.byte #0x4B,#0x00
   374B 00 00              5261 	.byte #0x00,#0x00
   374D 5E 00              5262 	.byte #0x5E,#0x00
   374F 54 00              5263 	.byte #0x54,#0x00
   3751 00 00              5264 	.byte #0x00,#0x00
   3753 63 00              5265 	.byte #0x63,#0x00
   3755 00 00              5266 	.byte #0x00,#0x00
   3757 7D 00              5267 	.byte #0x7D,#0x00
   3759 70 00              5268 	.byte #0x70,#0x00
   375B 85 00              5269 	.byte #0x85,#0x00
   375D 00 00              5270 	.byte #0x00,#0x00
   375F 00 00              5271 	.byte #0x00,#0x00
   3761                    5272 __xinit__mainMario_noteTime:
   3761 0F                 5273 	.db #0x0F
   3762 0F                 5274 	.db #0x0F
   3763 0F                 5275 	.db #0x0F
   3764 0F                 5276 	.db #0x0F
   3765 0F                 5277 	.db #0x0F
   3766 0F                 5278 	.db #0x0F
   3767 0F                 5279 	.db #0x0F
   3768 0F                 5280 	.db #0x0F
   3769 0F                 5281 	.db #0x0F
   376A 0F                 5282 	.db #0x0F
   376B 0F                 5283 	.db #0x0F
   376C 0F                 5284 	.db #0x0F
   376D 0F                 5285 	.db #0x0F
   376E 0F                 5286 	.db #0x0F
   376F 0F                 5287 	.db #0x0F
   3770 0F                 5288 	.db #0x0F
   3771 0F                 5289 	.db #0x0F
   3772 0F                 5290 	.db #0x0F
   3773 0F                 5291 	.db #0x0F
   3774 0F                 5292 	.db #0x0F
   3775 0F                 5293 	.db #0x0F
   3776 0F                 5294 	.db #0x0F
   3777 0F                 5295 	.db #0x0F
   3778 0F                 5296 	.db #0x0F
   3779 0F                 5297 	.db #0x0F
   377A 0F                 5298 	.db #0x0F
   377B 0F                 5299 	.db #0x0F
   377C 0F                 5300 	.db #0x0F
   377D 0F                 5301 	.db #0x0F
   377E 0F                 5302 	.db #0x0F
   377F 0F                 5303 	.db #0x0F
   3780 0F                 5304 	.db #0x0F
   3781 0C                 5305 	.db #0x0C
   3782 0C                 5306 	.db #0x0C
   3783 0C                 5307 	.db #0x0C
   3784 0F                 5308 	.db #0x0F
   3785 0F                 5309 	.db #0x0F
   3786 0F                 5310 	.db #0x0F
   3787 0F                 5311 	.db #0x0F
   3788 0F                 5312 	.db #0x0F
   3789 0F                 5313 	.db #0x0F
   378A 0F                 5314 	.db #0x0F
   378B 0F                 5315 	.db #0x0F
   378C 0F                 5316 	.db #0x0F
   378D 0F                 5317 	.db #0x0F
   378E 0F                 5318 	.db #0x0F
   378F 0F                 5319 	.db #0x0F
   3790 0F                 5320 	.db #0x0F
   3791 0F                 5321 	.db #0x0F
   3792 0F                 5322 	.db #0x0F
   3793 0F                 5323 	.db #0x0F
   3794 0F                 5324 	.db #0x0F
   3795 0F                 5325 	.db #0x0F
   3796 0F                 5326 	.db #0x0F
   3797 0F                 5327 	.db #0x0F
   3798 0F                 5328 	.db #0x0F
   3799 0F                 5329 	.db #0x0F
   379A 0F                 5330 	.db #0x0F
   379B 0F                 5331 	.db #0x0F
   379C 0F                 5332 	.db #0x0F
   379D 0F                 5333 	.db #0x0F
   379E 0F                 5334 	.db #0x0F
   379F 0F                 5335 	.db #0x0F
   37A0 0C                 5336 	.db #0x0C
   37A1 0C                 5337 	.db #0x0C
   37A2 0C                 5338 	.db #0x0C
   37A3 0F                 5339 	.db #0x0F
   37A4 0F                 5340 	.db #0x0F
   37A5 0F                 5341 	.db #0x0F
   37A6 0F                 5342 	.db #0x0F
   37A7 0F                 5343 	.db #0x0F
   37A8 0F                 5344 	.db #0x0F
   37A9 0F                 5345 	.db #0x0F
   37AA 0F                 5346 	.db #0x0F
   37AB 0F                 5347 	.db #0x0F
   37AC 0F                 5348 	.db #0x0F
   37AD 0F                 5349 	.db #0x0F
   37AE 0F                 5350 	.db #0x0F
   37AF                    5351 __xinit__underworld_melody:
   37AF FB 00              5352 	.byte #0xFB,#0x00
   37B1 7D 00              5353 	.byte #0x7D,#0x00
   37B3 2A 01              5354 	.byte #0x2A,#0x01
   37B5 95 00              5355 	.byte #0x95,#0x00
   37B7 1A 01              5356 	.byte #0x1A,#0x01
   37B9 8D 00              5357 	.byte #0x8D,#0x00
   37BB 00 00              5358 	.byte #0x00,#0x00
   37BD 00 00              5359 	.byte #0x00,#0x00
   37BF FB 00              5360 	.byte #0xFB,#0x00
   37C1 7D 00              5361 	.byte #0x7D,#0x00
   37C3 2A 01              5362 	.byte #0x2A,#0x01
   37C5 95 00              5363 	.byte #0x95,#0x00
   37C7 1A 01              5364 	.byte #0x1A,#0x01
   37C9 8D 00              5365 	.byte #0x8D,#0x00
   37CB 00 00              5366 	.byte #0x00,#0x00
   37CD 00 00              5367 	.byte #0x00,#0x00
   37CF 78 01              5368 	.byte #0x78,#0x01
   37D1 BC 00              5369 	.byte #0xBC,#0x00
   37D3 BF 01              5370 	.byte #0xBF,#0x01
   37D5 DF 00              5371 	.byte #0xDF,#0x00
   37D7 A6 01              5372 	.byte #0xA6,#0x01
   37D9 D3 00              5373 	.byte #0xD3,#0x00
   37DB 00 00              5374 	.byte #0x00,#0x00
   37DD 00 00              5375 	.byte #0x00,#0x00
   37DF 78 01              5376 	.byte #0x78,#0x01
   37E1 BC 00              5377 	.byte #0xBC,#0x00
   37E3 BF 01              5378 	.byte #0xBF,#0x01
   37E5 DF 00              5379 	.byte #0xDF,#0x00
   37E7 A6 01              5380 	.byte #0xA6,#0x01
   37E9 D3 00              5381 	.byte #0xD3,#0x00
   37EB 00 00              5382 	.byte #0x00,#0x00
   37ED 00 00              5383 	.byte #0x00,#0x00
   37EF D3 00              5384 	.byte #0xD3,#0x00
   37F1 ED 00              5385 	.byte #0xED,#0x00
   37F3 DF 00              5386 	.byte #0xDF,#0x00
   37F5 ED 00              5387 	.byte #0xED,#0x00
   37F7 D3 00              5388 	.byte #0xD3,#0x00
   37F9 D3 00              5389 	.byte #0xD3,#0x00
   37FB 3C 01              5390 	.byte #0x3C,#0x01
   37FD 4F 01              5391 	.byte #0x4F,#0x01
   37FF ED 00              5392 	.byte #0xED,#0x00
   3801 FB 00              5393 	.byte #0xFB,#0x00
   3803 B1 00              5394 	.byte #0xB1,#0x00
   3805 BC 00              5395 	.byte #0xBC,#0x00
   3807 8E 01              5396 	.byte #0x8E,#0x01
   3809 8D 00              5397 	.byte #0x8D,#0x00
   380B 95 00              5398 	.byte #0x95,#0x00
   380D 9E 00              5399 	.byte #0x9E,#0x00
   380F D3 00              5400 	.byte #0xD3,#0x00
   3811 0A 01              5401 	.byte #0x0A,#0x01
   3813 1A 01              5402 	.byte #0x1A,#0x01
   3815 2A 01              5403 	.byte #0x2A,#0x01
   3817 3C 01              5404 	.byte #0x3C,#0x01
   3819 00 00              5405 	.byte #0x00,#0x00
   381B 00 00              5406 	.byte #0x00,#0x00
   381D 00 00              5407 	.byte #0x00,#0x00
   381F                    5408 __xinit__underworld_noteTime:
   381F 0C                 5409 	.db #0x0C
   3820 0C                 5410 	.db #0x0C
   3821 0C                 5411 	.db #0x0C
   3822 0C                 5412 	.db #0x0C
   3823 0C                 5413 	.db #0x0C
   3824 0C                 5414 	.db #0x0C
   3825 06                 5415 	.db #0x06
   3826 03                 5416 	.db #0x03
   3827 0C                 5417 	.db #0x0C
   3828 0C                 5418 	.db #0x0C
   3829 0C                 5419 	.db #0x0C
   382A 0C                 5420 	.db #0x0C
   382B 0C                 5421 	.db #0x0C
   382C 0C                 5422 	.db #0x0C
   382D 06                 5423 	.db #0x06
   382E 03                 5424 	.db #0x03
   382F 0C                 5425 	.db #0x0C
   3830 0C                 5426 	.db #0x0C
   3831 0C                 5427 	.db #0x0C
   3832 0C                 5428 	.db #0x0C
   3833 0C                 5429 	.db #0x0C
   3834 0C                 5430 	.db #0x0C
   3835 06                 5431 	.db #0x06
   3836 03                 5432 	.db #0x03
   3837 0C                 5433 	.db #0x0C
   3838 0C                 5434 	.db #0x0C
   3839 0C                 5435 	.db #0x0C
   383A 0C                 5436 	.db #0x0C
   383B 0C                 5437 	.db #0x0C
   383C 0C                 5438 	.db #0x0C
   383D 06                 5439 	.db #0x06
   383E 06                 5440 	.db #0x06
   383F 12                 5441 	.db #0x12
   3840 12                 5442 	.db #0x12
   3841 12                 5443 	.db #0x12
   3842 06                 5444 	.db #0x06
   3843 06                 5445 	.db #0x06
   3844 06                 5446 	.db #0x06
   3845 06                 5447 	.db #0x06
   3846 06                 5448 	.db #0x06
   3847 06                 5449 	.db #0x06
   3848 12                 5450 	.db #0x12
   3849 12                 5451 	.db #0x12
   384A 12                 5452 	.db #0x12
   384B 12                 5453 	.db #0x12
   384C 12                 5454 	.db #0x12
   384D 12                 5455 	.db #0x12
   384E 0A                 5456 	.db #0x0A
   384F 0A                 5457 	.db #0x0A
   3850 0A                 5458 	.db #0x0A
   3851 0A                 5459 	.db #0x0A
   3852 0A                 5460 	.db #0x0A
   3853 0A                 5461 	.db #0x0A
   3854 03                 5462 	.db #0x03
   3855 03                 5463 	.db #0x03
   3856 03                 5464 	.db #0x03
   3857                    5465 __xinit__adobe_melody:
   3857 85 00              5466 	.byte #0x85,#0x00
   3859 85 00              5467 	.byte #0x85,#0x00
   385B 00 00              5468 	.byte #0x00,#0x00
   385D 85 00              5469 	.byte #0x85,#0x00
   385F 70 00              5470 	.byte #0x70,#0x00
   3861 70 00              5471 	.byte #0x70,#0x00
   3863 00 00              5472 	.byte #0x00,#0x00
   3865 70 00              5473 	.byte #0x70,#0x00
   3867 95 00              5474 	.byte #0x95,#0x00
   3869 95 00              5475 	.byte #0x95,#0x00
   386B 00 00              5476 	.byte #0x00,#0x00
   386D 95 00              5477 	.byte #0x95,#0x00
   386F 85 00              5478 	.byte #0x85,#0x00
   3871 85 00              5479 	.byte #0x85,#0x00
   3873 00 00              5480 	.byte #0x00,#0x00
   3875 00 00              5481 	.byte #0x00,#0x00
   3877                    5482 __xinit__adobe_noteTime:
   3877 06                 5483 	.db #0x06
   3878 06                 5484 	.db #0x06
   3879 06                 5485 	.db #0x06
   387A 06                 5486 	.db #0x06
   387B 06                 5487 	.db #0x06
   387C 06                 5488 	.db #0x06
   387D 06                 5489 	.db #0x06
   387E 06                 5490 	.db #0x06
   387F 06                 5491 	.db #0x06
   3880 06                 5492 	.db #0x06
   3881 06                 5493 	.db #0x06
   3882 06                 5494 	.db #0x06
   3883 06                 5495 	.db #0x06
   3884 06                 5496 	.db #0x06
   3885 06                 5497 	.db #0x06
   3886 06                 5498 	.db #0x06
   3887                    5499 __xinit__beep1_melody:
   3887 FB 00              5500 	.byte #0xFB,#0x00
   3889 00 00              5501 	.byte #0x00,#0x00
   388B                    5502 __xinit__beep1_noteTime:
   388B 06                 5503 	.db #0x06
   388C 0C                 5504 	.db #0x0C
   388D                    5505 __xinit__beep2_melody:
   388D ED 00              5506 	.byte #0xED,#0x00
   388F 00 00              5507 	.byte #0x00,#0x00
   3891                    5508 __xinit__beep2_noteTime:
   3891 06                 5509 	.db #0x06
   3892 0C                 5510 	.db #0x0C
   3893                    5511 __xinit__rxMsg:
   3893 00                 5512 	.db #0x00
                           5513 	.area CABS    (ABS,CODE)
